   1              	 .cpu cortex-m0
   2              	 .fpu softvfp
   3              	 .eabi_attribute 20,1
   4              	 .eabi_attribute 21,1
   5              	 .eabi_attribute 23,3
   6              	 .eabi_attribute 24,1
   7              	 .eabi_attribute 25,1
   8              	 .eabi_attribute 26,1
   9              	 .eabi_attribute 30,6
  10              	 .eabi_attribute 34,0
  11              	 .eabi_attribute 18,4
  12              	 .code 16
  13              	 .file "nRF24L01+.c"
  14              	 .text
  15              	.Ltext0:
  16              	 .cfi_sections .debug_frame
  17              	 .section .text.XMC_GPIO_SetOutputHigh,"ax",%progbits
  18              	 .align 2
  19              	 .code 16
  20              	 .thumb_func
  22              	XMC_GPIO_SetOutputHigh:
  23              	.LFB64:
  24              	 .file 1 "C:/Workspaces/DAVE-4.4.2-64Bit/RoverX/Libraries/XMCLib/inc/xmc_gpio.h"
   1:C:/Workspaces/DAVE-4.4.2-64Bit/RoverX/Libraries/XMCLib/inc\xmc_gpio.h **** /**
   2:C:/Workspaces/DAVE-4.4.2-64Bit/RoverX/Libraries/XMCLib/inc\xmc_gpio.h ****  * @file xmc_gpio.h
   3:C:/Workspaces/DAVE-4.4.2-64Bit/RoverX/Libraries/XMCLib/inc\xmc_gpio.h ****  * @date 2015-06-20
   4:C:/Workspaces/DAVE-4.4.2-64Bit/RoverX/Libraries/XMCLib/inc\xmc_gpio.h ****  *
   5:C:/Workspaces/DAVE-4.4.2-64Bit/RoverX/Libraries/XMCLib/inc\xmc_gpio.h ****  * @cond
   6:C:/Workspaces/DAVE-4.4.2-64Bit/RoverX/Libraries/XMCLib/inc\xmc_gpio.h ****  *****************************************************************************
   7:C:/Workspaces/DAVE-4.4.2-64Bit/RoverX/Libraries/XMCLib/inc\xmc_gpio.h ****  * XMClib v2.2.0 - XMC Peripheral Driver Library
   8:C:/Workspaces/DAVE-4.4.2-64Bit/RoverX/Libraries/XMCLib/inc\xmc_gpio.h ****  *
   9:C:/Workspaces/DAVE-4.4.2-64Bit/RoverX/Libraries/XMCLib/inc\xmc_gpio.h ****  * Copyright (c) 2015-2020, Infineon Technologies AG
  10:C:/Workspaces/DAVE-4.4.2-64Bit/RoverX/Libraries/XMCLib/inc\xmc_gpio.h ****  * All rights reserved.
  11:C:/Workspaces/DAVE-4.4.2-64Bit/RoverX/Libraries/XMCLib/inc\xmc_gpio.h ****  *
  12:C:/Workspaces/DAVE-4.4.2-64Bit/RoverX/Libraries/XMCLib/inc\xmc_gpio.h ****  * Boost Software License - Version 1.0 - August 17th, 2003
  13:C:/Workspaces/DAVE-4.4.2-64Bit/RoverX/Libraries/XMCLib/inc\xmc_gpio.h ****  *
  14:C:/Workspaces/DAVE-4.4.2-64Bit/RoverX/Libraries/XMCLib/inc\xmc_gpio.h ****  * Permission is hereby granted, free of charge, to any person or organization
  15:C:/Workspaces/DAVE-4.4.2-64Bit/RoverX/Libraries/XMCLib/inc\xmc_gpio.h ****  * obtaining a copy of the software and accompanying documentation covered by
  16:C:/Workspaces/DAVE-4.4.2-64Bit/RoverX/Libraries/XMCLib/inc\xmc_gpio.h ****  * this license (the "Software") to use, reproduce, display, distribute,
  17:C:/Workspaces/DAVE-4.4.2-64Bit/RoverX/Libraries/XMCLib/inc\xmc_gpio.h ****  * execute, and transmit the Software, and to prepare derivative works of the
  18:C:/Workspaces/DAVE-4.4.2-64Bit/RoverX/Libraries/XMCLib/inc\xmc_gpio.h ****  * Software, and to permit third-parties to whom the Software is furnished to
  19:C:/Workspaces/DAVE-4.4.2-64Bit/RoverX/Libraries/XMCLib/inc\xmc_gpio.h ****  * do so, all subject to the following:
  20:C:/Workspaces/DAVE-4.4.2-64Bit/RoverX/Libraries/XMCLib/inc\xmc_gpio.h ****  *
  21:C:/Workspaces/DAVE-4.4.2-64Bit/RoverX/Libraries/XMCLib/inc\xmc_gpio.h ****  * The copyright notices in the Software and this entire statement, including
  22:C:/Workspaces/DAVE-4.4.2-64Bit/RoverX/Libraries/XMCLib/inc\xmc_gpio.h ****  * the above license grant, this restriction and the following disclaimer,
  23:C:/Workspaces/DAVE-4.4.2-64Bit/RoverX/Libraries/XMCLib/inc\xmc_gpio.h ****  * must be included in all copies of the Software, in whole or in part, and
  24:C:/Workspaces/DAVE-4.4.2-64Bit/RoverX/Libraries/XMCLib/inc\xmc_gpio.h ****  * all derivative works of the Software, unless such copies or derivative
  25:C:/Workspaces/DAVE-4.4.2-64Bit/RoverX/Libraries/XMCLib/inc\xmc_gpio.h ****  * works are solely in the form of machine-executable object code generated by
  26:C:/Workspaces/DAVE-4.4.2-64Bit/RoverX/Libraries/XMCLib/inc\xmc_gpio.h ****  * a source language processor.
  27:C:/Workspaces/DAVE-4.4.2-64Bit/RoverX/Libraries/XMCLib/inc\xmc_gpio.h ****  *
  28:C:/Workspaces/DAVE-4.4.2-64Bit/RoverX/Libraries/XMCLib/inc\xmc_gpio.h ****  * THE SOFTWARE IS PROVIDED "AS IS", WITHOUT WARRANTY OF ANY KIND, EXPRESS OR
  29:C:/Workspaces/DAVE-4.4.2-64Bit/RoverX/Libraries/XMCLib/inc\xmc_gpio.h ****  * IMPLIED, INCLUDING BUT NOT LIMITED TO THE WARRANTIES OF MERCHANTABILITY,
  30:C:/Workspaces/DAVE-4.4.2-64Bit/RoverX/Libraries/XMCLib/inc\xmc_gpio.h ****  * FITNESS FOR A PARTICULAR PURPOSE, TITLE AND NON-INFRINGEMENT. IN NO EVENT
  31:C:/Workspaces/DAVE-4.4.2-64Bit/RoverX/Libraries/XMCLib/inc\xmc_gpio.h ****  * SHALL THE COPYRIGHT HOLDERS OR ANYONE DISTRIBUTING THE SOFTWARE BE LIABLE
  32:C:/Workspaces/DAVE-4.4.2-64Bit/RoverX/Libraries/XMCLib/inc\xmc_gpio.h ****  * FOR ANY DAMAGES OR OTHER LIABILITY, WHETHER IN CONTRACT, TORT OR OTHERWISE,
  33:C:/Workspaces/DAVE-4.4.2-64Bit/RoverX/Libraries/XMCLib/inc\xmc_gpio.h ****  * ARISING FROM, OUT OF OR IN CONNECTION WITH THE SOFTWARE OR THE USE OR OTHER
  34:C:/Workspaces/DAVE-4.4.2-64Bit/RoverX/Libraries/XMCLib/inc\xmc_gpio.h ****  * DEALINGS IN THE SOFTWARE.
  35:C:/Workspaces/DAVE-4.4.2-64Bit/RoverX/Libraries/XMCLib/inc\xmc_gpio.h ****  *
  36:C:/Workspaces/DAVE-4.4.2-64Bit/RoverX/Libraries/XMCLib/inc\xmc_gpio.h ****  * To improve the quality of the software, users are encouraged to share
  37:C:/Workspaces/DAVE-4.4.2-64Bit/RoverX/Libraries/XMCLib/inc\xmc_gpio.h ****  * modifications, enhancements or bug fixes with Infineon Technologies AG
  38:C:/Workspaces/DAVE-4.4.2-64Bit/RoverX/Libraries/XMCLib/inc\xmc_gpio.h ****  * at XMCSupport@infineon.com.
  39:C:/Workspaces/DAVE-4.4.2-64Bit/RoverX/Libraries/XMCLib/inc\xmc_gpio.h ****  *****************************************************************************
  40:C:/Workspaces/DAVE-4.4.2-64Bit/RoverX/Libraries/XMCLib/inc\xmc_gpio.h ****  *
  41:C:/Workspaces/DAVE-4.4.2-64Bit/RoverX/Libraries/XMCLib/inc\xmc_gpio.h ****  * Change History
  42:C:/Workspaces/DAVE-4.4.2-64Bit/RoverX/Libraries/XMCLib/inc\xmc_gpio.h ****  * --------------
  43:C:/Workspaces/DAVE-4.4.2-64Bit/RoverX/Libraries/XMCLib/inc\xmc_gpio.h ****  *
  44:C:/Workspaces/DAVE-4.4.2-64Bit/RoverX/Libraries/XMCLib/inc\xmc_gpio.h ****  * 2015-02-20:
  45:C:/Workspaces/DAVE-4.4.2-64Bit/RoverX/Libraries/XMCLib/inc\xmc_gpio.h ****  *     - Initial draft<br>
  46:C:/Workspaces/DAVE-4.4.2-64Bit/RoverX/Libraries/XMCLib/inc\xmc_gpio.h ****  *     - Documentation improved <br>
  47:C:/Workspaces/DAVE-4.4.2-64Bit/RoverX/Libraries/XMCLib/inc\xmc_gpio.h ****  *
  48:C:/Workspaces/DAVE-4.4.2-64Bit/RoverX/Libraries/XMCLib/inc\xmc_gpio.h ****  * 2015-06-20:
  49:C:/Workspaces/DAVE-4.4.2-64Bit/RoverX/Libraries/XMCLib/inc\xmc_gpio.h ****  *     - Removed version macros and declaration of GetDriverVersion API
  50:C:/Workspaces/DAVE-4.4.2-64Bit/RoverX/Libraries/XMCLib/inc\xmc_gpio.h ****  *
  51:C:/Workspaces/DAVE-4.4.2-64Bit/RoverX/Libraries/XMCLib/inc\xmc_gpio.h ****  * @endcond
  52:C:/Workspaces/DAVE-4.4.2-64Bit/RoverX/Libraries/XMCLib/inc\xmc_gpio.h ****  *
  53:C:/Workspaces/DAVE-4.4.2-64Bit/RoverX/Libraries/XMCLib/inc\xmc_gpio.h ****  */
  54:C:/Workspaces/DAVE-4.4.2-64Bit/RoverX/Libraries/XMCLib/inc\xmc_gpio.h **** 
  55:C:/Workspaces/DAVE-4.4.2-64Bit/RoverX/Libraries/XMCLib/inc\xmc_gpio.h **** #ifndef XMC_GPIO_H
  56:C:/Workspaces/DAVE-4.4.2-64Bit/RoverX/Libraries/XMCLib/inc\xmc_gpio.h **** #define XMC_GPIO_H
  57:C:/Workspaces/DAVE-4.4.2-64Bit/RoverX/Libraries/XMCLib/inc\xmc_gpio.h **** 
  58:C:/Workspaces/DAVE-4.4.2-64Bit/RoverX/Libraries/XMCLib/inc\xmc_gpio.h **** /**************************************************************************************************
  59:C:/Workspaces/DAVE-4.4.2-64Bit/RoverX/Libraries/XMCLib/inc\xmc_gpio.h ****  * HEADER FILES
  60:C:/Workspaces/DAVE-4.4.2-64Bit/RoverX/Libraries/XMCLib/inc\xmc_gpio.h ****  **************************************************************************************************
  61:C:/Workspaces/DAVE-4.4.2-64Bit/RoverX/Libraries/XMCLib/inc\xmc_gpio.h **** 
  62:C:/Workspaces/DAVE-4.4.2-64Bit/RoverX/Libraries/XMCLib/inc\xmc_gpio.h **** #include "xmc_common.h"
  63:C:/Workspaces/DAVE-4.4.2-64Bit/RoverX/Libraries/XMCLib/inc\xmc_gpio.h **** 
  64:C:/Workspaces/DAVE-4.4.2-64Bit/RoverX/Libraries/XMCLib/inc\xmc_gpio.h **** /**
  65:C:/Workspaces/DAVE-4.4.2-64Bit/RoverX/Libraries/XMCLib/inc\xmc_gpio.h ****  * @addtogroup XMClib XMC Peripheral Library
  66:C:/Workspaces/DAVE-4.4.2-64Bit/RoverX/Libraries/XMCLib/inc\xmc_gpio.h ****  * @{
  67:C:/Workspaces/DAVE-4.4.2-64Bit/RoverX/Libraries/XMCLib/inc\xmc_gpio.h ****  */
  68:C:/Workspaces/DAVE-4.4.2-64Bit/RoverX/Libraries/XMCLib/inc\xmc_gpio.h **** 
  69:C:/Workspaces/DAVE-4.4.2-64Bit/RoverX/Libraries/XMCLib/inc\xmc_gpio.h **** /**
  70:C:/Workspaces/DAVE-4.4.2-64Bit/RoverX/Libraries/XMCLib/inc\xmc_gpio.h ****  * @addtogroup GPIO
  71:C:/Workspaces/DAVE-4.4.2-64Bit/RoverX/Libraries/XMCLib/inc\xmc_gpio.h ****  * @brief General Purpose Input Output (GPIO) driver for the XMC microcontroller family.
  72:C:/Workspaces/DAVE-4.4.2-64Bit/RoverX/Libraries/XMCLib/inc\xmc_gpio.h ****  *
  73:C:/Workspaces/DAVE-4.4.2-64Bit/RoverX/Libraries/XMCLib/inc\xmc_gpio.h ****  * GPIO driver provide a generic and very flexible software interface for all standard digital I/O 
  74:C:/Workspaces/DAVE-4.4.2-64Bit/RoverX/Libraries/XMCLib/inc\xmc_gpio.h ****  * Each port slice has individual interfaces for the operation as General Purpose I/O and it furthe
  75:C:/Workspaces/DAVE-4.4.2-64Bit/RoverX/Libraries/XMCLib/inc\xmc_gpio.h ****  * connectivity to the on-chip periphery and the control for the pad characteristics.
  76:C:/Workspaces/DAVE-4.4.2-64Bit/RoverX/Libraries/XMCLib/inc\xmc_gpio.h ****  *
  77:C:/Workspaces/DAVE-4.4.2-64Bit/RoverX/Libraries/XMCLib/inc\xmc_gpio.h ****  * The driver is divided into Input and Output mode.
  78:C:/Workspaces/DAVE-4.4.2-64Bit/RoverX/Libraries/XMCLib/inc\xmc_gpio.h ****  *
  79:C:/Workspaces/DAVE-4.4.2-64Bit/RoverX/Libraries/XMCLib/inc\xmc_gpio.h ****  * Input mode features:
  80:C:/Workspaces/DAVE-4.4.2-64Bit/RoverX/Libraries/XMCLib/inc\xmc_gpio.h ****  * -# Configuration structure XMC_GPIO_CONFIG_t and initialization function XMC_GPIO_Init()
  81:C:/Workspaces/DAVE-4.4.2-64Bit/RoverX/Libraries/XMCLib/inc\xmc_gpio.h ****  * -# Allows the selection of weak pull-up or pull-down device. Configuration structure XMC_GPIO_MO
  82:C:/Workspaces/DAVE-4.4.2-64Bit/RoverX/Libraries/XMCLib/inc\xmc_gpio.h ****  * \if XMC1
  83:C:/Workspaces/DAVE-4.4.2-64Bit/RoverX/Libraries/XMCLib/inc\xmc_gpio.h ****  * -# Allows the selection of input hysteresis. XMC_GPIO_SetInputHysteresis()
  84:C:/Workspaces/DAVE-4.4.2-64Bit/RoverX/Libraries/XMCLib/inc\xmc_gpio.h ****  * \endif
  85:C:/Workspaces/DAVE-4.4.2-64Bit/RoverX/Libraries/XMCLib/inc\xmc_gpio.h ****  *
  86:C:/Workspaces/DAVE-4.4.2-64Bit/RoverX/Libraries/XMCLib/inc\xmc_gpio.h ****  *
  87:C:/Workspaces/DAVE-4.4.2-64Bit/RoverX/Libraries/XMCLib/inc\xmc_gpio.h ****  * Output mode features:
  88:C:/Workspaces/DAVE-4.4.2-64Bit/RoverX/Libraries/XMCLib/inc\xmc_gpio.h ****  * -# Allows the selection of push pull/open drain and Alternate output. Configuration structure XM
  89:C:/Workspaces/DAVE-4.4.2-64Bit/RoverX/Libraries/XMCLib/inc\xmc_gpio.h ****  * \if XMC4
  90:C:/Workspaces/DAVE-4.4.2-64Bit/RoverX/Libraries/XMCLib/inc\xmc_gpio.h ****  * -# Allows the selection of pad driver strength. Configuration structure XMC_GPIO_OUTPUT_STRENGTH
  91:C:/Workspaces/DAVE-4.4.2-64Bit/RoverX/Libraries/XMCLib/inc\xmc_gpio.h ****  * \endif
  92:C:/Workspaces/DAVE-4.4.2-64Bit/RoverX/Libraries/XMCLib/inc\xmc_gpio.h ****  *
  93:C:/Workspaces/DAVE-4.4.2-64Bit/RoverX/Libraries/XMCLib/inc\xmc_gpio.h ****  * -# Allows the selection of initial output level. Configuration structure XMC_GPIO_OUTPUT_LEVEL_t
  94:C:/Workspaces/DAVE-4.4.2-64Bit/RoverX/Libraries/XMCLib/inc\xmc_gpio.h ****  *
  95:C:/Workspaces/DAVE-4.4.2-64Bit/RoverX/Libraries/XMCLib/inc\xmc_gpio.h ****  *@{
  96:C:/Workspaces/DAVE-4.4.2-64Bit/RoverX/Libraries/XMCLib/inc\xmc_gpio.h ****  */
  97:C:/Workspaces/DAVE-4.4.2-64Bit/RoverX/Libraries/XMCLib/inc\xmc_gpio.h **** 
  98:C:/Workspaces/DAVE-4.4.2-64Bit/RoverX/Libraries/XMCLib/inc\xmc_gpio.h **** /**************************************************************************************************
  99:C:/Workspaces/DAVE-4.4.2-64Bit/RoverX/Libraries/XMCLib/inc\xmc_gpio.h ****  * MACROS
 100:C:/Workspaces/DAVE-4.4.2-64Bit/RoverX/Libraries/XMCLib/inc\xmc_gpio.h ****  **************************************************************************************************
 101:C:/Workspaces/DAVE-4.4.2-64Bit/RoverX/Libraries/XMCLib/inc\xmc_gpio.h **** 
 102:C:/Workspaces/DAVE-4.4.2-64Bit/RoverX/Libraries/XMCLib/inc\xmc_gpio.h **** #define PORT_IOCR_PC_Pos PORT0_IOCR0_PC0_Pos
 103:C:/Workspaces/DAVE-4.4.2-64Bit/RoverX/Libraries/XMCLib/inc\xmc_gpio.h **** #define PORT_IOCR_PC_Msk PORT0_IOCR0_PC0_Msk
 104:C:/Workspaces/DAVE-4.4.2-64Bit/RoverX/Libraries/XMCLib/inc\xmc_gpio.h **** 
 105:C:/Workspaces/DAVE-4.4.2-64Bit/RoverX/Libraries/XMCLib/inc\xmc_gpio.h **** #define PORT_IOCR_PC_Size 				(8U)
 106:C:/Workspaces/DAVE-4.4.2-64Bit/RoverX/Libraries/XMCLib/inc\xmc_gpio.h **** 
 107:C:/Workspaces/DAVE-4.4.2-64Bit/RoverX/Libraries/XMCLib/inc\xmc_gpio.h **** 
 108:C:/Workspaces/DAVE-4.4.2-64Bit/RoverX/Libraries/XMCLib/inc\xmc_gpio.h **** #define XMC_GPIO_CHECK_OUTPUT_LEVEL(level) ((level == XMC_GPIO_OUTPUT_LEVEL_LOW) || \
 109:C:/Workspaces/DAVE-4.4.2-64Bit/RoverX/Libraries/XMCLib/inc\xmc_gpio.h ****                                             (level == XMC_GPIO_OUTPUT_LEVEL_HIGH))
 110:C:/Workspaces/DAVE-4.4.2-64Bit/RoverX/Libraries/XMCLib/inc\xmc_gpio.h **** 
 111:C:/Workspaces/DAVE-4.4.2-64Bit/RoverX/Libraries/XMCLib/inc\xmc_gpio.h **** #define XMC_GPIO_CHECK_HWCTRL(hwctrl) ((hwctrl == XMC_GPIO_HWCTRL_DISABLED) || \
 112:C:/Workspaces/DAVE-4.4.2-64Bit/RoverX/Libraries/XMCLib/inc\xmc_gpio.h ****                                        (hwctrl == XMC_GPIO_HWCTRL_PERIPHERAL1) || \
 113:C:/Workspaces/DAVE-4.4.2-64Bit/RoverX/Libraries/XMCLib/inc\xmc_gpio.h ****                                        (hwctrl == XMC_GPIO_HWCTRL_PERIPHERAL2))
 114:C:/Workspaces/DAVE-4.4.2-64Bit/RoverX/Libraries/XMCLib/inc\xmc_gpio.h **** 
 115:C:/Workspaces/DAVE-4.4.2-64Bit/RoverX/Libraries/XMCLib/inc\xmc_gpio.h **** /**************************************************************************************************
 116:C:/Workspaces/DAVE-4.4.2-64Bit/RoverX/Libraries/XMCLib/inc\xmc_gpio.h ****  * ENUMS
 117:C:/Workspaces/DAVE-4.4.2-64Bit/RoverX/Libraries/XMCLib/inc\xmc_gpio.h ****  **************************************************************************************************
 118:C:/Workspaces/DAVE-4.4.2-64Bit/RoverX/Libraries/XMCLib/inc\xmc_gpio.h **** 
 119:C:/Workspaces/DAVE-4.4.2-64Bit/RoverX/Libraries/XMCLib/inc\xmc_gpio.h **** 
 120:C:/Workspaces/DAVE-4.4.2-64Bit/RoverX/Libraries/XMCLib/inc\xmc_gpio.h **** /**
 121:C:/Workspaces/DAVE-4.4.2-64Bit/RoverX/Libraries/XMCLib/inc\xmc_gpio.h ****  * Defines output level of a pin. Use type \a XMC_GPIO_OUTPUT_LEVEL_t for this enum.
 122:C:/Workspaces/DAVE-4.4.2-64Bit/RoverX/Libraries/XMCLib/inc\xmc_gpio.h ****  */
 123:C:/Workspaces/DAVE-4.4.2-64Bit/RoverX/Libraries/XMCLib/inc\xmc_gpio.h **** typedef enum XMC_GPIO_OUTPUT_LEVEL
 124:C:/Workspaces/DAVE-4.4.2-64Bit/RoverX/Libraries/XMCLib/inc\xmc_gpio.h **** {
 125:C:/Workspaces/DAVE-4.4.2-64Bit/RoverX/Libraries/XMCLib/inc\xmc_gpio.h ****   XMC_GPIO_OUTPUT_LEVEL_LOW  = 0x10000U, /**<  Reset bit */
 126:C:/Workspaces/DAVE-4.4.2-64Bit/RoverX/Libraries/XMCLib/inc\xmc_gpio.h ****   XMC_GPIO_OUTPUT_LEVEL_HIGH = 0x1U, 	/**< Set bit  */
 127:C:/Workspaces/DAVE-4.4.2-64Bit/RoverX/Libraries/XMCLib/inc\xmc_gpio.h **** } XMC_GPIO_OUTPUT_LEVEL_t;
 128:C:/Workspaces/DAVE-4.4.2-64Bit/RoverX/Libraries/XMCLib/inc\xmc_gpio.h **** 
 129:C:/Workspaces/DAVE-4.4.2-64Bit/RoverX/Libraries/XMCLib/inc\xmc_gpio.h **** /**
 130:C:/Workspaces/DAVE-4.4.2-64Bit/RoverX/Libraries/XMCLib/inc\xmc_gpio.h ****  * Defines direct hardware control characteristics of the pin . Use type \a XMC_GPIO_HWCTRL_t for t
 131:C:/Workspaces/DAVE-4.4.2-64Bit/RoverX/Libraries/XMCLib/inc\xmc_gpio.h ****  */
 132:C:/Workspaces/DAVE-4.4.2-64Bit/RoverX/Libraries/XMCLib/inc\xmc_gpio.h **** typedef enum XMC_GPIO_HWCTRL
 133:C:/Workspaces/DAVE-4.4.2-64Bit/RoverX/Libraries/XMCLib/inc\xmc_gpio.h **** {
 134:C:/Workspaces/DAVE-4.4.2-64Bit/RoverX/Libraries/XMCLib/inc\xmc_gpio.h ****   XMC_GPIO_HWCTRL_DISABLED     = 0x0U, /**<  Software control only */
 135:C:/Workspaces/DAVE-4.4.2-64Bit/RoverX/Libraries/XMCLib/inc\xmc_gpio.h ****   XMC_GPIO_HWCTRL_PERIPHERAL1  = 0x1U, /**<  HWI0/HWO0 control path can override the software confi
 136:C:/Workspaces/DAVE-4.4.2-64Bit/RoverX/Libraries/XMCLib/inc\xmc_gpio.h ****   XMC_GPIO_HWCTRL_PERIPHERAL2  = 0x2U  /**<  HWI1/HWO1 control path can override the software confi
 137:C:/Workspaces/DAVE-4.4.2-64Bit/RoverX/Libraries/XMCLib/inc\xmc_gpio.h **** } XMC_GPIO_HWCTRL_t;
 138:C:/Workspaces/DAVE-4.4.2-64Bit/RoverX/Libraries/XMCLib/inc\xmc_gpio.h **** 
 139:C:/Workspaces/DAVE-4.4.2-64Bit/RoverX/Libraries/XMCLib/inc\xmc_gpio.h **** /**************************************************************************************************
 140:C:/Workspaces/DAVE-4.4.2-64Bit/RoverX/Libraries/XMCLib/inc\xmc_gpio.h ****  * DEVICE FAMILY EXTENSIONS
 141:C:/Workspaces/DAVE-4.4.2-64Bit/RoverX/Libraries/XMCLib/inc\xmc_gpio.h ****  **************************************************************************************************
 142:C:/Workspaces/DAVE-4.4.2-64Bit/RoverX/Libraries/XMCLib/inc\xmc_gpio.h **** 
 143:C:/Workspaces/DAVE-4.4.2-64Bit/RoverX/Libraries/XMCLib/inc\xmc_gpio.h **** #if UC_FAMILY == XMC1
 144:C:/Workspaces/DAVE-4.4.2-64Bit/RoverX/Libraries/XMCLib/inc\xmc_gpio.h **** #include "xmc1_gpio.h"
 145:C:/Workspaces/DAVE-4.4.2-64Bit/RoverX/Libraries/XMCLib/inc\xmc_gpio.h **** #elif UC_FAMILY == XMC4
 146:C:/Workspaces/DAVE-4.4.2-64Bit/RoverX/Libraries/XMCLib/inc\xmc_gpio.h **** #include "xmc4_gpio.h"
 147:C:/Workspaces/DAVE-4.4.2-64Bit/RoverX/Libraries/XMCLib/inc\xmc_gpio.h **** #else
 148:C:/Workspaces/DAVE-4.4.2-64Bit/RoverX/Libraries/XMCLib/inc\xmc_gpio.h **** #error "xmc_gpio.h: family device not supported"
 149:C:/Workspaces/DAVE-4.4.2-64Bit/RoverX/Libraries/XMCLib/inc\xmc_gpio.h **** #endif
 150:C:/Workspaces/DAVE-4.4.2-64Bit/RoverX/Libraries/XMCLib/inc\xmc_gpio.h **** 
 151:C:/Workspaces/DAVE-4.4.2-64Bit/RoverX/Libraries/XMCLib/inc\xmc_gpio.h **** /**************************************************************************************************
 152:C:/Workspaces/DAVE-4.4.2-64Bit/RoverX/Libraries/XMCLib/inc\xmc_gpio.h ****  * API PROTOTYPES
 153:C:/Workspaces/DAVE-4.4.2-64Bit/RoverX/Libraries/XMCLib/inc\xmc_gpio.h ****  **************************************************************************************************
 154:C:/Workspaces/DAVE-4.4.2-64Bit/RoverX/Libraries/XMCLib/inc\xmc_gpio.h **** 
 155:C:/Workspaces/DAVE-4.4.2-64Bit/RoverX/Libraries/XMCLib/inc\xmc_gpio.h **** #ifdef __cplusplus
 156:C:/Workspaces/DAVE-4.4.2-64Bit/RoverX/Libraries/XMCLib/inc\xmc_gpio.h **** extern "C" {
 157:C:/Workspaces/DAVE-4.4.2-64Bit/RoverX/Libraries/XMCLib/inc\xmc_gpio.h **** #endif
 158:C:/Workspaces/DAVE-4.4.2-64Bit/RoverX/Libraries/XMCLib/inc\xmc_gpio.h **** 
 159:C:/Workspaces/DAVE-4.4.2-64Bit/RoverX/Libraries/XMCLib/inc\xmc_gpio.h **** 
 160:C:/Workspaces/DAVE-4.4.2-64Bit/RoverX/Libraries/XMCLib/inc\xmc_gpio.h **** /**
 161:C:/Workspaces/DAVE-4.4.2-64Bit/RoverX/Libraries/XMCLib/inc\xmc_gpio.h ****  * @param  port	  Constant pointer pointing to GPIO port, to access port registers like Pn_OUT,Pn_O
 162:C:/Workspaces/DAVE-4.4.2-64Bit/RoverX/Libraries/XMCLib/inc\xmc_gpio.h ****  * @param  pin	  Port pin number.
 163:C:/Workspaces/DAVE-4.4.2-64Bit/RoverX/Libraries/XMCLib/inc\xmc_gpio.h ****  * @param  config GPIO configuration data structure. Refer data structure @ref XMC_GPIO_CONFIG_t fo
 164:C:/Workspaces/DAVE-4.4.2-64Bit/RoverX/Libraries/XMCLib/inc\xmc_gpio.h ****  *
 165:C:/Workspaces/DAVE-4.4.2-64Bit/RoverX/Libraries/XMCLib/inc\xmc_gpio.h ****  * @return None
 166:C:/Workspaces/DAVE-4.4.2-64Bit/RoverX/Libraries/XMCLib/inc\xmc_gpio.h ****  *
 167:C:/Workspaces/DAVE-4.4.2-64Bit/RoverX/Libraries/XMCLib/inc\xmc_gpio.h ****  * \par<b>Description:</b><br>
 168:C:/Workspaces/DAVE-4.4.2-64Bit/RoverX/Libraries/XMCLib/inc\xmc_gpio.h ****  * \if XMC1
 169:C:/Workspaces/DAVE-4.4.2-64Bit/RoverX/Libraries/XMCLib/inc\xmc_gpio.h ****  * Initializes input / output mode settings like, pull up / pull down devices,hysteresis, push pull
 170:C:/Workspaces/DAVE-4.4.2-64Bit/RoverX/Libraries/XMCLib/inc\xmc_gpio.h ****  * Also configures alternate function outputs and clears hardware port control for a selected \a po
 171:C:/Workspaces/DAVE-4.4.2-64Bit/RoverX/Libraries/XMCLib/inc\xmc_gpio.h ****  * \a config provides selected I/O settings. It configures hardware registers Pn_IOCR,Pn_OUT, Pn_OM
 172:C:/Workspaces/DAVE-4.4.2-64Bit/RoverX/Libraries/XMCLib/inc\xmc_gpio.h ****  * \endif
 173:C:/Workspaces/DAVE-4.4.2-64Bit/RoverX/Libraries/XMCLib/inc\xmc_gpio.h ****  * \if XMC4
 174:C:/Workspaces/DAVE-4.4.2-64Bit/RoverX/Libraries/XMCLib/inc\xmc_gpio.h ****  * Initializes input / output mode settings like, pull up / pull down devices,push pull /open drain
 175:C:/Workspaces/DAVE-4.4.2-64Bit/RoverX/Libraries/XMCLib/inc\xmc_gpio.h ****  * Also configures alternate function outputs and clears hardware port control for selected \a port
 176:C:/Workspaces/DAVE-4.4.2-64Bit/RoverX/Libraries/XMCLib/inc\xmc_gpio.h ****  * It configures hardware registers Pn_IOCR,Pn_OUT,Pn_OMR,Pn_PDISC and Pn_PDR.\n
 177:C:/Workspaces/DAVE-4.4.2-64Bit/RoverX/Libraries/XMCLib/inc\xmc_gpio.h ****  * \endif
 178:C:/Workspaces/DAVE-4.4.2-64Bit/RoverX/Libraries/XMCLib/inc\xmc_gpio.h ****  *
 179:C:/Workspaces/DAVE-4.4.2-64Bit/RoverX/Libraries/XMCLib/inc\xmc_gpio.h ****  * \par<b>Related APIs:</b><BR>
 180:C:/Workspaces/DAVE-4.4.2-64Bit/RoverX/Libraries/XMCLib/inc\xmc_gpio.h ****  *  None
 181:C:/Workspaces/DAVE-4.4.2-64Bit/RoverX/Libraries/XMCLib/inc\xmc_gpio.h ****  *
 182:C:/Workspaces/DAVE-4.4.2-64Bit/RoverX/Libraries/XMCLib/inc\xmc_gpio.h ****  * \par<b>Note:</b><br>
 183:C:/Workspaces/DAVE-4.4.2-64Bit/RoverX/Libraries/XMCLib/inc\xmc_gpio.h ****  * This API is called in definition of DAVE_init by code generation and therefore should not be exp
 184:C:/Workspaces/DAVE-4.4.2-64Bit/RoverX/Libraries/XMCLib/inc\xmc_gpio.h ****  * for the normal operation. Use other APIs only after DAVE_init is called successfully (returns DA
 185:C:/Workspaces/DAVE-4.4.2-64Bit/RoverX/Libraries/XMCLib/inc\xmc_gpio.h ****  *
 186:C:/Workspaces/DAVE-4.4.2-64Bit/RoverX/Libraries/XMCLib/inc\xmc_gpio.h ****  *
 187:C:/Workspaces/DAVE-4.4.2-64Bit/RoverX/Libraries/XMCLib/inc\xmc_gpio.h ****  */
 188:C:/Workspaces/DAVE-4.4.2-64Bit/RoverX/Libraries/XMCLib/inc\xmc_gpio.h **** 
 189:C:/Workspaces/DAVE-4.4.2-64Bit/RoverX/Libraries/XMCLib/inc\xmc_gpio.h **** 
 190:C:/Workspaces/DAVE-4.4.2-64Bit/RoverX/Libraries/XMCLib/inc\xmc_gpio.h **** void XMC_GPIO_Init(XMC_GPIO_PORT_t *const port, const uint8_t pin, const XMC_GPIO_CONFIG_t *const c
 191:C:/Workspaces/DAVE-4.4.2-64Bit/RoverX/Libraries/XMCLib/inc\xmc_gpio.h **** 
 192:C:/Workspaces/DAVE-4.4.2-64Bit/RoverX/Libraries/XMCLib/inc\xmc_gpio.h **** /**
 193:C:/Workspaces/DAVE-4.4.2-64Bit/RoverX/Libraries/XMCLib/inc\xmc_gpio.h ****  *
 194:C:/Workspaces/DAVE-4.4.2-64Bit/RoverX/Libraries/XMCLib/inc\xmc_gpio.h ****  * @param  port	Constant pointer pointing to GPIO port, to access hardware register Pn_IOCR.
 195:C:/Workspaces/DAVE-4.4.2-64Bit/RoverX/Libraries/XMCLib/inc\xmc_gpio.h ****  * @param  pin	Port pin number.
 196:C:/Workspaces/DAVE-4.4.2-64Bit/RoverX/Libraries/XMCLib/inc\xmc_gpio.h ****  * @param  mode input / output functionality selection. Refer @ref XMC_GPIO_MODE_t for valid values
 197:C:/Workspaces/DAVE-4.4.2-64Bit/RoverX/Libraries/XMCLib/inc\xmc_gpio.h ****  *
 198:C:/Workspaces/DAVE-4.4.2-64Bit/RoverX/Libraries/XMCLib/inc\xmc_gpio.h ****  * @return None
 199:C:/Workspaces/DAVE-4.4.2-64Bit/RoverX/Libraries/XMCLib/inc\xmc_gpio.h ****  *
 200:C:/Workspaces/DAVE-4.4.2-64Bit/RoverX/Libraries/XMCLib/inc\xmc_gpio.h ****  * \par<b>Description:</b><br>
 201:C:/Workspaces/DAVE-4.4.2-64Bit/RoverX/Libraries/XMCLib/inc\xmc_gpio.h ****  * Sets digital input and output driver functionality and characteristics of a GPIO port pin. It co
 202:C:/Workspaces/DAVE-4.4.2-64Bit/RoverX/Libraries/XMCLib/inc\xmc_gpio.h ****  * registers Pn_IOCR. \a mode is initially configured during initialization in XMC_GPIO_Init(). Cal
 203:C:/Workspaces/DAVE-4.4.2-64Bit/RoverX/Libraries/XMCLib/inc\xmc_gpio.h ****  * the port direction functionality as needed later in the program.
 204:C:/Workspaces/DAVE-4.4.2-64Bit/RoverX/Libraries/XMCLib/inc\xmc_gpio.h ****  *
 205:C:/Workspaces/DAVE-4.4.2-64Bit/RoverX/Libraries/XMCLib/inc\xmc_gpio.h ****  * \par<b>Related APIs:</b><BR>
 206:C:/Workspaces/DAVE-4.4.2-64Bit/RoverX/Libraries/XMCLib/inc\xmc_gpio.h ****  *  None
 207:C:/Workspaces/DAVE-4.4.2-64Bit/RoverX/Libraries/XMCLib/inc\xmc_gpio.h ****  *
 208:C:/Workspaces/DAVE-4.4.2-64Bit/RoverX/Libraries/XMCLib/inc\xmc_gpio.h ****  */
 209:C:/Workspaces/DAVE-4.4.2-64Bit/RoverX/Libraries/XMCLib/inc\xmc_gpio.h **** 
 210:C:/Workspaces/DAVE-4.4.2-64Bit/RoverX/Libraries/XMCLib/inc\xmc_gpio.h **** void XMC_GPIO_SetMode(XMC_GPIO_PORT_t *const port, const uint8_t pin, const XMC_GPIO_MODE_t mode);
 211:C:/Workspaces/DAVE-4.4.2-64Bit/RoverX/Libraries/XMCLib/inc\xmc_gpio.h **** 
 212:C:/Workspaces/DAVE-4.4.2-64Bit/RoverX/Libraries/XMCLib/inc\xmc_gpio.h **** 
 213:C:/Workspaces/DAVE-4.4.2-64Bit/RoverX/Libraries/XMCLib/inc\xmc_gpio.h **** /**
 214:C:/Workspaces/DAVE-4.4.2-64Bit/RoverX/Libraries/XMCLib/inc\xmc_gpio.h ****  *
 215:C:/Workspaces/DAVE-4.4.2-64Bit/RoverX/Libraries/XMCLib/inc\xmc_gpio.h ****  * @param  port	 Constant pointer pointing to GPIO port, to access hardware register Pn_OMR.
 216:C:/Workspaces/DAVE-4.4.2-64Bit/RoverX/Libraries/XMCLib/inc\xmc_gpio.h ****  * @param  pin	 Port pin number.
 217:C:/Workspaces/DAVE-4.4.2-64Bit/RoverX/Libraries/XMCLib/inc\xmc_gpio.h ****  * @param  level output level selection. Refer @ref XMC_GPIO_OUTPUT_LEVEL_t for valid values.
 218:C:/Workspaces/DAVE-4.4.2-64Bit/RoverX/Libraries/XMCLib/inc\xmc_gpio.h ****  *
 219:C:/Workspaces/DAVE-4.4.2-64Bit/RoverX/Libraries/XMCLib/inc\xmc_gpio.h ****  * @return None
 220:C:/Workspaces/DAVE-4.4.2-64Bit/RoverX/Libraries/XMCLib/inc\xmc_gpio.h ****  *
 221:C:/Workspaces/DAVE-4.4.2-64Bit/RoverX/Libraries/XMCLib/inc\xmc_gpio.h ****  * \par<b>Description:</b><br>
 222:C:/Workspaces/DAVE-4.4.2-64Bit/RoverX/Libraries/XMCLib/inc\xmc_gpio.h ****  * Set port pin output level to high or low.It configures hardware registers Pn_OMR.\a level is ini
 223:C:/Workspaces/DAVE-4.4.2-64Bit/RoverX/Libraries/XMCLib/inc\xmc_gpio.h ****  * configured during initialization in XMC_GPIO_Init(). Call this API to alter output level as need
 224:C:/Workspaces/DAVE-4.4.2-64Bit/RoverX/Libraries/XMCLib/inc\xmc_gpio.h ****  *
 225:C:/Workspaces/DAVE-4.4.2-64Bit/RoverX/Libraries/XMCLib/inc\xmc_gpio.h ****  * \par<b>Related APIs:</b><BR>
 226:C:/Workspaces/DAVE-4.4.2-64Bit/RoverX/Libraries/XMCLib/inc\xmc_gpio.h ****  *  XMC_GPIO_SetOutputHigh(), XMC_GPIO_SetOutputLow().
 227:C:/Workspaces/DAVE-4.4.2-64Bit/RoverX/Libraries/XMCLib/inc\xmc_gpio.h ****  *
 228:C:/Workspaces/DAVE-4.4.2-64Bit/RoverX/Libraries/XMCLib/inc\xmc_gpio.h ****  * \par<b>Note:</b><br>
 229:C:/Workspaces/DAVE-4.4.2-64Bit/RoverX/Libraries/XMCLib/inc\xmc_gpio.h ****  * Prior to this api, user has to configure port pin to output mode using XMC_GPIO_SetMode().
 230:C:/Workspaces/DAVE-4.4.2-64Bit/RoverX/Libraries/XMCLib/inc\xmc_gpio.h ****  *
 231:C:/Workspaces/DAVE-4.4.2-64Bit/RoverX/Libraries/XMCLib/inc\xmc_gpio.h ****  */
 232:C:/Workspaces/DAVE-4.4.2-64Bit/RoverX/Libraries/XMCLib/inc\xmc_gpio.h **** 
 233:C:/Workspaces/DAVE-4.4.2-64Bit/RoverX/Libraries/XMCLib/inc\xmc_gpio.h **** 
 234:C:/Workspaces/DAVE-4.4.2-64Bit/RoverX/Libraries/XMCLib/inc\xmc_gpio.h **** __STATIC_INLINE void XMC_GPIO_SetOutputLevel(XMC_GPIO_PORT_t *const port, const uint8_t pin, const 
 235:C:/Workspaces/DAVE-4.4.2-64Bit/RoverX/Libraries/XMCLib/inc\xmc_gpio.h **** {
 236:C:/Workspaces/DAVE-4.4.2-64Bit/RoverX/Libraries/XMCLib/inc\xmc_gpio.h ****   XMC_ASSERT("XMC_GPIO_SetOutputLevel: Invalid port", XMC_GPIO_CHECK_OUTPUT_PORT(port));
 237:C:/Workspaces/DAVE-4.4.2-64Bit/RoverX/Libraries/XMCLib/inc\xmc_gpio.h ****   XMC_ASSERT("XMC_GPIO_SetOutputLevel: Invalid output level", XMC_GPIO_CHECK_OUTPUT_LEVEL(level));
 238:C:/Workspaces/DAVE-4.4.2-64Bit/RoverX/Libraries/XMCLib/inc\xmc_gpio.h **** 
 239:C:/Workspaces/DAVE-4.4.2-64Bit/RoverX/Libraries/XMCLib/inc\xmc_gpio.h ****   port->OMR = (uint32_t)level << pin;
 240:C:/Workspaces/DAVE-4.4.2-64Bit/RoverX/Libraries/XMCLib/inc\xmc_gpio.h **** }
 241:C:/Workspaces/DAVE-4.4.2-64Bit/RoverX/Libraries/XMCLib/inc\xmc_gpio.h **** 
 242:C:/Workspaces/DAVE-4.4.2-64Bit/RoverX/Libraries/XMCLib/inc\xmc_gpio.h **** 
 243:C:/Workspaces/DAVE-4.4.2-64Bit/RoverX/Libraries/XMCLib/inc\xmc_gpio.h **** /**
 244:C:/Workspaces/DAVE-4.4.2-64Bit/RoverX/Libraries/XMCLib/inc\xmc_gpio.h ****  * @param  port constant pointer pointing to GPIO port, to access hardware register Pn_OMR.
 245:C:/Workspaces/DAVE-4.4.2-64Bit/RoverX/Libraries/XMCLib/inc\xmc_gpio.h ****  * @param  pin	Port pin number.
 246:C:/Workspaces/DAVE-4.4.2-64Bit/RoverX/Libraries/XMCLib/inc\xmc_gpio.h ****  *
 247:C:/Workspaces/DAVE-4.4.2-64Bit/RoverX/Libraries/XMCLib/inc\xmc_gpio.h ****  * @return None
 248:C:/Workspaces/DAVE-4.4.2-64Bit/RoverX/Libraries/XMCLib/inc\xmc_gpio.h ****  *
 249:C:/Workspaces/DAVE-4.4.2-64Bit/RoverX/Libraries/XMCLib/inc\xmc_gpio.h ****  * \par<b>Description:</b><br>
 250:C:/Workspaces/DAVE-4.4.2-64Bit/RoverX/Libraries/XMCLib/inc\xmc_gpio.h ****  *  Sets port pin output to high. It configures hardware registers Pn_OMR.
 251:C:/Workspaces/DAVE-4.4.2-64Bit/RoverX/Libraries/XMCLib/inc\xmc_gpio.h ****  *
 252:C:/Workspaces/DAVE-4.4.2-64Bit/RoverX/Libraries/XMCLib/inc\xmc_gpio.h ****  *  \par<b>Related APIs:</b><BR>
 253:C:/Workspaces/DAVE-4.4.2-64Bit/RoverX/Libraries/XMCLib/inc\xmc_gpio.h ****  *  XMC_GPIO_SetOutputLow()
 254:C:/Workspaces/DAVE-4.4.2-64Bit/RoverX/Libraries/XMCLib/inc\xmc_gpio.h ****  *
 255:C:/Workspaces/DAVE-4.4.2-64Bit/RoverX/Libraries/XMCLib/inc\xmc_gpio.h ****  * \par<b>Note:</b><br>
 256:C:/Workspaces/DAVE-4.4.2-64Bit/RoverX/Libraries/XMCLib/inc\xmc_gpio.h ****  * Prior to this api, user has to configure port pin to output mode using XMC_GPIO_SetMode().\n
 257:C:/Workspaces/DAVE-4.4.2-64Bit/RoverX/Libraries/XMCLib/inc\xmc_gpio.h ****  * Register Pn_OMR is virtual and does not contain any flip-flop. A read action delivers the value 
 258:C:/Workspaces/DAVE-4.4.2-64Bit/RoverX/Libraries/XMCLib/inc\xmc_gpio.h ****  *
 259:C:/Workspaces/DAVE-4.4.2-64Bit/RoverX/Libraries/XMCLib/inc\xmc_gpio.h ****  */
 260:C:/Workspaces/DAVE-4.4.2-64Bit/RoverX/Libraries/XMCLib/inc\xmc_gpio.h **** 
 261:C:/Workspaces/DAVE-4.4.2-64Bit/RoverX/Libraries/XMCLib/inc\xmc_gpio.h **** __STATIC_INLINE void XMC_GPIO_SetOutputHigh(XMC_GPIO_PORT_t *const port, const uint8_t pin)
 262:C:/Workspaces/DAVE-4.4.2-64Bit/RoverX/Libraries/XMCLib/inc\xmc_gpio.h **** {
  25              	 .loc 1 262 0
  26              	 .cfi_startproc
  27 0000 80B5     	 push {r7,lr}
  28              	.LCFI0:
  29              	 .cfi_def_cfa_offset 8
  30              	 .cfi_offset 7,-8
  31              	 .cfi_offset 14,-4
  32 0002 82B0     	 sub sp,sp,#8
  33              	.LCFI1:
  34              	 .cfi_def_cfa_offset 16
  35 0004 00AF     	 add r7,sp,#0
  36              	.LCFI2:
  37              	 .cfi_def_cfa_register 7
  38 0006 7860     	 str r0,[r7,#4]
  39 0008 0A1C     	 mov r2,r1
  40 000a FB1C     	 add r3,r7,#3
  41 000c 1A70     	 strb r2,[r3]
 263:C:/Workspaces/DAVE-4.4.2-64Bit/RoverX/Libraries/XMCLib/inc\xmc_gpio.h ****   XMC_ASSERT("XMC_GPIO_SetOutputHigh: Invalid port", XMC_GPIO_CHECK_OUTPUT_PORT(port));
 264:C:/Workspaces/DAVE-4.4.2-64Bit/RoverX/Libraries/XMCLib/inc\xmc_gpio.h **** 
 265:C:/Workspaces/DAVE-4.4.2-64Bit/RoverX/Libraries/XMCLib/inc\xmc_gpio.h ****   port->OMR = (uint32_t)0x1U << pin;
  42              	 .loc 1 265 0
  43 000e FB1C     	 add r3,r7,#3
  44 0010 1B78     	 ldrb r3,[r3]
  45 0012 0122     	 mov r2,#1
  46 0014 9A40     	 lsl r2,r2,r3
  47 0016 7B68     	 ldr r3,[r7,#4]
  48 0018 5A60     	 str r2,[r3,#4]
 266:C:/Workspaces/DAVE-4.4.2-64Bit/RoverX/Libraries/XMCLib/inc\xmc_gpio.h **** }
  49              	 .loc 1 266 0
  50 001a BD46     	 mov sp,r7
  51 001c 02B0     	 add sp,sp,#8
  52              	 
  53 001e 80BD     	 pop {r7,pc}
  54              	 .cfi_endproc
  55              	.LFE64:
  57              	 .section .text.XMC_GPIO_SetOutputLow,"ax",%progbits
  58              	 .align 2
  59              	 .code 16
  60              	 .thumb_func
  62              	XMC_GPIO_SetOutputLow:
  63              	.LFB65:
 267:C:/Workspaces/DAVE-4.4.2-64Bit/RoverX/Libraries/XMCLib/inc\xmc_gpio.h **** 
 268:C:/Workspaces/DAVE-4.4.2-64Bit/RoverX/Libraries/XMCLib/inc\xmc_gpio.h **** /**
 269:C:/Workspaces/DAVE-4.4.2-64Bit/RoverX/Libraries/XMCLib/inc\xmc_gpio.h ****  *
 270:C:/Workspaces/DAVE-4.4.2-64Bit/RoverX/Libraries/XMCLib/inc\xmc_gpio.h ****  * @param  port	constant pointer pointing to GPIO port, to access hardware register Pn_OMR.
 271:C:/Workspaces/DAVE-4.4.2-64Bit/RoverX/Libraries/XMCLib/inc\xmc_gpio.h ****  * @param  pin	port pin number.
 272:C:/Workspaces/DAVE-4.4.2-64Bit/RoverX/Libraries/XMCLib/inc\xmc_gpio.h ****  *
 273:C:/Workspaces/DAVE-4.4.2-64Bit/RoverX/Libraries/XMCLib/inc\xmc_gpio.h ****  * @return  None
 274:C:/Workspaces/DAVE-4.4.2-64Bit/RoverX/Libraries/XMCLib/inc\xmc_gpio.h ****  *
 275:C:/Workspaces/DAVE-4.4.2-64Bit/RoverX/Libraries/XMCLib/inc\xmc_gpio.h ****  *\par<b>Description:</b><br>
 276:C:/Workspaces/DAVE-4.4.2-64Bit/RoverX/Libraries/XMCLib/inc\xmc_gpio.h ****  * Sets port pin output to low. It configures hardware registers Pn_OMR.\n
 277:C:/Workspaces/DAVE-4.4.2-64Bit/RoverX/Libraries/XMCLib/inc\xmc_gpio.h ****  *
 278:C:/Workspaces/DAVE-4.4.2-64Bit/RoverX/Libraries/XMCLib/inc\xmc_gpio.h ****  * \par<b>Related APIs:</b><BR>>
 279:C:/Workspaces/DAVE-4.4.2-64Bit/RoverX/Libraries/XMCLib/inc\xmc_gpio.h ****  * XMC_GPIO_SetOutputHigh()
 280:C:/Workspaces/DAVE-4.4.2-64Bit/RoverX/Libraries/XMCLib/inc\xmc_gpio.h ****  *
 281:C:/Workspaces/DAVE-4.4.2-64Bit/RoverX/Libraries/XMCLib/inc\xmc_gpio.h ****  *\par<b>Note:</b><br>
 282:C:/Workspaces/DAVE-4.4.2-64Bit/RoverX/Libraries/XMCLib/inc\xmc_gpio.h ****  * Prior to this api, user has to configure port pin to output mode using XMC_GPIO_SetMode().
 283:C:/Workspaces/DAVE-4.4.2-64Bit/RoverX/Libraries/XMCLib/inc\xmc_gpio.h ****  * Register Pn_OMR is virtual and does not contain any flip-flop. A read action delivers the value 
 284:C:/Workspaces/DAVE-4.4.2-64Bit/RoverX/Libraries/XMCLib/inc\xmc_gpio.h ****  *
 285:C:/Workspaces/DAVE-4.4.2-64Bit/RoverX/Libraries/XMCLib/inc\xmc_gpio.h ****  */
 286:C:/Workspaces/DAVE-4.4.2-64Bit/RoverX/Libraries/XMCLib/inc\xmc_gpio.h **** 
 287:C:/Workspaces/DAVE-4.4.2-64Bit/RoverX/Libraries/XMCLib/inc\xmc_gpio.h **** __STATIC_INLINE void XMC_GPIO_SetOutputLow(XMC_GPIO_PORT_t *const port, const uint8_t pin)
 288:C:/Workspaces/DAVE-4.4.2-64Bit/RoverX/Libraries/XMCLib/inc\xmc_gpio.h **** {
  64              	 .loc 1 288 0
  65              	 .cfi_startproc
  66 0000 80B5     	 push {r7,lr}
  67              	.LCFI3:
  68              	 .cfi_def_cfa_offset 8
  69              	 .cfi_offset 7,-8
  70              	 .cfi_offset 14,-4
  71 0002 82B0     	 sub sp,sp,#8
  72              	.LCFI4:
  73              	 .cfi_def_cfa_offset 16
  74 0004 00AF     	 add r7,sp,#0
  75              	.LCFI5:
  76              	 .cfi_def_cfa_register 7
  77 0006 7860     	 str r0,[r7,#4]
  78 0008 0A1C     	 mov r2,r1
  79 000a FB1C     	 add r3,r7,#3
  80 000c 1A70     	 strb r2,[r3]
 289:C:/Workspaces/DAVE-4.4.2-64Bit/RoverX/Libraries/XMCLib/inc\xmc_gpio.h ****   XMC_ASSERT("XMC_GPIO_SetOutputLow: Invalid port", XMC_GPIO_CHECK_OUTPUT_PORT(port));
 290:C:/Workspaces/DAVE-4.4.2-64Bit/RoverX/Libraries/XMCLib/inc\xmc_gpio.h **** 
 291:C:/Workspaces/DAVE-4.4.2-64Bit/RoverX/Libraries/XMCLib/inc\xmc_gpio.h ****   port->OMR = 0x10000U << pin;
  81              	 .loc 1 291 0
  82 000e FB1C     	 add r3,r7,#3
  83 0010 1B78     	 ldrb r3,[r3]
  84 0012 8022     	 mov r2,#128
  85 0014 5202     	 lsl r2,r2,#9
  86 0016 9A40     	 lsl r2,r2,r3
  87 0018 7B68     	 ldr r3,[r7,#4]
  88 001a 5A60     	 str r2,[r3,#4]
 292:C:/Workspaces/DAVE-4.4.2-64Bit/RoverX/Libraries/XMCLib/inc\xmc_gpio.h **** }
  89              	 .loc 1 292 0
  90 001c BD46     	 mov sp,r7
  91 001e 02B0     	 add sp,sp,#8
  92              	 
  93 0020 80BD     	 pop {r7,pc}
  94              	 .cfi_endproc
  95              	.LFE65:
  97 0022 C046     	 .section .text.SPI_MASTER_EnableSlaveSelectSignal,"ax",%progbits
  98              	 .align 2
  99              	 .code 16
 100              	 .thumb_func
 102              	SPI_MASTER_EnableSlaveSelectSignal:
 103              	.LFB182:
 104              	 .file 2 "C:/Workspaces/DAVE-4.4.2-64Bit/RoverX/Dave/Generated/SPI_MASTER/spi_master.h"
   1:C:/Workspaces/DAVE-4.4.2-64Bit/RoverX/Dave/Generated/SPI_MASTER\spi_master.h **** /**
   2:C:/Workspaces/DAVE-4.4.2-64Bit/RoverX/Dave/Generated/SPI_MASTER\spi_master.h ****  * @file spi_master.h
   3:C:/Workspaces/DAVE-4.4.2-64Bit/RoverX/Dave/Generated/SPI_MASTER\spi_master.h ****  * @date 2016-06-20
   4:C:/Workspaces/DAVE-4.4.2-64Bit/RoverX/Dave/Generated/SPI_MASTER\spi_master.h ****  *
   5:C:/Workspaces/DAVE-4.4.2-64Bit/RoverX/Dave/Generated/SPI_MASTER\spi_master.h ****  * NOTE:
   6:C:/Workspaces/DAVE-4.4.2-64Bit/RoverX/Dave/Generated/SPI_MASTER\spi_master.h ****  * This file is generated by DAVE. Any manual modification done to this file will be lost when the 
   7:C:/Workspaces/DAVE-4.4.2-64Bit/RoverX/Dave/Generated/SPI_MASTER\spi_master.h ****  *
   8:C:/Workspaces/DAVE-4.4.2-64Bit/RoverX/Dave/Generated/SPI_MASTER\spi_master.h ****  * @cond
   9:C:/Workspaces/DAVE-4.4.2-64Bit/RoverX/Dave/Generated/SPI_MASTER\spi_master.h ****  **************************************************************************************************
  10:C:/Workspaces/DAVE-4.4.2-64Bit/RoverX/Dave/Generated/SPI_MASTER\spi_master.h ****  * SPI_MASTER v4.3.30 - Configures the properties of USIC channel to support SPI mode of communicat
  11:C:/Workspaces/DAVE-4.4.2-64Bit/RoverX/Dave/Generated/SPI_MASTER\spi_master.h ****  *
  12:C:/Workspaces/DAVE-4.4.2-64Bit/RoverX/Dave/Generated/SPI_MASTER\spi_master.h ****  * Copyright (c) 2015-2020, Infineon Technologies AG
  13:C:/Workspaces/DAVE-4.4.2-64Bit/RoverX/Dave/Generated/SPI_MASTER\spi_master.h ****  * All rights reserved.
  14:C:/Workspaces/DAVE-4.4.2-64Bit/RoverX/Dave/Generated/SPI_MASTER\spi_master.h ****  *
  15:C:/Workspaces/DAVE-4.4.2-64Bit/RoverX/Dave/Generated/SPI_MASTER\spi_master.h ****  * Redistribution and use in source and binary forms, with or without modification,are permitted pr
  16:C:/Workspaces/DAVE-4.4.2-64Bit/RoverX/Dave/Generated/SPI_MASTER\spi_master.h ****  * following conditions are met:
  17:C:/Workspaces/DAVE-4.4.2-64Bit/RoverX/Dave/Generated/SPI_MASTER\spi_master.h ****  *
  18:C:/Workspaces/DAVE-4.4.2-64Bit/RoverX/Dave/Generated/SPI_MASTER\spi_master.h ****  *   Redistributions of source code must retain the above copyright notice, this list of conditions
  19:C:/Workspaces/DAVE-4.4.2-64Bit/RoverX/Dave/Generated/SPI_MASTER\spi_master.h ****  *   disclaimer.
  20:C:/Workspaces/DAVE-4.4.2-64Bit/RoverX/Dave/Generated/SPI_MASTER\spi_master.h ****  *
  21:C:/Workspaces/DAVE-4.4.2-64Bit/RoverX/Dave/Generated/SPI_MASTER\spi_master.h ****  *   Redistributions in binary form must reproduce the above copyright notice, this list of conditi
  22:C:/Workspaces/DAVE-4.4.2-64Bit/RoverX/Dave/Generated/SPI_MASTER\spi_master.h ****  *   following disclaimer in the documentation and/or other materials provided with the distributio
  23:C:/Workspaces/DAVE-4.4.2-64Bit/RoverX/Dave/Generated/SPI_MASTER\spi_master.h ****  *
  24:C:/Workspaces/DAVE-4.4.2-64Bit/RoverX/Dave/Generated/SPI_MASTER\spi_master.h ****  *   Neither the name of the copyright holders nor the names of its contributors may be used to end
  25:C:/Workspaces/DAVE-4.4.2-64Bit/RoverX/Dave/Generated/SPI_MASTER\spi_master.h ****  *   products derived from this software without specific prior written permission.
  26:C:/Workspaces/DAVE-4.4.2-64Bit/RoverX/Dave/Generated/SPI_MASTER\spi_master.h ****  *
  27:C:/Workspaces/DAVE-4.4.2-64Bit/RoverX/Dave/Generated/SPI_MASTER\spi_master.h ****  * THIS SOFTWARE IS PROVIDED BY THE COPYRIGHT HOLDERS AND CONTRIBUTORS "AS IS" AND ANY EXPRESS OR I
  28:C:/Workspaces/DAVE-4.4.2-64Bit/RoverX/Dave/Generated/SPI_MASTER\spi_master.h ****  * INCLUDING, BUT NOT LIMITED TO, THE IMPLIED WARRANTIES OF MERCHANTABILITY AND FITNESS FOR A PARTI
  29:C:/Workspaces/DAVE-4.4.2-64Bit/RoverX/Dave/Generated/SPI_MASTER\spi_master.h ****  * DISCLAIMED. IN NO EVENT SHALL THE COPYRIGHT HOLDER OR CONTRIBUTORS BE LIABLE  FOR ANY DIRECT, IN
  30:C:/Workspaces/DAVE-4.4.2-64Bit/RoverX/Dave/Generated/SPI_MASTER\spi_master.h ****  * SPECIAL, EXEMPLARY, OR CONSEQUENTIAL DAMAGES (INCLUDING, BUT NOT LIMITED TO, PROCUREMENT OF SUBS
  31:C:/Workspaces/DAVE-4.4.2-64Bit/RoverX/Dave/Generated/SPI_MASTER\spi_master.h ****  * SERVICES; LOSS OF USE, DATA, OR PROFITS; OR BUSINESS INTERRUPTION) HOWEVER CAUSED AND ON ANY THE
  32:C:/Workspaces/DAVE-4.4.2-64Bit/RoverX/Dave/Generated/SPI_MASTER\spi_master.h ****  * WHETHER IN CONTRACT, STRICT LIABILITY,OR TORT (INCLUDING NEGLIGENCE OR OTHERWISE) ARISING IN ANY
  33:C:/Workspaces/DAVE-4.4.2-64Bit/RoverX/Dave/Generated/SPI_MASTER\spi_master.h ****  * USE OF THIS SOFTWARE, EVEN IF ADVISED OF THE POSSIBILITY OF SUCH DAMAGE.
  34:C:/Workspaces/DAVE-4.4.2-64Bit/RoverX/Dave/Generated/SPI_MASTER\spi_master.h ****  *
  35:C:/Workspaces/DAVE-4.4.2-64Bit/RoverX/Dave/Generated/SPI_MASTER\spi_master.h ****  * To improve the quality of the software, users are encouraged to share modifications, enhancement
  36:C:/Workspaces/DAVE-4.4.2-64Bit/RoverX/Dave/Generated/SPI_MASTER\spi_master.h ****  * with Infineon Technologies AG (dave@infineon.com).
  37:C:/Workspaces/DAVE-4.4.2-64Bit/RoverX/Dave/Generated/SPI_MASTER\spi_master.h ****  **************************************************************************************************
  38:C:/Workspaces/DAVE-4.4.2-64Bit/RoverX/Dave/Generated/SPI_MASTER\spi_master.h ****  *
  39:C:/Workspaces/DAVE-4.4.2-64Bit/RoverX/Dave/Generated/SPI_MASTER\spi_master.h ****  * Change History
  40:C:/Workspaces/DAVE-4.4.2-64Bit/RoverX/Dave/Generated/SPI_MASTER\spi_master.h ****  * --------------
  41:C:/Workspaces/DAVE-4.4.2-64Bit/RoverX/Dave/Generated/SPI_MASTER\spi_master.h ****  *
  42:C:/Workspaces/DAVE-4.4.2-64Bit/RoverX/Dave/Generated/SPI_MASTER\spi_master.h ****  * 2015-02-16:
  43:C:/Workspaces/DAVE-4.4.2-64Bit/RoverX/Dave/Generated/SPI_MASTER\spi_master.h ****  *     - Initial version<br>
  44:C:/Workspaces/DAVE-4.4.2-64Bit/RoverX/Dave/Generated/SPI_MASTER\spi_master.h ****  *
  45:C:/Workspaces/DAVE-4.4.2-64Bit/RoverX/Dave/Generated/SPI_MASTER\spi_master.h ****  * 2015-02-20:
  46:C:/Workspaces/DAVE-4.4.2-64Bit/RoverX/Dave/Generated/SPI_MASTER\spi_master.h ****  *     - Added 'SPI_MASTER_INPUT_INVALID' in SPI_MASTER_INPUT_t to support dynamic mode change from
  47:C:/Workspaces/DAVE-4.4.2-64Bit/RoverX/Dave/Generated/SPI_MASTER\spi_master.h ****  *       as well<br>
  48:C:/Workspaces/DAVE-4.4.2-64Bit/RoverX/Dave/Generated/SPI_MASTER\spi_master.h ****  *
  49:C:/Workspaces/DAVE-4.4.2-64Bit/RoverX/Dave/Generated/SPI_MASTER\spi_master.h ****  * 2015-05-08:
  50:C:/Workspaces/DAVE-4.4.2-64Bit/RoverX/Dave/Generated/SPI_MASTER\spi_master.h ****  *     - SPI_MASTER_SetBaudRate() and SPI_MASTER_Transfer() are added<br>
  51:C:/Workspaces/DAVE-4.4.2-64Bit/RoverX/Dave/Generated/SPI_MASTER\spi_master.h ****  *     - C++ guard applied to API section only<br>
  52:C:/Workspaces/DAVE-4.4.2-64Bit/RoverX/Dave/Generated/SPI_MASTER\spi_master.h ****  *     - File guard updated according to the guidelines<br>
  53:C:/Workspaces/DAVE-4.4.2-64Bit/RoverX/Dave/Generated/SPI_MASTER\spi_master.h ****  *     - "SPI_MASTER_STATUS_BUFFER_INVALID" is added in SPI_MASTER_STATUS_t enum<br>
  54:C:/Workspaces/DAVE-4.4.2-64Bit/RoverX/Dave/Generated/SPI_MASTER\spi_master.h ****  *     - "leading_trailing_delay" is added in APP config structure<br>
  55:C:/Workspaces/DAVE-4.4.2-64Bit/RoverX/Dave/Generated/SPI_MASTER\spi_master.h ****  *     - "tx_data_dummy" is added in Dynamic config structure to support SPI_MASTER_Transfer() API<
  56:C:/Workspaces/DAVE-4.4.2-64Bit/RoverX/Dave/Generated/SPI_MASTER\spi_master.h ****  *     - XMC_ASSERT() are for NULL handle check in inline APIs<br>
  57:C:/Workspaces/DAVE-4.4.2-64Bit/RoverX/Dave/Generated/SPI_MASTER\spi_master.h ****  *     - SPI_MASTER_lTransmitHandler(), SPI_MASTER_lReceiveHandler(), SPI_MASTER_lProtocolHandler()
  58:C:/Workspaces/DAVE-4.4.2-64Bit/RoverX/Dave/Generated/SPI_MASTER\spi_master.h ****  *       spi_master_conf.c file<br>
  59:C:/Workspaces/DAVE-4.4.2-64Bit/RoverX/Dave/Generated/SPI_MASTER\spi_master.h ****  *
  60:C:/Workspaces/DAVE-4.4.2-64Bit/RoverX/Dave/Generated/SPI_MASTER\spi_master.h ****  * 2015-06-20:
  61:C:/Workspaces/DAVE-4.4.2-64Bit/RoverX/Dave/Generated/SPI_MASTER\spi_master.h ****  *     - For SPI_MASTER_Transfer(), SPI_MASTER_Receive(), SPI_MASTER_Transmit() APIs, the input dat
  62:C:/Workspaces/DAVE-4.4.2-64Bit/RoverX/Dave/Generated/SPI_MASTER\spi_master.h ****  *       from 16-bit to 8-bit.
  63:C:/Workspaces/DAVE-4.4.2-64Bit/RoverX/Dave/Generated/SPI_MASTER\spi_master.h ****  *     - word_length fields is added in SPI_MASTER_DYNAMIC_CONFIG_t, to support runtime change.
  64:C:/Workspaces/DAVE-4.4.2-64Bit/RoverX/Dave/Generated/SPI_MASTER\spi_master.h ****  *     - Abort API are updated to return the status.
  65:C:/Workspaces/DAVE-4.4.2-64Bit/RoverX/Dave/Generated/SPI_MASTER\spi_master.h ****  *
  66:C:/Workspaces/DAVE-4.4.2-64Bit/RoverX/Dave/Generated/SPI_MASTER\spi_master.h ****  * 2015-07-07:
  67:C:/Workspaces/DAVE-4.4.2-64Bit/RoverX/Dave/Generated/SPI_MASTER\spi_master.h ****  *     - DYNAMIC_CONFIG_t is renamed as RUNTIME_t
  68:C:/Workspaces/DAVE-4.4.2-64Bit/RoverX/Dave/Generated/SPI_MASTER\spi_master.h ****  *
  69:C:/Workspaces/DAVE-4.4.2-64Bit/RoverX/Dave/Generated/SPI_MASTER\spi_master.h ****  * 2015-09-30:
  70:C:/Workspaces/DAVE-4.4.2-64Bit/RoverX/Dave/Generated/SPI_MASTER\spi_master.h ****  *     - New SPI_MASTER_STATUS_MODE_MISMATCH item is added in SPI_MASTER_STATUS_t
  71:C:/Workspaces/DAVE-4.4.2-64Bit/RoverX/Dave/Generated/SPI_MASTER\spi_master.h ****  *
  72:C:/Workspaces/DAVE-4.4.2-64Bit/RoverX/Dave/Generated/SPI_MASTER\spi_master.h ****  * 2015-10-08:
  73:C:/Workspaces/DAVE-4.4.2-64Bit/RoverX/Dave/Generated/SPI_MASTER\spi_master.h ****  *     - SPI_MASTER_DMA_MAXCOUNT is exposed to the user.
  74:C:/Workspaces/DAVE-4.4.2-64Bit/RoverX/Dave/Generated/SPI_MASTER\spi_master.h ****  *     - dx0_input_half_duplex is added to support while changing the mode to half duplex mode.
  75:C:/Workspaces/DAVE-4.4.2-64Bit/RoverX/Dave/Generated/SPI_MASTER\spi_master.h ****  *     - SPI_MASTER_IsTxBusy() and SPI_MASTER_IsRxBusy() APIs are added to return the current state
  76:C:/Workspaces/DAVE-4.4.2-64Bit/RoverX/Dave/Generated/SPI_MASTER\spi_master.h ****  *     - Documentation update.
  77:C:/Workspaces/DAVE-4.4.2-64Bit/RoverX/Dave/Generated/SPI_MASTER\spi_master.h ****  *
  78:C:/Workspaces/DAVE-4.4.2-64Bit/RoverX/Dave/Generated/SPI_MASTER\spi_master.h ****  * 2015-10-14:
  79:C:/Workspaces/DAVE-4.4.2-64Bit/RoverX/Dave/Generated/SPI_MASTER\spi_master.h ****  *     - new variable "spi_master_config_mode" to store the actual mode generated during initialisa
  80:C:/Workspaces/DAVE-4.4.2-64Bit/RoverX/Dave/Generated/SPI_MASTER\spi_master.h ****  *
  81:C:/Workspaces/DAVE-4.4.2-64Bit/RoverX/Dave/Generated/SPI_MASTER\spi_master.h ****  * 2016-04-07:
  82:C:/Workspaces/DAVE-4.4.2-64Bit/RoverX/Dave/Generated/SPI_MASTER\spi_master.h ****  *     - runtime variable are made as volatile.
  83:C:/Workspaces/DAVE-4.4.2-64Bit/RoverX/Dave/Generated/SPI_MASTER\spi_master.h ****  *
  84:C:/Workspaces/DAVE-4.4.2-64Bit/RoverX/Dave/Generated/SPI_MASTER\spi_master.h ****  * 2021-01-08:
  85:C:/Workspaces/DAVE-4.4.2-64Bit/RoverX/Dave/Generated/SPI_MASTER\spi_master.h ****  *     - Modified check for minimum XMCLib version
  86:C:/Workspaces/DAVE-4.4.2-64Bit/RoverX/Dave/Generated/SPI_MASTER\spi_master.h ****  *
  87:C:/Workspaces/DAVE-4.4.2-64Bit/RoverX/Dave/Generated/SPI_MASTER\spi_master.h ****  * @endcond
  88:C:/Workspaces/DAVE-4.4.2-64Bit/RoverX/Dave/Generated/SPI_MASTER\spi_master.h ****  *
  89:C:/Workspaces/DAVE-4.4.2-64Bit/RoverX/Dave/Generated/SPI_MASTER\spi_master.h ****  */
  90:C:/Workspaces/DAVE-4.4.2-64Bit/RoverX/Dave/Generated/SPI_MASTER\spi_master.h **** 
  91:C:/Workspaces/DAVE-4.4.2-64Bit/RoverX/Dave/Generated/SPI_MASTER\spi_master.h **** #ifndef SPI_MASTER_H
  92:C:/Workspaces/DAVE-4.4.2-64Bit/RoverX/Dave/Generated/SPI_MASTER\spi_master.h **** #define SPI_MASTER_H
  93:C:/Workspaces/DAVE-4.4.2-64Bit/RoverX/Dave/Generated/SPI_MASTER\spi_master.h **** /**************************************************************************************************
  94:C:/Workspaces/DAVE-4.4.2-64Bit/RoverX/Dave/Generated/SPI_MASTER\spi_master.h ****  * HEADER FILES
  95:C:/Workspaces/DAVE-4.4.2-64Bit/RoverX/Dave/Generated/SPI_MASTER\spi_master.h ****  **************************************************************************************************
  96:C:/Workspaces/DAVE-4.4.2-64Bit/RoverX/Dave/Generated/SPI_MASTER\spi_master.h **** #include "xmc_gpio.h"
  97:C:/Workspaces/DAVE-4.4.2-64Bit/RoverX/Dave/Generated/SPI_MASTER\spi_master.h **** #include "xmc_scu.h"
  98:C:/Workspaces/DAVE-4.4.2-64Bit/RoverX/Dave/Generated/SPI_MASTER\spi_master.h **** #include "xmc_spi.h"
  99:C:/Workspaces/DAVE-4.4.2-64Bit/RoverX/Dave/Generated/SPI_MASTER\spi_master.h **** #include "DAVE_Common.h"
 100:C:/Workspaces/DAVE-4.4.2-64Bit/RoverX/Dave/Generated/SPI_MASTER\spi_master.h **** #include "spi_master_conf.h"
 101:C:/Workspaces/DAVE-4.4.2-64Bit/RoverX/Dave/Generated/SPI_MASTER\spi_master.h **** 
 102:C:/Workspaces/DAVE-4.4.2-64Bit/RoverX/Dave/Generated/SPI_MASTER\spi_master.h **** #if((SPI_MASTER_DMA_TRANSMIT_MODE == 1U) || (SPI_MASTER_DMA_RECEIVE_MODE == 1U))
 103:C:/Workspaces/DAVE-4.4.2-64Bit/RoverX/Dave/Generated/SPI_MASTER\spi_master.h **** #include "GLOBAL_DMA/global_dma.h"
 104:C:/Workspaces/DAVE-4.4.2-64Bit/RoverX/Dave/Generated/SPI_MASTER\spi_master.h **** #endif
 105:C:/Workspaces/DAVE-4.4.2-64Bit/RoverX/Dave/Generated/SPI_MASTER\spi_master.h **** 
 106:C:/Workspaces/DAVE-4.4.2-64Bit/RoverX/Dave/Generated/SPI_MASTER\spi_master.h **** /**************************************************************************************************
 107:C:/Workspaces/DAVE-4.4.2-64Bit/RoverX/Dave/Generated/SPI_MASTER\spi_master.h ****  * MACROS
 108:C:/Workspaces/DAVE-4.4.2-64Bit/RoverX/Dave/Generated/SPI_MASTER\spi_master.h ****  **************************************************************************************************
 109:C:/Workspaces/DAVE-4.4.2-64Bit/RoverX/Dave/Generated/SPI_MASTER\spi_master.h **** #define SPI_MASTER_XMC_LIB_MAJOR_VERSION 2
 110:C:/Workspaces/DAVE-4.4.2-64Bit/RoverX/Dave/Generated/SPI_MASTER\spi_master.h **** #define SPI_MASTER_XMC_LIB_MINOR_VERSION 1
 111:C:/Workspaces/DAVE-4.4.2-64Bit/RoverX/Dave/Generated/SPI_MASTER\spi_master.h **** #define SPI_MASTER_XMC_LIB_PATCH_VERSION 6
 112:C:/Workspaces/DAVE-4.4.2-64Bit/RoverX/Dave/Generated/SPI_MASTER\spi_master.h **** 
 113:C:/Workspaces/DAVE-4.4.2-64Bit/RoverX/Dave/Generated/SPI_MASTER\spi_master.h **** #if !((XMC_LIB_MAJOR_VERSION > SPI_MASTER_XMC_LIB_MAJOR_VERSION) ||\
 114:C:/Workspaces/DAVE-4.4.2-64Bit/RoverX/Dave/Generated/SPI_MASTER\spi_master.h ****       ((XMC_LIB_MAJOR_VERSION == SPI_MASTER_XMC_LIB_MAJOR_VERSION) && (XMC_LIB_MINOR_VERSION > SPI_
 115:C:/Workspaces/DAVE-4.4.2-64Bit/RoverX/Dave/Generated/SPI_MASTER\spi_master.h ****       ((XMC_LIB_MAJOR_VERSION == SPI_MASTER_XMC_LIB_MAJOR_VERSION) && (XMC_LIB_MINOR_VERSION == SPI
 116:C:/Workspaces/DAVE-4.4.2-64Bit/RoverX/Dave/Generated/SPI_MASTER\spi_master.h **** #error "SPI_MASTER requires XMC Peripheral Library v2.1.6 or higher"
 117:C:/Workspaces/DAVE-4.4.2-64Bit/RoverX/Dave/Generated/SPI_MASTER\spi_master.h **** #endif
 118:C:/Workspaces/DAVE-4.4.2-64Bit/RoverX/Dave/Generated/SPI_MASTER\spi_master.h **** 
 119:C:/Workspaces/DAVE-4.4.2-64Bit/RoverX/Dave/Generated/SPI_MASTER\spi_master.h **** /*
 120:C:/Workspaces/DAVE-4.4.2-64Bit/RoverX/Dave/Generated/SPI_MASTER\spi_master.h ****  * @brief Represents the maximum data size for DMA transaction*/
 121:C:/Workspaces/DAVE-4.4.2-64Bit/RoverX/Dave/Generated/SPI_MASTER\spi_master.h **** #define SPI_MASTER_DMA_MAXCOUNT (4095U)
 122:C:/Workspaces/DAVE-4.4.2-64Bit/RoverX/Dave/Generated/SPI_MASTER\spi_master.h **** /**************************************************************************************************
 123:C:/Workspaces/DAVE-4.4.2-64Bit/RoverX/Dave/Generated/SPI_MASTER\spi_master.h ****  * ENUMS
 124:C:/Workspaces/DAVE-4.4.2-64Bit/RoverX/Dave/Generated/SPI_MASTER\spi_master.h ****  **************************************************************************************************
 125:C:/Workspaces/DAVE-4.4.2-64Bit/RoverX/Dave/Generated/SPI_MASTER\spi_master.h **** /**
 126:C:/Workspaces/DAVE-4.4.2-64Bit/RoverX/Dave/Generated/SPI_MASTER\spi_master.h ****  * @ingroup SPI_MASTER_enumerations
 127:C:/Workspaces/DAVE-4.4.2-64Bit/RoverX/Dave/Generated/SPI_MASTER\spi_master.h ****  * @{
 128:C:/Workspaces/DAVE-4.4.2-64Bit/RoverX/Dave/Generated/SPI_MASTER\spi_master.h ****  */
 129:C:/Workspaces/DAVE-4.4.2-64Bit/RoverX/Dave/Generated/SPI_MASTER\spi_master.h **** /**
 130:C:/Workspaces/DAVE-4.4.2-64Bit/RoverX/Dave/Generated/SPI_MASTER\spi_master.h ****  * @brief Return status of the SPI_MASTER APP
 131:C:/Workspaces/DAVE-4.4.2-64Bit/RoverX/Dave/Generated/SPI_MASTER\spi_master.h ****  */
 132:C:/Workspaces/DAVE-4.4.2-64Bit/RoverX/Dave/Generated/SPI_MASTER\spi_master.h **** typedef enum SPI_MASTER_STATUS
 133:C:/Workspaces/DAVE-4.4.2-64Bit/RoverX/Dave/Generated/SPI_MASTER\spi_master.h **** {
 134:C:/Workspaces/DAVE-4.4.2-64Bit/RoverX/Dave/Generated/SPI_MASTER\spi_master.h ****   SPI_MASTER_STATUS_SUCCESS = 0U,   /**< Status success */
 135:C:/Workspaces/DAVE-4.4.2-64Bit/RoverX/Dave/Generated/SPI_MASTER\spi_master.h ****   SPI_MASTER_STATUS_FAILURE,        /**< Status failure */
 136:C:/Workspaces/DAVE-4.4.2-64Bit/RoverX/Dave/Generated/SPI_MASTER\spi_master.h ****   SPI_MASTER_STATUS_BUSY,           /**< Busy state */
 137:C:/Workspaces/DAVE-4.4.2-64Bit/RoverX/Dave/Generated/SPI_MASTER\spi_master.h ****   SPI_MASTER_STATUS_BUFFER_INVALID,  /**< If input buffer and length is invalid */
 138:C:/Workspaces/DAVE-4.4.2-64Bit/RoverX/Dave/Generated/SPI_MASTER\spi_master.h ****   SPI_MASTER_STATUS_MODE_MISMATCH   /**< API invoked by a handle configured with different mode.
 139:C:/Workspaces/DAVE-4.4.2-64Bit/RoverX/Dave/Generated/SPI_MASTER\spi_master.h ****                                          e.g, If SPI_MASTER_StartTransmitDMA is invoked for an inst
 140:C:/Workspaces/DAVE-4.4.2-64Bit/RoverX/Dave/Generated/SPI_MASTER\spi_master.h ****                                          which has transmit mode configured as "Interrupt", will
 141:C:/Workspaces/DAVE-4.4.2-64Bit/RoverX/Dave/Generated/SPI_MASTER\spi_master.h ****                                          return this status.*/
 142:C:/Workspaces/DAVE-4.4.2-64Bit/RoverX/Dave/Generated/SPI_MASTER\spi_master.h **** } SPI_MASTER_STATUS_t;
 143:C:/Workspaces/DAVE-4.4.2-64Bit/RoverX/Dave/Generated/SPI_MASTER\spi_master.h **** 
 144:C:/Workspaces/DAVE-4.4.2-64Bit/RoverX/Dave/Generated/SPI_MASTER\spi_master.h **** /**
 145:C:/Workspaces/DAVE-4.4.2-64Bit/RoverX/Dave/Generated/SPI_MASTER\spi_master.h ****  * @brief Service ID for Transmit, Receive and Parity events
 146:C:/Workspaces/DAVE-4.4.2-64Bit/RoverX/Dave/Generated/SPI_MASTER\spi_master.h ****  */
 147:C:/Workspaces/DAVE-4.4.2-64Bit/RoverX/Dave/Generated/SPI_MASTER\spi_master.h **** typedef enum SPI_MASTER_SR_ID
 148:C:/Workspaces/DAVE-4.4.2-64Bit/RoverX/Dave/Generated/SPI_MASTER\spi_master.h **** {
 149:C:/Workspaces/DAVE-4.4.2-64Bit/RoverX/Dave/Generated/SPI_MASTER\spi_master.h ****   SPI_MASTER_SR_ID_0 = 0U, /**< SR-0 */
 150:C:/Workspaces/DAVE-4.4.2-64Bit/RoverX/Dave/Generated/SPI_MASTER\spi_master.h ****   SPI_MASTER_SR_ID_1,      /**< SR-1 */
 151:C:/Workspaces/DAVE-4.4.2-64Bit/RoverX/Dave/Generated/SPI_MASTER\spi_master.h ****   SPI_MASTER_SR_ID_2,      /**< SR-2 */
 152:C:/Workspaces/DAVE-4.4.2-64Bit/RoverX/Dave/Generated/SPI_MASTER\spi_master.h ****   SPI_MASTER_SR_ID_3,      /**< SR-3 */
 153:C:/Workspaces/DAVE-4.4.2-64Bit/RoverX/Dave/Generated/SPI_MASTER\spi_master.h ****   SPI_MASTER_SR_ID_4,      /**< SR-4 */
 154:C:/Workspaces/DAVE-4.4.2-64Bit/RoverX/Dave/Generated/SPI_MASTER\spi_master.h ****   SPI_MASTER_SR_ID_5       /**< SR-5 */
 155:C:/Workspaces/DAVE-4.4.2-64Bit/RoverX/Dave/Generated/SPI_MASTER\spi_master.h **** } SPI_MASTER_SR_ID_t;
 156:C:/Workspaces/DAVE-4.4.2-64Bit/RoverX/Dave/Generated/SPI_MASTER\spi_master.h **** 
 157:C:/Workspaces/DAVE-4.4.2-64Bit/RoverX/Dave/Generated/SPI_MASTER\spi_master.h **** /**
 158:C:/Workspaces/DAVE-4.4.2-64Bit/RoverX/Dave/Generated/SPI_MASTER\spi_master.h ****  * @brief Slave select signals
 159:C:/Workspaces/DAVE-4.4.2-64Bit/RoverX/Dave/Generated/SPI_MASTER\spi_master.h ****  */
 160:C:/Workspaces/DAVE-4.4.2-64Bit/RoverX/Dave/Generated/SPI_MASTER\spi_master.h **** typedef enum SPI_MASTER_SS_SIGNAL
 161:C:/Workspaces/DAVE-4.4.2-64Bit/RoverX/Dave/Generated/SPI_MASTER\spi_master.h **** {
 162:C:/Workspaces/DAVE-4.4.2-64Bit/RoverX/Dave/Generated/SPI_MASTER\spi_master.h ****   SPI_MASTER_SS_SIGNAL_0 = 0U, /**< Slave select 0 */
 163:C:/Workspaces/DAVE-4.4.2-64Bit/RoverX/Dave/Generated/SPI_MASTER\spi_master.h ****   SPI_MASTER_SS_SIGNAL_1,      /**< Slave select 1 */
 164:C:/Workspaces/DAVE-4.4.2-64Bit/RoverX/Dave/Generated/SPI_MASTER\spi_master.h ****   SPI_MASTER_SS_SIGNAL_2,      /**< Slave select 2 */
 165:C:/Workspaces/DAVE-4.4.2-64Bit/RoverX/Dave/Generated/SPI_MASTER\spi_master.h ****   SPI_MASTER_SS_SIGNAL_3,      /**< Slave select 3 */
 166:C:/Workspaces/DAVE-4.4.2-64Bit/RoverX/Dave/Generated/SPI_MASTER\spi_master.h ****   SPI_MASTER_SS_SIGNAL_4,      /**< Slave select 4 */
 167:C:/Workspaces/DAVE-4.4.2-64Bit/RoverX/Dave/Generated/SPI_MASTER\spi_master.h ****   SPI_MASTER_SS_SIGNAL_5,      /**< Slave select 5 */
 168:C:/Workspaces/DAVE-4.4.2-64Bit/RoverX/Dave/Generated/SPI_MASTER\spi_master.h ****   SPI_MASTER_SS_SIGNAL_6,      /**< Slave select 6 */
 169:C:/Workspaces/DAVE-4.4.2-64Bit/RoverX/Dave/Generated/SPI_MASTER\spi_master.h ****   SPI_MASTER_SS_SIGNAL_7       /**< Slave select 7 */
 170:C:/Workspaces/DAVE-4.4.2-64Bit/RoverX/Dave/Generated/SPI_MASTER\spi_master.h **** } SPI_MASTER_SS_SIGNAL_t;
 171:C:/Workspaces/DAVE-4.4.2-64Bit/RoverX/Dave/Generated/SPI_MASTER\spi_master.h **** 
 172:C:/Workspaces/DAVE-4.4.2-64Bit/RoverX/Dave/Generated/SPI_MASTER\spi_master.h **** /**
 173:C:/Workspaces/DAVE-4.4.2-64Bit/RoverX/Dave/Generated/SPI_MASTER\spi_master.h ****  * @brief Enum type which defines Receive input list
 174:C:/Workspaces/DAVE-4.4.2-64Bit/RoverX/Dave/Generated/SPI_MASTER\spi_master.h ****  */
 175:C:/Workspaces/DAVE-4.4.2-64Bit/RoverX/Dave/Generated/SPI_MASTER\spi_master.h **** typedef enum SPI_MASTER_INPUT
 176:C:/Workspaces/DAVE-4.4.2-64Bit/RoverX/Dave/Generated/SPI_MASTER\spi_master.h **** {
 177:C:/Workspaces/DAVE-4.4.2-64Bit/RoverX/Dave/Generated/SPI_MASTER\spi_master.h ****   SPI_MASTER_INPUT_A = 0U, /**< Input-A */
 178:C:/Workspaces/DAVE-4.4.2-64Bit/RoverX/Dave/Generated/SPI_MASTER\spi_master.h ****   SPI_MASTER_INPUT_B,      /**< Input-B */
 179:C:/Workspaces/DAVE-4.4.2-64Bit/RoverX/Dave/Generated/SPI_MASTER\spi_master.h ****   SPI_MASTER_INPUT_C,      /**< Input-C */
 180:C:/Workspaces/DAVE-4.4.2-64Bit/RoverX/Dave/Generated/SPI_MASTER\spi_master.h ****   SPI_MASTER_INPUT_D,      /**< Input-D */
 181:C:/Workspaces/DAVE-4.4.2-64Bit/RoverX/Dave/Generated/SPI_MASTER\spi_master.h ****   SPI_MASTER_INPUT_E,      /**< Input-E */
 182:C:/Workspaces/DAVE-4.4.2-64Bit/RoverX/Dave/Generated/SPI_MASTER\spi_master.h ****   SPI_MASTER_INPUT_F,      /**< Input-F */
 183:C:/Workspaces/DAVE-4.4.2-64Bit/RoverX/Dave/Generated/SPI_MASTER\spi_master.h ****   SPI_MASTER_INPUT_G,      /**< Input-G */
 184:C:/Workspaces/DAVE-4.4.2-64Bit/RoverX/Dave/Generated/SPI_MASTER\spi_master.h ****   SPI_MASTER_INPUT_INVALID /**< This is to check during mode switch */
 185:C:/Workspaces/DAVE-4.4.2-64Bit/RoverX/Dave/Generated/SPI_MASTER\spi_master.h **** } SPI_MASTER_INPUT_t;
 186:C:/Workspaces/DAVE-4.4.2-64Bit/RoverX/Dave/Generated/SPI_MASTER\spi_master.h **** 
 187:C:/Workspaces/DAVE-4.4.2-64Bit/RoverX/Dave/Generated/SPI_MASTER\spi_master.h **** /**
 188:C:/Workspaces/DAVE-4.4.2-64Bit/RoverX/Dave/Generated/SPI_MASTER\spi_master.h ****  * @brief Enum used to identify the transfer type used for either transmit or receive function.
 189:C:/Workspaces/DAVE-4.4.2-64Bit/RoverX/Dave/Generated/SPI_MASTER\spi_master.h ****  */
 190:C:/Workspaces/DAVE-4.4.2-64Bit/RoverX/Dave/Generated/SPI_MASTER\spi_master.h **** typedef enum SPI_MASTER_TRANSFER_MODE
 191:C:/Workspaces/DAVE-4.4.2-64Bit/RoverX/Dave/Generated/SPI_MASTER\spi_master.h **** {
 192:C:/Workspaces/DAVE-4.4.2-64Bit/RoverX/Dave/Generated/SPI_MASTER\spi_master.h ****   SPI_MASTER_TRANSFER_MODE_INTERRUPT,  /**< Implement data transmit or receive using interrupts */
 193:C:/Workspaces/DAVE-4.4.2-64Bit/RoverX/Dave/Generated/SPI_MASTER\spi_master.h ****   SPI_MASTER_TRANSFER_MODE_DMA,        /**< Implement data transmit or receive using DMA */
 194:C:/Workspaces/DAVE-4.4.2-64Bit/RoverX/Dave/Generated/SPI_MASTER\spi_master.h ****   SPI_MASTER_TRANSFER_MODE_DIRECT      /**< This configuration exposes signals for external APP con
 195:C:/Workspaces/DAVE-4.4.2-64Bit/RoverX/Dave/Generated/SPI_MASTER\spi_master.h **** } SPI_MASTER_TRANSFER_MODE_t;
 196:C:/Workspaces/DAVE-4.4.2-64Bit/RoverX/Dave/Generated/SPI_MASTER\spi_master.h **** /**
 197:C:/Workspaces/DAVE-4.4.2-64Bit/RoverX/Dave/Generated/SPI_MASTER\spi_master.h ****  * @}
 198:C:/Workspaces/DAVE-4.4.2-64Bit/RoverX/Dave/Generated/SPI_MASTER\spi_master.h ****  */
 199:C:/Workspaces/DAVE-4.4.2-64Bit/RoverX/Dave/Generated/SPI_MASTER\spi_master.h **** 
 200:C:/Workspaces/DAVE-4.4.2-64Bit/RoverX/Dave/Generated/SPI_MASTER\spi_master.h **** typedef void (*SPI_MASTER_functionhandler)(void);
 201:C:/Workspaces/DAVE-4.4.2-64Bit/RoverX/Dave/Generated/SPI_MASTER\spi_master.h **** typedef SPI_MASTER_STATUS_t (*SPI_MASTER_lInit_functionhandler)(void);
 202:C:/Workspaces/DAVE-4.4.2-64Bit/RoverX/Dave/Generated/SPI_MASTER\spi_master.h **** 
 203:C:/Workspaces/DAVE-4.4.2-64Bit/RoverX/Dave/Generated/SPI_MASTER\spi_master.h **** /**************************************************************************************************
 204:C:/Workspaces/DAVE-4.4.2-64Bit/RoverX/Dave/Generated/SPI_MASTER\spi_master.h **** * DATA STRUCTURES
 205:C:/Workspaces/DAVE-4.4.2-64Bit/RoverX/Dave/Generated/SPI_MASTER\spi_master.h **** ***************************************************************************************************
 206:C:/Workspaces/DAVE-4.4.2-64Bit/RoverX/Dave/Generated/SPI_MASTER\spi_master.h **** /**
 207:C:/Workspaces/DAVE-4.4.2-64Bit/RoverX/Dave/Generated/SPI_MASTER\spi_master.h **** * @ingroup SPI_MASTER_datastructures
 208:C:/Workspaces/DAVE-4.4.2-64Bit/RoverX/Dave/Generated/SPI_MASTER\spi_master.h **** * @{
 209:C:/Workspaces/DAVE-4.4.2-64Bit/RoverX/Dave/Generated/SPI_MASTER\spi_master.h **** */
 210:C:/Workspaces/DAVE-4.4.2-64Bit/RoverX/Dave/Generated/SPI_MASTER\spi_master.h **** 
 211:C:/Workspaces/DAVE-4.4.2-64Bit/RoverX/Dave/Generated/SPI_MASTER\spi_master.h **** /**
 212:C:/Workspaces/DAVE-4.4.2-64Bit/RoverX/Dave/Generated/SPI_MASTER\spi_master.h ****  * @brief Port pin selection for communication
 213:C:/Workspaces/DAVE-4.4.2-64Bit/RoverX/Dave/Generated/SPI_MASTER\spi_master.h ****  */
 214:C:/Workspaces/DAVE-4.4.2-64Bit/RoverX/Dave/Generated/SPI_MASTER\spi_master.h **** typedef struct SPI_MASTER_GPIO
 215:C:/Workspaces/DAVE-4.4.2-64Bit/RoverX/Dave/Generated/SPI_MASTER\spi_master.h **** {
 216:C:/Workspaces/DAVE-4.4.2-64Bit/RoverX/Dave/Generated/SPI_MASTER\spi_master.h ****   XMC_GPIO_PORT_t* port;  /**< Reference to the port configuration */
 217:C:/Workspaces/DAVE-4.4.2-64Bit/RoverX/Dave/Generated/SPI_MASTER\spi_master.h ****   uint8_t pin;  /**< Selected pin */
 218:C:/Workspaces/DAVE-4.4.2-64Bit/RoverX/Dave/Generated/SPI_MASTER\spi_master.h **** } SPI_MASTER_GPIO_t;
 219:C:/Workspaces/DAVE-4.4.2-64Bit/RoverX/Dave/Generated/SPI_MASTER\spi_master.h **** 
 220:C:/Workspaces/DAVE-4.4.2-64Bit/RoverX/Dave/Generated/SPI_MASTER\spi_master.h **** /**
 221:C:/Workspaces/DAVE-4.4.2-64Bit/RoverX/Dave/Generated/SPI_MASTER\spi_master.h ****  * @brief Pin configuration for the selected pins
 222:C:/Workspaces/DAVE-4.4.2-64Bit/RoverX/Dave/Generated/SPI_MASTER\spi_master.h ****  */
 223:C:/Workspaces/DAVE-4.4.2-64Bit/RoverX/Dave/Generated/SPI_MASTER\spi_master.h **** typedef struct SPI_MASTER_GPIO_CONFIG
 224:C:/Workspaces/DAVE-4.4.2-64Bit/RoverX/Dave/Generated/SPI_MASTER\spi_master.h **** {
 225:C:/Workspaces/DAVE-4.4.2-64Bit/RoverX/Dave/Generated/SPI_MASTER\spi_master.h ****   XMC_GPIO_CONFIG_t port_config;  /**< Properties of the port pin */
 226:C:/Workspaces/DAVE-4.4.2-64Bit/RoverX/Dave/Generated/SPI_MASTER\spi_master.h ****   XMC_GPIO_HWCTRL_t hw_control;  /**<  hardware control characteristics of the pin */
 227:C:/Workspaces/DAVE-4.4.2-64Bit/RoverX/Dave/Generated/SPI_MASTER\spi_master.h ****   XMC_SPI_CH_SLAVE_SELECT_t slave_select_ch;  /**<  Indicates the mapped slave select line  */
 228:C:/Workspaces/DAVE-4.4.2-64Bit/RoverX/Dave/Generated/SPI_MASTER\spi_master.h **** } SPI_MASTER_GPIO_CONFIG_t;
 229:C:/Workspaces/DAVE-4.4.2-64Bit/RoverX/Dave/Generated/SPI_MASTER\spi_master.h **** 
 230:C:/Workspaces/DAVE-4.4.2-64Bit/RoverX/Dave/Generated/SPI_MASTER\spi_master.h **** /**
 231:C:/Workspaces/DAVE-4.4.2-64Bit/RoverX/Dave/Generated/SPI_MASTER\spi_master.h ****  * @brief Configuration parameters of SPI_MASTER APP
 232:C:/Workspaces/DAVE-4.4.2-64Bit/RoverX/Dave/Generated/SPI_MASTER\spi_master.h ****  */
 233:C:/Workspaces/DAVE-4.4.2-64Bit/RoverX/Dave/Generated/SPI_MASTER\spi_master.h ****  typedef struct SPI_MASTER_CONFIG
 234:C:/Workspaces/DAVE-4.4.2-64Bit/RoverX/Dave/Generated/SPI_MASTER\spi_master.h **** {
 235:C:/Workspaces/DAVE-4.4.2-64Bit/RoverX/Dave/Generated/SPI_MASTER\spi_master.h ****   XMC_SPI_CH_CONFIG_t * const channel_config;         /**< Reference to SPI configuration structure
 236:C:/Workspaces/DAVE-4.4.2-64Bit/RoverX/Dave/Generated/SPI_MASTER\spi_master.h ****   SPI_MASTER_lInit_functionhandler fptr_spi_master_config;  /**< Function pointer to configure the 
 237:C:/Workspaces/DAVE-4.4.2-64Bit/RoverX/Dave/Generated/SPI_MASTER\spi_master.h **** 
 238:C:/Workspaces/DAVE-4.4.2-64Bit/RoverX/Dave/Generated/SPI_MASTER\spi_master.h ****   /* Port configuration */
 239:C:/Workspaces/DAVE-4.4.2-64Bit/RoverX/Dave/Generated/SPI_MASTER\spi_master.h ****   const SPI_MASTER_GPIO_t* const mosi_0_pin;               /**< Reference to mosi 0 pin */
 240:C:/Workspaces/DAVE-4.4.2-64Bit/RoverX/Dave/Generated/SPI_MASTER\spi_master.h ****   const SPI_MASTER_GPIO_CONFIG_t* const mosi_0_pin_config; /**< Reference to mosi 0 pin configurati
 241:C:/Workspaces/DAVE-4.4.2-64Bit/RoverX/Dave/Generated/SPI_MASTER\spi_master.h ****   const SPI_MASTER_GPIO_t* const mosi_1_pin;               /**< Reference to mosi 1 pin */
 242:C:/Workspaces/DAVE-4.4.2-64Bit/RoverX/Dave/Generated/SPI_MASTER\spi_master.h ****   const SPI_MASTER_GPIO_CONFIG_t* const mosi_1_pin_config; /**< Reference to mosi 1 pin configurati
 243:C:/Workspaces/DAVE-4.4.2-64Bit/RoverX/Dave/Generated/SPI_MASTER\spi_master.h ****   const SPI_MASTER_GPIO_t* const mosi_2_pin;               /**< Reference to mosi 2 pin */
 244:C:/Workspaces/DAVE-4.4.2-64Bit/RoverX/Dave/Generated/SPI_MASTER\spi_master.h ****   const SPI_MASTER_GPIO_CONFIG_t* const mosi_2_pin_config; /**< Reference to mosi 2 pin configurati
 245:C:/Workspaces/DAVE-4.4.2-64Bit/RoverX/Dave/Generated/SPI_MASTER\spi_master.h ****   const SPI_MASTER_GPIO_t* const mosi_3_pin;               /**< Reference to mosi 3 pin */
 246:C:/Workspaces/DAVE-4.4.2-64Bit/RoverX/Dave/Generated/SPI_MASTER\spi_master.h ****   const SPI_MASTER_GPIO_CONFIG_t* const mosi_3_pin_config; /**< Reference to mosi 3 pin configurati
 247:C:/Workspaces/DAVE-4.4.2-64Bit/RoverX/Dave/Generated/SPI_MASTER\spi_master.h ****   const SPI_MASTER_GPIO_t* const sclk_out_pin;             /**< Reference to sclk out pin */
 248:C:/Workspaces/DAVE-4.4.2-64Bit/RoverX/Dave/Generated/SPI_MASTER\spi_master.h ****   const SPI_MASTER_GPIO_CONFIG_t* const sclk_out_pin_config;/**< Reference to shift clock pin confi
 249:C:/Workspaces/DAVE-4.4.2-64Bit/RoverX/Dave/Generated/SPI_MASTER\spi_master.h ****   const SPI_MASTER_GPIO_t* const slave_select_pin[8];      /**< Reference to slave select pin */
 250:C:/Workspaces/DAVE-4.4.2-64Bit/RoverX/Dave/Generated/SPI_MASTER\spi_master.h ****   const SPI_MASTER_GPIO_CONFIG_t* const slave_select_pin_config[8]; /**< Reference to slave select 
 251:C:/Workspaces/DAVE-4.4.2-64Bit/RoverX/Dave/Generated/SPI_MASTER\spi_master.h ****   SPI_MASTER_functionhandler tx_cbhandler;            /**< callback handler for end of transmission
 252:C:/Workspaces/DAVE-4.4.2-64Bit/RoverX/Dave/Generated/SPI_MASTER\spi_master.h ****   SPI_MASTER_functionhandler rx_cbhandler;            /**< callback handler for end of reception */
 253:C:/Workspaces/DAVE-4.4.2-64Bit/RoverX/Dave/Generated/SPI_MASTER\spi_master.h ****   SPI_MASTER_functionhandler parity_cbhandler;        /**< callback handler for end of parity error
 254:C:/Workspaces/DAVE-4.4.2-64Bit/RoverX/Dave/Generated/SPI_MASTER\spi_master.h ****   /* FIFO configuration */
 255:C:/Workspaces/DAVE-4.4.2-64Bit/RoverX/Dave/Generated/SPI_MASTER\spi_master.h ****   XMC_USIC_CH_FIFO_SIZE_t tx_fifo_size;               /**< Number of FIFO entries assigned to the t
 256:C:/Workspaces/DAVE-4.4.2-64Bit/RoverX/Dave/Generated/SPI_MASTER\spi_master.h ****   XMC_USIC_CH_FIFO_SIZE_t rx_fifo_size;               /**< Number of FIFO entries assigned to the r
 257:C:/Workspaces/DAVE-4.4.2-64Bit/RoverX/Dave/Generated/SPI_MASTER\spi_master.h **** 
 258:C:/Workspaces/DAVE-4.4.2-64Bit/RoverX/Dave/Generated/SPI_MASTER\spi_master.h ****   /* Clock Settings */
 259:C:/Workspaces/DAVE-4.4.2-64Bit/RoverX/Dave/Generated/SPI_MASTER\spi_master.h ****   XMC_SPI_CH_BRG_SHIFT_CLOCK_PASSIVE_LEVEL_t shift_clk_passive_level; /**< Baudrate Generator shift
 260:C:/Workspaces/DAVE-4.4.2-64Bit/RoverX/Dave/Generated/SPI_MASTER\spi_master.h ****   SPI_MASTER_TRANSFER_MODE_t transmit_mode;           /**< Indicates how the transmit mode is being
 261:C:/Workspaces/DAVE-4.4.2-64Bit/RoverX/Dave/Generated/SPI_MASTER\spi_master.h ****   SPI_MASTER_TRANSFER_MODE_t receive_mode;            /**< Indicates how the receive mode is being 
 262:C:/Workspaces/DAVE-4.4.2-64Bit/RoverX/Dave/Generated/SPI_MASTER\spi_master.h ****   XMC_SPI_CH_MODE_t  spi_master_config_mode;          /**< Defines the SPI transmit mode being used
 263:C:/Workspaces/DAVE-4.4.2-64Bit/RoverX/Dave/Generated/SPI_MASTER\spi_master.h ****   uint8_t slave_select_lines;                         /**< Number of slave select lines being used 
 264:C:/Workspaces/DAVE-4.4.2-64Bit/RoverX/Dave/Generated/SPI_MASTER\spi_master.h ****   uint8_t leading_trailing_delay;                     /**< Delay before and after each frame in ter
 265:C:/Workspaces/DAVE-4.4.2-64Bit/RoverX/Dave/Generated/SPI_MASTER\spi_master.h ****   SPI_MASTER_SR_ID_t tx_sr;                           /**< Service request number assigned to trans
 266:C:/Workspaces/DAVE-4.4.2-64Bit/RoverX/Dave/Generated/SPI_MASTER\spi_master.h ****   SPI_MASTER_SR_ID_t rx_sr;                           /**< Service request number assigned to recei
 267:C:/Workspaces/DAVE-4.4.2-64Bit/RoverX/Dave/Generated/SPI_MASTER\spi_master.h ****   SPI_MASTER_SR_ID_t parity_sr;                       /**< Service request number assigned to recei
 268:C:/Workspaces/DAVE-4.4.2-64Bit/RoverX/Dave/Generated/SPI_MASTER\spi_master.h **** } SPI_MASTER_CONFIG_t;
 269:C:/Workspaces/DAVE-4.4.2-64Bit/RoverX/Dave/Generated/SPI_MASTER\spi_master.h **** 
 270:C:/Workspaces/DAVE-4.4.2-64Bit/RoverX/Dave/Generated/SPI_MASTER\spi_master.h **** /**
 271:C:/Workspaces/DAVE-4.4.2-64Bit/RoverX/Dave/Generated/SPI_MASTER\spi_master.h ****  * @brief Structure to hold the dynamic variables for the SPI_MASTER communication.
 272:C:/Workspaces/DAVE-4.4.2-64Bit/RoverX/Dave/Generated/SPI_MASTER\spi_master.h ****  */
 273:C:/Workspaces/DAVE-4.4.2-64Bit/RoverX/Dave/Generated/SPI_MASTER\spi_master.h **** typedef struct SPI_MASTER_RUNTIME
 274:C:/Workspaces/DAVE-4.4.2-64Bit/RoverX/Dave/Generated/SPI_MASTER\spi_master.h **** {
 275:C:/Workspaces/DAVE-4.4.2-64Bit/RoverX/Dave/Generated/SPI_MASTER\spi_master.h ****   uint32_t word_length;                              /**< Indicates the length of the data word */
 276:C:/Workspaces/DAVE-4.4.2-64Bit/RoverX/Dave/Generated/SPI_MASTER\spi_master.h ****   uint32_t tx_data_count;                            /**< Number of bytes of data to be transmitted
 277:C:/Workspaces/DAVE-4.4.2-64Bit/RoverX/Dave/Generated/SPI_MASTER\spi_master.h ****   volatile uint32_t tx_data_index;                   /**< Index to the byte to be transmitted next 
 278:C:/Workspaces/DAVE-4.4.2-64Bit/RoverX/Dave/Generated/SPI_MASTER\spi_master.h ****                                                           buffer */
 279:C:/Workspaces/DAVE-4.4.2-64Bit/RoverX/Dave/Generated/SPI_MASTER\spi_master.h ****   uint32_t rx_data_count;                            /**< Number of bytes of data to be received*/
 280:C:/Workspaces/DAVE-4.4.2-64Bit/RoverX/Dave/Generated/SPI_MASTER\spi_master.h ****   volatile uint32_t rx_data_index;                   /**< Indicates the number of bytes currently a
 281:C:/Workspaces/DAVE-4.4.2-64Bit/RoverX/Dave/Generated/SPI_MASTER\spi_master.h ****                                                           rx_data buffer */
 282:C:/Workspaces/DAVE-4.4.2-64Bit/RoverX/Dave/Generated/SPI_MASTER\spi_master.h ****   uint8_t* rx_data;                                  /**< Pointer to the receive data buffer*/
 283:C:/Workspaces/DAVE-4.4.2-64Bit/RoverX/Dave/Generated/SPI_MASTER\spi_master.h ****   uint8_t* tx_data;                                  /**< Pointer to the transmit data buffer*/
 284:C:/Workspaces/DAVE-4.4.2-64Bit/RoverX/Dave/Generated/SPI_MASTER\spi_master.h ****   volatile XMC_SPI_CH_MODE_t  spi_master_mode;       /**< Defines the SPI transmit mode being used 
 285:C:/Workspaces/DAVE-4.4.2-64Bit/RoverX/Dave/Generated/SPI_MASTER\spi_master.h ****   SPI_MASTER_INPUT_t dx0_input;                      /**< DX0 input channel used for Rx input, This
 286:C:/Workspaces/DAVE-4.4.2-64Bit/RoverX/Dave/Generated/SPI_MASTER\spi_master.h ****                                                           mode is changed to full duplex mode */
 287:C:/Workspaces/DAVE-4.4.2-64Bit/RoverX/Dave/Generated/SPI_MASTER\spi_master.h ****   SPI_MASTER_INPUT_t dx0_input_half_duplex;          /**< DX0 input channel used for Rx input, This
 288:C:/Workspaces/DAVE-4.4.2-64Bit/RoverX/Dave/Generated/SPI_MASTER\spi_master.h ****                                                           mode is changed to half duplex mode */
 289:C:/Workspaces/DAVE-4.4.2-64Bit/RoverX/Dave/Generated/SPI_MASTER\spi_master.h ****   volatile bool  rx_busy;                            /**< Status flag to indicate busy when a recep
 290:C:/Workspaces/DAVE-4.4.2-64Bit/RoverX/Dave/Generated/SPI_MASTER\spi_master.h ****   volatile bool  tx_busy;                            /**< Status flag to indicate busy when a trans
 291:C:/Workspaces/DAVE-4.4.2-64Bit/RoverX/Dave/Generated/SPI_MASTER\spi_master.h ****   volatile bool  tx_data_dummy;                      /**< Status flag to indicate, dummy data is be
 292:C:/Workspaces/DAVE-4.4.2-64Bit/RoverX/Dave/Generated/SPI_MASTER\spi_master.h ****   volatile bool  rx_data_dummy;                      /**< Status flag to indicate, receive data has
 293:C:/Workspaces/DAVE-4.4.2-64Bit/RoverX/Dave/Generated/SPI_MASTER\spi_master.h ****                                                           not */
 294:C:/Workspaces/DAVE-4.4.2-64Bit/RoverX/Dave/Generated/SPI_MASTER\spi_master.h ****  } SPI_MASTER_RUNTIME_t;
 295:C:/Workspaces/DAVE-4.4.2-64Bit/RoverX/Dave/Generated/SPI_MASTER\spi_master.h **** 
 296:C:/Workspaces/DAVE-4.4.2-64Bit/RoverX/Dave/Generated/SPI_MASTER\spi_master.h **** 
 297:C:/Workspaces/DAVE-4.4.2-64Bit/RoverX/Dave/Generated/SPI_MASTER\spi_master.h **** /**
 298:C:/Workspaces/DAVE-4.4.2-64Bit/RoverX/Dave/Generated/SPI_MASTER\spi_master.h ****  * @brief Initialization parameters of SPI_MASTER APP
 299:C:/Workspaces/DAVE-4.4.2-64Bit/RoverX/Dave/Generated/SPI_MASTER\spi_master.h ****  */
 300:C:/Workspaces/DAVE-4.4.2-64Bit/RoverX/Dave/Generated/SPI_MASTER\spi_master.h **** typedef struct SPI_MASTER
 301:C:/Workspaces/DAVE-4.4.2-64Bit/RoverX/Dave/Generated/SPI_MASTER\spi_master.h **** {
 302:C:/Workspaces/DAVE-4.4.2-64Bit/RoverX/Dave/Generated/SPI_MASTER\spi_master.h ****   XMC_USIC_CH_t* const channel; /**< Reference to SPI channel */
 303:C:/Workspaces/DAVE-4.4.2-64Bit/RoverX/Dave/Generated/SPI_MASTER\spi_master.h ****   const SPI_MASTER_CONFIG_t * const config; /**< Reference to the SPI_MASTER configuration structur
 304:C:/Workspaces/DAVE-4.4.2-64Bit/RoverX/Dave/Generated/SPI_MASTER\spi_master.h ****   SPI_MASTER_RUNTIME_t * const runtime;  /**< Reference to SPI_MASTER dynamic configuration structu
 305:C:/Workspaces/DAVE-4.4.2-64Bit/RoverX/Dave/Generated/SPI_MASTER\spi_master.h **** #if ((SPI_MASTER_DMA_TRANSMIT_MODE == 1U) || (SPI_MASTER_DMA_RECEIVE_MODE == 1U))
 306:C:/Workspaces/DAVE-4.4.2-64Bit/RoverX/Dave/Generated/SPI_MASTER\spi_master.h ****   const GLOBAL_DMA_t * const global_dma;
 307:C:/Workspaces/DAVE-4.4.2-64Bit/RoverX/Dave/Generated/SPI_MASTER\spi_master.h **** #endif
 308:C:/Workspaces/DAVE-4.4.2-64Bit/RoverX/Dave/Generated/SPI_MASTER\spi_master.h **** #if (SPI_MASTER_DMA_TRANSMIT_MODE == 1U)
 309:C:/Workspaces/DAVE-4.4.2-64Bit/RoverX/Dave/Generated/SPI_MASTER\spi_master.h ****   const XMC_DMA_CH_CONFIG_t * const dma_ch_tx_config; /**< Reference to the DMA configuration struc
 310:C:/Workspaces/DAVE-4.4.2-64Bit/RoverX/Dave/Generated/SPI_MASTER\spi_master.h **** #endif
 311:C:/Workspaces/DAVE-4.4.2-64Bit/RoverX/Dave/Generated/SPI_MASTER\spi_master.h **** #if (SPI_MASTER_DMA_RECEIVE_MODE == 1U)
 312:C:/Workspaces/DAVE-4.4.2-64Bit/RoverX/Dave/Generated/SPI_MASTER\spi_master.h ****   const XMC_DMA_CH_CONFIG_t * const dma_ch_rx_config; /**< Reference to the DMA configuration struc
 313:C:/Workspaces/DAVE-4.4.2-64Bit/RoverX/Dave/Generated/SPI_MASTER\spi_master.h ****   const GLOBAL_DMA_t * const global_dma_rx;
 314:C:/Workspaces/DAVE-4.4.2-64Bit/RoverX/Dave/Generated/SPI_MASTER\spi_master.h ****   const uint8_t dma_ch_rx_number;
 315:C:/Workspaces/DAVE-4.4.2-64Bit/RoverX/Dave/Generated/SPI_MASTER\spi_master.h **** #endif
 316:C:/Workspaces/DAVE-4.4.2-64Bit/RoverX/Dave/Generated/SPI_MASTER\spi_master.h **** #if (SPI_MASTER_DMA_TRANSMIT_MODE == 1U)
 317:C:/Workspaces/DAVE-4.4.2-64Bit/RoverX/Dave/Generated/SPI_MASTER\spi_master.h ****   const uint8_t dma_ch_tx_number;
 318:C:/Workspaces/DAVE-4.4.2-64Bit/RoverX/Dave/Generated/SPI_MASTER\spi_master.h **** #endif
 319:C:/Workspaces/DAVE-4.4.2-64Bit/RoverX/Dave/Generated/SPI_MASTER\spi_master.h **** } SPI_MASTER_t;
 320:C:/Workspaces/DAVE-4.4.2-64Bit/RoverX/Dave/Generated/SPI_MASTER\spi_master.h **** 
 321:C:/Workspaces/DAVE-4.4.2-64Bit/RoverX/Dave/Generated/SPI_MASTER\spi_master.h **** /**
 322:C:/Workspaces/DAVE-4.4.2-64Bit/RoverX/Dave/Generated/SPI_MASTER\spi_master.h ****  * @}
 323:C:/Workspaces/DAVE-4.4.2-64Bit/RoverX/Dave/Generated/SPI_MASTER\spi_master.h ****  */
 324:C:/Workspaces/DAVE-4.4.2-64Bit/RoverX/Dave/Generated/SPI_MASTER\spi_master.h **** /**************************************************************************************************
 325:C:/Workspaces/DAVE-4.4.2-64Bit/RoverX/Dave/Generated/SPI_MASTER\spi_master.h **** * API Prototypes
 326:C:/Workspaces/DAVE-4.4.2-64Bit/RoverX/Dave/Generated/SPI_MASTER\spi_master.h **** ***************************************************************************************************
 327:C:/Workspaces/DAVE-4.4.2-64Bit/RoverX/Dave/Generated/SPI_MASTER\spi_master.h **** #ifdef __cplusplus
 328:C:/Workspaces/DAVE-4.4.2-64Bit/RoverX/Dave/Generated/SPI_MASTER\spi_master.h **** extern "C" {
 329:C:/Workspaces/DAVE-4.4.2-64Bit/RoverX/Dave/Generated/SPI_MASTER\spi_master.h **** #endif
 330:C:/Workspaces/DAVE-4.4.2-64Bit/RoverX/Dave/Generated/SPI_MASTER\spi_master.h **** /**
 331:C:/Workspaces/DAVE-4.4.2-64Bit/RoverX/Dave/Generated/SPI_MASTER\spi_master.h ****  * @ingroup SPI_MASTER_apidoc
 332:C:/Workspaces/DAVE-4.4.2-64Bit/RoverX/Dave/Generated/SPI_MASTER\spi_master.h ****  * @{
 333:C:/Workspaces/DAVE-4.4.2-64Bit/RoverX/Dave/Generated/SPI_MASTER\spi_master.h ****  */
 334:C:/Workspaces/DAVE-4.4.2-64Bit/RoverX/Dave/Generated/SPI_MASTER\spi_master.h **** /**
 335:C:/Workspaces/DAVE-4.4.2-64Bit/RoverX/Dave/Generated/SPI_MASTER\spi_master.h ****  * @brief Get SPI_MASTER APP version
 336:C:/Workspaces/DAVE-4.4.2-64Bit/RoverX/Dave/Generated/SPI_MASTER\spi_master.h ****  * @return DAVE_APP_VERSION_t APP version information (major, minor and patch number)
 337:C:/Workspaces/DAVE-4.4.2-64Bit/RoverX/Dave/Generated/SPI_MASTER\spi_master.h ****  * <BR>
 338:C:/Workspaces/DAVE-4.4.2-64Bit/RoverX/Dave/Generated/SPI_MASTER\spi_master.h ****  * \par<b>Description:</b><br>
 339:C:/Workspaces/DAVE-4.4.2-64Bit/RoverX/Dave/Generated/SPI_MASTER\spi_master.h ****  * The function can be used to check application software compatibility with a
 340:C:/Workspaces/DAVE-4.4.2-64Bit/RoverX/Dave/Generated/SPI_MASTER\spi_master.h ****  * specific version of the APP.
 341:C:/Workspaces/DAVE-4.4.2-64Bit/RoverX/Dave/Generated/SPI_MASTER\spi_master.h ****  *
 342:C:/Workspaces/DAVE-4.4.2-64Bit/RoverX/Dave/Generated/SPI_MASTER\spi_master.h ****  * Example Usage:
 343:C:/Workspaces/DAVE-4.4.2-64Bit/RoverX/Dave/Generated/SPI_MASTER\spi_master.h ****  * @code
 344:C:/Workspaces/DAVE-4.4.2-64Bit/RoverX/Dave/Generated/SPI_MASTER\spi_master.h ****  * #include "DAVE.h"
 345:C:/Workspaces/DAVE-4.4.2-64Bit/RoverX/Dave/Generated/SPI_MASTER\spi_master.h ****  * int main(void)
 346:C:/Workspaces/DAVE-4.4.2-64Bit/RoverX/Dave/Generated/SPI_MASTER\spi_master.h ****  * {
 347:C:/Workspaces/DAVE-4.4.2-64Bit/RoverX/Dave/Generated/SPI_MASTER\spi_master.h ****  *   DAVE_STATUS_t status;
 348:C:/Workspaces/DAVE-4.4.2-64Bit/RoverX/Dave/Generated/SPI_MASTER\spi_master.h ****  *   DAVE_APP_VERSION_t app_version;
 349:C:/Workspaces/DAVE-4.4.2-64Bit/RoverX/Dave/Generated/SPI_MASTER\spi_master.h ****  *
 350:C:/Workspaces/DAVE-4.4.2-64Bit/RoverX/Dave/Generated/SPI_MASTER\spi_master.h ****  *   status = DAVE_Init();    // SPI_MASTER_Init() is called from DAVE_Init()
 351:C:/Workspaces/DAVE-4.4.2-64Bit/RoverX/Dave/Generated/SPI_MASTER\spi_master.h ****  *
 352:C:/Workspaces/DAVE-4.4.2-64Bit/RoverX/Dave/Generated/SPI_MASTER\spi_master.h ****  *   app_version = SPI_MASTER_GetAppVersion();
 353:C:/Workspaces/DAVE-4.4.2-64Bit/RoverX/Dave/Generated/SPI_MASTER\spi_master.h ****  *
 354:C:/Workspaces/DAVE-4.4.2-64Bit/RoverX/Dave/Generated/SPI_MASTER\spi_master.h ****  *   if (app_version.major != 4U)
 355:C:/Workspaces/DAVE-4.4.2-64Bit/RoverX/Dave/Generated/SPI_MASTER\spi_master.h ****  *   {
 356:C:/Workspaces/DAVE-4.4.2-64Bit/RoverX/Dave/Generated/SPI_MASTER\spi_master.h ****  *     // Probably, not the right version.
 357:C:/Workspaces/DAVE-4.4.2-64Bit/RoverX/Dave/Generated/SPI_MASTER\spi_master.h ****  *   }
 358:C:/Workspaces/DAVE-4.4.2-64Bit/RoverX/Dave/Generated/SPI_MASTER\spi_master.h ****  *
 359:C:/Workspaces/DAVE-4.4.2-64Bit/RoverX/Dave/Generated/SPI_MASTER\spi_master.h ****  *   while(1U)
 360:C:/Workspaces/DAVE-4.4.2-64Bit/RoverX/Dave/Generated/SPI_MASTER\spi_master.h ****  *   {
 361:C:/Workspaces/DAVE-4.4.2-64Bit/RoverX/Dave/Generated/SPI_MASTER\spi_master.h ****  *   }
 362:C:/Workspaces/DAVE-4.4.2-64Bit/RoverX/Dave/Generated/SPI_MASTER\spi_master.h ****  *   return 1;
 363:C:/Workspaces/DAVE-4.4.2-64Bit/RoverX/Dave/Generated/SPI_MASTER\spi_master.h ****  * }
 364:C:/Workspaces/DAVE-4.4.2-64Bit/RoverX/Dave/Generated/SPI_MASTER\spi_master.h ****  * @endcode<BR>
 365:C:/Workspaces/DAVE-4.4.2-64Bit/RoverX/Dave/Generated/SPI_MASTER\spi_master.h ****  */
 366:C:/Workspaces/DAVE-4.4.2-64Bit/RoverX/Dave/Generated/SPI_MASTER\spi_master.h **** DAVE_APP_VERSION_t SPI_MASTER_GetAppVersion(void);
 367:C:/Workspaces/DAVE-4.4.2-64Bit/RoverX/Dave/Generated/SPI_MASTER\spi_master.h **** 
 368:C:/Workspaces/DAVE-4.4.2-64Bit/RoverX/Dave/Generated/SPI_MASTER\spi_master.h **** /**
 369:C:/Workspaces/DAVE-4.4.2-64Bit/RoverX/Dave/Generated/SPI_MASTER\spi_master.h ****  * @brief Initialize the SPI channel as per the configuration made in GUI.
 370:C:/Workspaces/DAVE-4.4.2-64Bit/RoverX/Dave/Generated/SPI_MASTER\spi_master.h ****  * @param handle Pointer to static and dynamic content of APP configuration.
 371:C:/Workspaces/DAVE-4.4.2-64Bit/RoverX/Dave/Generated/SPI_MASTER\spi_master.h ****  * @return SPI_MASTER_STATUS_t: Status of SPI_MASTER driver initialization.\n
 372:C:/Workspaces/DAVE-4.4.2-64Bit/RoverX/Dave/Generated/SPI_MASTER\spi_master.h ****  *                    SPI_MASTER_STATUS_SUCCESS - on successful initialization.\n
 373:C:/Workspaces/DAVE-4.4.2-64Bit/RoverX/Dave/Generated/SPI_MASTER\spi_master.h ****  *                    SPI_MASTER_STATUS_FAILURE - if initialization fails.\n
 374:C:/Workspaces/DAVE-4.4.2-64Bit/RoverX/Dave/Generated/SPI_MASTER\spi_master.h ****  *
 375:C:/Workspaces/DAVE-4.4.2-64Bit/RoverX/Dave/Generated/SPI_MASTER\spi_master.h ****  * \par<b>Description:</b><br>
 376:C:/Workspaces/DAVE-4.4.2-64Bit/RoverX/Dave/Generated/SPI_MASTER\spi_master.h ****  * Initializes IO pins used for the SPI_MASTER communication and configures USIC registers based on
 377:C:/Workspaces/DAVE-4.4.2-64Bit/RoverX/Dave/Generated/SPI_MASTER\spi_master.h ****  * provided in the GUI. Calculates divider values PDIV and STEP for a precise baudrate. It also ena
 378:C:/Workspaces/DAVE-4.4.2-64Bit/RoverX/Dave/Generated/SPI_MASTER\spi_master.h ****  * interrupt flags and service request values.
 379:C:/Workspaces/DAVE-4.4.2-64Bit/RoverX/Dave/Generated/SPI_MASTER\spi_master.h ****  * <BR>
 380:C:/Workspaces/DAVE-4.4.2-64Bit/RoverX/Dave/Generated/SPI_MASTER\spi_master.h ****  *
 381:C:/Workspaces/DAVE-4.4.2-64Bit/RoverX/Dave/Generated/SPI_MASTER\spi_master.h ****  * Example Usage:
 382:C:/Workspaces/DAVE-4.4.2-64Bit/RoverX/Dave/Generated/SPI_MASTER\spi_master.h ****  * @code
 383:C:/Workspaces/DAVE-4.4.2-64Bit/RoverX/Dave/Generated/SPI_MASTER\spi_master.h ****  *  #include "DAVE.h"         //Declarations from DAVE Code Generation (includes SFR declaration)
 384:C:/Workspaces/DAVE-4.4.2-64Bit/RoverX/Dave/Generated/SPI_MASTER\spi_master.h ****  *
 385:C:/Workspaces/DAVE-4.4.2-64Bit/RoverX/Dave/Generated/SPI_MASTER\spi_master.h ****  *  int main(void)
 386:C:/Workspaces/DAVE-4.4.2-64Bit/RoverX/Dave/Generated/SPI_MASTER\spi_master.h ****  *  {
 387:C:/Workspaces/DAVE-4.4.2-64Bit/RoverX/Dave/Generated/SPI_MASTER\spi_master.h ****  *    DAVE_STATUS_t status;
 388:C:/Workspaces/DAVE-4.4.2-64Bit/RoverX/Dave/Generated/SPI_MASTER\spi_master.h ****  *
 389:C:/Workspaces/DAVE-4.4.2-64Bit/RoverX/Dave/Generated/SPI_MASTER\spi_master.h ****  *    status = DAVE_Init();    // SPI_MASTER_Init() is called from DAVE_Init()
 390:C:/Workspaces/DAVE-4.4.2-64Bit/RoverX/Dave/Generated/SPI_MASTER\spi_master.h ****  *
 391:C:/Workspaces/DAVE-4.4.2-64Bit/RoverX/Dave/Generated/SPI_MASTER\spi_master.h ****  *    if(status == DAVE_STATUS_SUCCESS)
 392:C:/Workspaces/DAVE-4.4.2-64Bit/RoverX/Dave/Generated/SPI_MASTER\spi_master.h ****  *    {
 393:C:/Workspaces/DAVE-4.4.2-64Bit/RoverX/Dave/Generated/SPI_MASTER\spi_master.h ****  *        while(1U)
 394:C:/Workspaces/DAVE-4.4.2-64Bit/RoverX/Dave/Generated/SPI_MASTER\spi_master.h ****  *        {
 395:C:/Workspaces/DAVE-4.4.2-64Bit/RoverX/Dave/Generated/SPI_MASTER\spi_master.h ****  *        }
 396:C:/Workspaces/DAVE-4.4.2-64Bit/RoverX/Dave/Generated/SPI_MASTER\spi_master.h ****  *    }
 397:C:/Workspaces/DAVE-4.4.2-64Bit/RoverX/Dave/Generated/SPI_MASTER\spi_master.h ****  *    else
 398:C:/Workspaces/DAVE-4.4.2-64Bit/RoverX/Dave/Generated/SPI_MASTER\spi_master.h ****  *    {
 399:C:/Workspaces/DAVE-4.4.2-64Bit/RoverX/Dave/Generated/SPI_MASTER\spi_master.h ****  *     XMC_DEBUG("main: Application initialization failed");
 400:C:/Workspaces/DAVE-4.4.2-64Bit/RoverX/Dave/Generated/SPI_MASTER\spi_master.h ****  *     while(1U)
 401:C:/Workspaces/DAVE-4.4.2-64Bit/RoverX/Dave/Generated/SPI_MASTER\spi_master.h ****  *     {
 402:C:/Workspaces/DAVE-4.4.2-64Bit/RoverX/Dave/Generated/SPI_MASTER\spi_master.h ****  *     }
 403:C:/Workspaces/DAVE-4.4.2-64Bit/RoverX/Dave/Generated/SPI_MASTER\spi_master.h ****  *    }
 404:C:/Workspaces/DAVE-4.4.2-64Bit/RoverX/Dave/Generated/SPI_MASTER\spi_master.h ****  *     return 1U;
 405:C:/Workspaces/DAVE-4.4.2-64Bit/RoverX/Dave/Generated/SPI_MASTER\spi_master.h ****  * }
 406:C:/Workspaces/DAVE-4.4.2-64Bit/RoverX/Dave/Generated/SPI_MASTER\spi_master.h ****  *  @endcode
 407:C:/Workspaces/DAVE-4.4.2-64Bit/RoverX/Dave/Generated/SPI_MASTER\spi_master.h ****  */
 408:C:/Workspaces/DAVE-4.4.2-64Bit/RoverX/Dave/Generated/SPI_MASTER\spi_master.h **** SPI_MASTER_STATUS_t SPI_MASTER_Init(SPI_MASTER_t* const handle);
 409:C:/Workspaces/DAVE-4.4.2-64Bit/RoverX/Dave/Generated/SPI_MASTER\spi_master.h **** 
 410:C:/Workspaces/DAVE-4.4.2-64Bit/RoverX/Dave/Generated/SPI_MASTER\spi_master.h **** /**
 411:C:/Workspaces/DAVE-4.4.2-64Bit/RoverX/Dave/Generated/SPI_MASTER\spi_master.h ****  * @brief Set the communication mode along with required port configuration.
 412:C:/Workspaces/DAVE-4.4.2-64Bit/RoverX/Dave/Generated/SPI_MASTER\spi_master.h ****  *
 413:C:/Workspaces/DAVE-4.4.2-64Bit/RoverX/Dave/Generated/SPI_MASTER\spi_master.h ****  * @param handle handle Pointer to static and dynamic content of APP configuration.
 414:C:/Workspaces/DAVE-4.4.2-64Bit/RoverX/Dave/Generated/SPI_MASTER\spi_master.h ****  * @param mode SPI working mode
 415:C:/Workspaces/DAVE-4.4.2-64Bit/RoverX/Dave/Generated/SPI_MASTER\spi_master.h ****  *
 416:C:/Workspaces/DAVE-4.4.2-64Bit/RoverX/Dave/Generated/SPI_MASTER\spi_master.h ****  * @return  SPI_MASTER_STATUS_t
 417:C:/Workspaces/DAVE-4.4.2-64Bit/RoverX/Dave/Generated/SPI_MASTER\spi_master.h ****  *          SPI_MASTER_STATUS_SUCCESS  : if updation of settings are successful\n
 418:C:/Workspaces/DAVE-4.4.2-64Bit/RoverX/Dave/Generated/SPI_MASTER\spi_master.h ****  *          SPI_MASTER_STATUS_FAILURE  : if mode is not supported by the selected pins\n
 419:C:/Workspaces/DAVE-4.4.2-64Bit/RoverX/Dave/Generated/SPI_MASTER\spi_master.h ****  *          SPI_MASTER_STATUS_BUSY     : if SPI channel is busy with transmit or receive operation\
 420:C:/Workspaces/DAVE-4.4.2-64Bit/RoverX/Dave/Generated/SPI_MASTER\spi_master.h ****  * <BR>
 421:C:/Workspaces/DAVE-4.4.2-64Bit/RoverX/Dave/Generated/SPI_MASTER\spi_master.h ****  *
 422:C:/Workspaces/DAVE-4.4.2-64Bit/RoverX/Dave/Generated/SPI_MASTER\spi_master.h ****  * \par<b>Description:</b><br>
 423:C:/Workspaces/DAVE-4.4.2-64Bit/RoverX/Dave/Generated/SPI_MASTER\spi_master.h ****  * To change the mode of communication, it is advised to generate the code in Quad/Dual mode initia
 424:C:/Workspaces/DAVE-4.4.2-64Bit/RoverX/Dave/Generated/SPI_MASTER\spi_master.h ****  * the mode will be taken care by the APP.
 425:C:/Workspaces/DAVE-4.4.2-64Bit/RoverX/Dave/Generated/SPI_MASTER\spi_master.h ****  * <ul>
 426:C:/Workspaces/DAVE-4.4.2-64Bit/RoverX/Dave/Generated/SPI_MASTER\spi_master.h ****  * <li>If code is generated for Quad mode, it is possible to change to other modes like Dual, Half 
 427:C:/Workspaces/DAVE-4.4.2-64Bit/RoverX/Dave/Generated/SPI_MASTER\spi_master.h ****  * <li>If code is generated for Dual mode, it is possible to change to other modes like Half Duplex
 428:C:/Workspaces/DAVE-4.4.2-64Bit/RoverX/Dave/Generated/SPI_MASTER\spi_master.h ****  * <li>If code is generated for full-duplex mode, it is possible to change to Half Duplex only </li
 429:C:/Workspaces/DAVE-4.4.2-64Bit/RoverX/Dave/Generated/SPI_MASTER\spi_master.h ****  * </ul>
 430:C:/Workspaces/DAVE-4.4.2-64Bit/RoverX/Dave/Generated/SPI_MASTER\spi_master.h ****  * 
 431:C:/Workspaces/DAVE-4.4.2-64Bit/RoverX/Dave/Generated/SPI_MASTER\spi_master.h ****  * <BR>
 432:C:/Workspaces/DAVE-4.4.2-64Bit/RoverX/Dave/Generated/SPI_MASTER\spi_master.h ****  *
 433:C:/Workspaces/DAVE-4.4.2-64Bit/RoverX/Dave/Generated/SPI_MASTER\spi_master.h ****  * Example Usage:
 434:C:/Workspaces/DAVE-4.4.2-64Bit/RoverX/Dave/Generated/SPI_MASTER\spi_master.h ****  * <BR>
 435:C:/Workspaces/DAVE-4.4.2-64Bit/RoverX/Dave/Generated/SPI_MASTER\spi_master.h ****  * @code
 436:C:/Workspaces/DAVE-4.4.2-64Bit/RoverX/Dave/Generated/SPI_MASTER\spi_master.h ****  * #include "DAVE.h"
 437:C:/Workspaces/DAVE-4.4.2-64Bit/RoverX/Dave/Generated/SPI_MASTER\spi_master.h ****  *
 438:C:/Workspaces/DAVE-4.4.2-64Bit/RoverX/Dave/Generated/SPI_MASTER\spi_master.h ****  *  //Precondition:
 439:C:/Workspaces/DAVE-4.4.2-64Bit/RoverX/Dave/Generated/SPI_MASTER\spi_master.h ****  *  //Configure the SPI_MASTER APP operation mode as 'Quad SPI'.
 440:C:/Workspaces/DAVE-4.4.2-64Bit/RoverX/Dave/Generated/SPI_MASTER\spi_master.h ****  *  //Description:
 441:C:/Workspaces/DAVE-4.4.2-64Bit/RoverX/Dave/Generated/SPI_MASTER\spi_master.h ****  *  //The following code changes the SPI master device mode to Full duplex mode and starts sending 
 442:C:/Workspaces/DAVE-4.4.2-64Bit/RoverX/Dave/Generated/SPI_MASTER\spi_master.h ****  *  //the buffer.
 443:C:/Workspaces/DAVE-4.4.2-64Bit/RoverX/Dave/Generated/SPI_MASTER\spi_master.h ****  *
 444:C:/Workspaces/DAVE-4.4.2-64Bit/RoverX/Dave/Generated/SPI_MASTER\spi_master.h ****  *
 445:C:/Workspaces/DAVE-4.4.2-64Bit/RoverX/Dave/Generated/SPI_MASTER\spi_master.h ****  * int main(void)
 446:C:/Workspaces/DAVE-4.4.2-64Bit/RoverX/Dave/Generated/SPI_MASTER\spi_master.h ****  * {
 447:C:/Workspaces/DAVE-4.4.2-64Bit/RoverX/Dave/Generated/SPI_MASTER\spi_master.h ****  *   DAVE_STATUS_t status;
 448:C:/Workspaces/DAVE-4.4.2-64Bit/RoverX/Dave/Generated/SPI_MASTER\spi_master.h ****  *   SPI_MASTER_STATUS_t spi_status;
 449:C:/Workspaces/DAVE-4.4.2-64Bit/RoverX/Dave/Generated/SPI_MASTER\spi_master.h ****  *   uint8_t Send_Data[] = "Infineon DAVE application.";
 450:C:/Workspaces/DAVE-4.4.2-64Bit/RoverX/Dave/Generated/SPI_MASTER\spi_master.h ****  *
 451:C:/Workspaces/DAVE-4.4.2-64Bit/RoverX/Dave/Generated/SPI_MASTER\spi_master.h ****  *   status = DAVE_Init();    // SPI_MASTER_Init() is called from DAVE_Init()
 452:C:/Workspaces/DAVE-4.4.2-64Bit/RoverX/Dave/Generated/SPI_MASTER\spi_master.h ****  *   if(status == DAVE_STATUS_SUCCESS)
 453:C:/Workspaces/DAVE-4.4.2-64Bit/RoverX/Dave/Generated/SPI_MASTER\spi_master.h ****  *   {
 454:C:/Workspaces/DAVE-4.4.2-64Bit/RoverX/Dave/Generated/SPI_MASTER\spi_master.h ****  *    spi_status = SPI_MASTER_SetMode(&SPI_MASTER_0, XMC_SPI_CH_MODE_STANDARD);
 455:C:/Workspaces/DAVE-4.4.2-64Bit/RoverX/Dave/Generated/SPI_MASTER\spi_master.h ****  *    if(spi_status == SPI_MASTER_STATUS_SUCCESS)
 456:C:/Workspaces/DAVE-4.4.2-64Bit/RoverX/Dave/Generated/SPI_MASTER\spi_master.h ****  *    {
 457:C:/Workspaces/DAVE-4.4.2-64Bit/RoverX/Dave/Generated/SPI_MASTER\spi_master.h ****  *       SPI_MASTER_Transmit(&SPI_MASTER_0, Send_Data, sizeof(Send_Data));
 458:C:/Workspaces/DAVE-4.4.2-64Bit/RoverX/Dave/Generated/SPI_MASTER\spi_master.h ****  *    }
 459:C:/Workspaces/DAVE-4.4.2-64Bit/RoverX/Dave/Generated/SPI_MASTER\spi_master.h ****  *   }
 460:C:/Workspaces/DAVE-4.4.2-64Bit/RoverX/Dave/Generated/SPI_MASTER\spi_master.h ****  *   else
 461:C:/Workspaces/DAVE-4.4.2-64Bit/RoverX/Dave/Generated/SPI_MASTER\spi_master.h ****  *   {
 462:C:/Workspaces/DAVE-4.4.2-64Bit/RoverX/Dave/Generated/SPI_MASTER\spi_master.h ****  *    XMC_DEBUG("main: Application initialization failed");
 463:C:/Workspaces/DAVE-4.4.2-64Bit/RoverX/Dave/Generated/SPI_MASTER\spi_master.h ****  *    while(1U)
 464:C:/Workspaces/DAVE-4.4.2-64Bit/RoverX/Dave/Generated/SPI_MASTER\spi_master.h ****  *    {
 465:C:/Workspaces/DAVE-4.4.2-64Bit/RoverX/Dave/Generated/SPI_MASTER\spi_master.h ****  *    }
 466:C:/Workspaces/DAVE-4.4.2-64Bit/RoverX/Dave/Generated/SPI_MASTER\spi_master.h ****  *   }
 467:C:/Workspaces/DAVE-4.4.2-64Bit/RoverX/Dave/Generated/SPI_MASTER\spi_master.h ****  *    return 1U;
 468:C:/Workspaces/DAVE-4.4.2-64Bit/RoverX/Dave/Generated/SPI_MASTER\spi_master.h ****  * }
 469:C:/Workspaces/DAVE-4.4.2-64Bit/RoverX/Dave/Generated/SPI_MASTER\spi_master.h ****  * @endcode<BR>
 470:C:/Workspaces/DAVE-4.4.2-64Bit/RoverX/Dave/Generated/SPI_MASTER\spi_master.h ****  */
 471:C:/Workspaces/DAVE-4.4.2-64Bit/RoverX/Dave/Generated/SPI_MASTER\spi_master.h **** 
 472:C:/Workspaces/DAVE-4.4.2-64Bit/RoverX/Dave/Generated/SPI_MASTER\spi_master.h **** SPI_MASTER_STATUS_t SPI_MASTER_SetMode(SPI_MASTER_t* const handle, const XMC_SPI_CH_MODE_t mode);
 473:C:/Workspaces/DAVE-4.4.2-64Bit/RoverX/Dave/Generated/SPI_MASTER\spi_master.h **** 
 474:C:/Workspaces/DAVE-4.4.2-64Bit/RoverX/Dave/Generated/SPI_MASTER\spi_master.h **** /**
 475:C:/Workspaces/DAVE-4.4.2-64Bit/RoverX/Dave/Generated/SPI_MASTER\spi_master.h ****  * @brief Set the required baud rate during runtime.
 476:C:/Workspaces/DAVE-4.4.2-64Bit/RoverX/Dave/Generated/SPI_MASTER\spi_master.h ****  *
 477:C:/Workspaces/DAVE-4.4.2-64Bit/RoverX/Dave/Generated/SPI_MASTER\spi_master.h ****  * @param handle handle Pointer to static and dynamic content of APP configuration.
 478:C:/Workspaces/DAVE-4.4.2-64Bit/RoverX/Dave/Generated/SPI_MASTER\spi_master.h ****  * @param baud_rate required baud rate
 479:C:/Workspaces/DAVE-4.4.2-64Bit/RoverX/Dave/Generated/SPI_MASTER\spi_master.h ****  *
 480:C:/Workspaces/DAVE-4.4.2-64Bit/RoverX/Dave/Generated/SPI_MASTER\spi_master.h ****  * @return  SPI_MASTER_STATUS_t
 481:C:/Workspaces/DAVE-4.4.2-64Bit/RoverX/Dave/Generated/SPI_MASTER\spi_master.h ****  *          SPI_MASTER_STATUS_SUCCESS  : if updation of baud rate is successful\n
 482:C:/Workspaces/DAVE-4.4.2-64Bit/RoverX/Dave/Generated/SPI_MASTER\spi_master.h ****  *          SPI_MASTER_STATUS_FAILURE  : if updation is failed\n
 483:C:/Workspaces/DAVE-4.4.2-64Bit/RoverX/Dave/Generated/SPI_MASTER\spi_master.h ****  *          SPI_MASTER_STATUS_BUSY     : if SPI channel is busy with other operation\n
 484:C:/Workspaces/DAVE-4.4.2-64Bit/RoverX/Dave/Generated/SPI_MASTER\spi_master.h ****  * <BR>
 485:C:/Workspaces/DAVE-4.4.2-64Bit/RoverX/Dave/Generated/SPI_MASTER\spi_master.h ****  *
 486:C:/Workspaces/DAVE-4.4.2-64Bit/RoverX/Dave/Generated/SPI_MASTER\spi_master.h ****  * \par<b>Description:</b><br>
 487:C:/Workspaces/DAVE-4.4.2-64Bit/RoverX/Dave/Generated/SPI_MASTER\spi_master.h ****  * While setting the baud rate to avoid noise of the port pins, all the pins are changed to input. 
 488:C:/Workspaces/DAVE-4.4.2-64Bit/RoverX/Dave/Generated/SPI_MASTER\spi_master.h ****  * required baud again ports are initialised with the configured settings.
 489:C:/Workspaces/DAVE-4.4.2-64Bit/RoverX/Dave/Generated/SPI_MASTER\spi_master.h ****  * <BR>
 490:C:/Workspaces/DAVE-4.4.2-64Bit/RoverX/Dave/Generated/SPI_MASTER\spi_master.h ****  *
 491:C:/Workspaces/DAVE-4.4.2-64Bit/RoverX/Dave/Generated/SPI_MASTER\spi_master.h ****  * Example Usage:
 492:C:/Workspaces/DAVE-4.4.2-64Bit/RoverX/Dave/Generated/SPI_MASTER\spi_master.h ****  * <BR>
 493:C:/Workspaces/DAVE-4.4.2-64Bit/RoverX/Dave/Generated/SPI_MASTER\spi_master.h ****  * @code
 494:C:/Workspaces/DAVE-4.4.2-64Bit/RoverX/Dave/Generated/SPI_MASTER\spi_master.h ****  * #include "DAVE.h"
 495:C:/Workspaces/DAVE-4.4.2-64Bit/RoverX/Dave/Generated/SPI_MASTER\spi_master.h ****  *
 496:C:/Workspaces/DAVE-4.4.2-64Bit/RoverX/Dave/Generated/SPI_MASTER\spi_master.h ****  *  //Description:
 497:C:/Workspaces/DAVE-4.4.2-64Bit/RoverX/Dave/Generated/SPI_MASTER\spi_master.h ****  *  //The following code changes the SPI master baud rate to 9600 and starts sending the data store
 498:C:/Workspaces/DAVE-4.4.2-64Bit/RoverX/Dave/Generated/SPI_MASTER\spi_master.h ****  *  //the buffer.
 499:C:/Workspaces/DAVE-4.4.2-64Bit/RoverX/Dave/Generated/SPI_MASTER\spi_master.h ****  *
 500:C:/Workspaces/DAVE-4.4.2-64Bit/RoverX/Dave/Generated/SPI_MASTER\spi_master.h ****  * int main(void)
 501:C:/Workspaces/DAVE-4.4.2-64Bit/RoverX/Dave/Generated/SPI_MASTER\spi_master.h ****  * {
 502:C:/Workspaces/DAVE-4.4.2-64Bit/RoverX/Dave/Generated/SPI_MASTER\spi_master.h ****  *   DAVE_STATUS_t status;
 503:C:/Workspaces/DAVE-4.4.2-64Bit/RoverX/Dave/Generated/SPI_MASTER\spi_master.h ****  *   SPI_MASTER_STATUS_t spi_status;
 504:C:/Workspaces/DAVE-4.4.2-64Bit/RoverX/Dave/Generated/SPI_MASTER\spi_master.h ****  *   uint8_t Send_Data[] = "Infineon DAVE application.";
 505:C:/Workspaces/DAVE-4.4.2-64Bit/RoverX/Dave/Generated/SPI_MASTER\spi_master.h ****  *   uint32_t baud_rate;
 506:C:/Workspaces/DAVE-4.4.2-64Bit/RoverX/Dave/Generated/SPI_MASTER\spi_master.h ****  *
 507:C:/Workspaces/DAVE-4.4.2-64Bit/RoverX/Dave/Generated/SPI_MASTER\spi_master.h ****  *   status = DAVE_Init();    // SPI_MASTER_Init() is called from DAVE_Init()
 508:C:/Workspaces/DAVE-4.4.2-64Bit/RoverX/Dave/Generated/SPI_MASTER\spi_master.h ****  *   if(status == DAVE_STATUS_SUCCESS)
 509:C:/Workspaces/DAVE-4.4.2-64Bit/RoverX/Dave/Generated/SPI_MASTER\spi_master.h ****  *   {
 510:C:/Workspaces/DAVE-4.4.2-64Bit/RoverX/Dave/Generated/SPI_MASTER\spi_master.h ****  *     baud_rate = 9600U;
 511:C:/Workspaces/DAVE-4.4.2-64Bit/RoverX/Dave/Generated/SPI_MASTER\spi_master.h ****  *
 512:C:/Workspaces/DAVE-4.4.2-64Bit/RoverX/Dave/Generated/SPI_MASTER\spi_master.h ****  *     spi_status = SPI_MASTER_SetBaudRate(&SPI_MASTER_0, baud_rate);
 513:C:/Workspaces/DAVE-4.4.2-64Bit/RoverX/Dave/Generated/SPI_MASTER\spi_master.h ****  *
 514:C:/Workspaces/DAVE-4.4.2-64Bit/RoverX/Dave/Generated/SPI_MASTER\spi_master.h ****  *     if(spi_status == SPI_MASTER_STATUS_SUCCESS)
 515:C:/Workspaces/DAVE-4.4.2-64Bit/RoverX/Dave/Generated/SPI_MASTER\spi_master.h ****  *     {
 516:C:/Workspaces/DAVE-4.4.2-64Bit/RoverX/Dave/Generated/SPI_MASTER\spi_master.h ****  *       SPI_MASTER_Transmit(&SPI_MASTER_0, Send_Data, sizeof(Send_Data));
 517:C:/Workspaces/DAVE-4.4.2-64Bit/RoverX/Dave/Generated/SPI_MASTER\spi_master.h ****  *     }
 518:C:/Workspaces/DAVE-4.4.2-64Bit/RoverX/Dave/Generated/SPI_MASTER\spi_master.h ****  *   }
 519:C:/Workspaces/DAVE-4.4.2-64Bit/RoverX/Dave/Generated/SPI_MASTER\spi_master.h ****  *   else
 520:C:/Workspaces/DAVE-4.4.2-64Bit/RoverX/Dave/Generated/SPI_MASTER\spi_master.h ****  *   {
 521:C:/Workspaces/DAVE-4.4.2-64Bit/RoverX/Dave/Generated/SPI_MASTER\spi_master.h ****  *    XMC_DEBUG("main: Application initialization failed");
 522:C:/Workspaces/DAVE-4.4.2-64Bit/RoverX/Dave/Generated/SPI_MASTER\spi_master.h ****  *    while(1U)
 523:C:/Workspaces/DAVE-4.4.2-64Bit/RoverX/Dave/Generated/SPI_MASTER\spi_master.h ****  *    {
 524:C:/Workspaces/DAVE-4.4.2-64Bit/RoverX/Dave/Generated/SPI_MASTER\spi_master.h ****  *    }
 525:C:/Workspaces/DAVE-4.4.2-64Bit/RoverX/Dave/Generated/SPI_MASTER\spi_master.h ****  *   }
 526:C:/Workspaces/DAVE-4.4.2-64Bit/RoverX/Dave/Generated/SPI_MASTER\spi_master.h ****  *    return 1U;
 527:C:/Workspaces/DAVE-4.4.2-64Bit/RoverX/Dave/Generated/SPI_MASTER\spi_master.h ****  * }
 528:C:/Workspaces/DAVE-4.4.2-64Bit/RoverX/Dave/Generated/SPI_MASTER\spi_master.h ****  * @endcode<BR>
 529:C:/Workspaces/DAVE-4.4.2-64Bit/RoverX/Dave/Generated/SPI_MASTER\spi_master.h ****  */
 530:C:/Workspaces/DAVE-4.4.2-64Bit/RoverX/Dave/Generated/SPI_MASTER\spi_master.h **** SPI_MASTER_STATUS_t SPI_MASTER_SetBaudRate(SPI_MASTER_t* const handle, const uint32_t baud_rate);
 531:C:/Workspaces/DAVE-4.4.2-64Bit/RoverX/Dave/Generated/SPI_MASTER\spi_master.h **** 
 532:C:/Workspaces/DAVE-4.4.2-64Bit/RoverX/Dave/Generated/SPI_MASTER\spi_master.h **** /**
 533:C:/Workspaces/DAVE-4.4.2-64Bit/RoverX/Dave/Generated/SPI_MASTER\spi_master.h ****  * @brief Transmits the specified number of data words and execute the callback defined in GUI, if 
 534:C:/Workspaces/DAVE-4.4.2-64Bit/RoverX/Dave/Generated/SPI_MASTER\spi_master.h ****  *
 535:C:/Workspaces/DAVE-4.4.2-64Bit/RoverX/Dave/Generated/SPI_MASTER\spi_master.h ****  * @param handle Pointer to static and dynamic content of APP configuration.
 536:C:/Workspaces/DAVE-4.4.2-64Bit/RoverX/Dave/Generated/SPI_MASTER\spi_master.h ****  * @param dataptr Pointer to data
 537:C:/Workspaces/DAVE-4.4.2-64Bit/RoverX/Dave/Generated/SPI_MASTER\spi_master.h ****  * @param count number of data words (word length configured) to be transmitted
 538:C:/Workspaces/DAVE-4.4.2-64Bit/RoverX/Dave/Generated/SPI_MASTER\spi_master.h ****  *
 539:C:/Workspaces/DAVE-4.4.2-64Bit/RoverX/Dave/Generated/SPI_MASTER\spi_master.h ****  * @return  SPI_MASTER_STATUS_t
 540:C:/Workspaces/DAVE-4.4.2-64Bit/RoverX/Dave/Generated/SPI_MASTER\spi_master.h ****  *          SPI_MASTER_STATUS_SUCCESS : if transmit is successful\n
 541:C:/Workspaces/DAVE-4.4.2-64Bit/RoverX/Dave/Generated/SPI_MASTER\spi_master.h ****  *          SPI_MASTER_STATUS_BUSY : if SPI channel is busy with other operation
 542:C:/Workspaces/DAVE-4.4.2-64Bit/RoverX/Dave/Generated/SPI_MASTER\spi_master.h ****  * <BR>
 543:C:/Workspaces/DAVE-4.4.2-64Bit/RoverX/Dave/Generated/SPI_MASTER\spi_master.h ****  *
 544:C:/Workspaces/DAVE-4.4.2-64Bit/RoverX/Dave/Generated/SPI_MASTER\spi_master.h ****  * \par<b>Description:</b><br>
 545:C:/Workspaces/DAVE-4.4.2-64Bit/RoverX/Dave/Generated/SPI_MASTER\spi_master.h **** * Transmits data using the SPI channel as a master device. Transmission is accomplished using the t
 546:C:/Workspaces/DAVE-4.4.2-64Bit/RoverX/Dave/Generated/SPI_MASTER\spi_master.h ****  * as configured in the UI.<br>
 547:C:/Workspaces/DAVE-4.4.2-64Bit/RoverX/Dave/Generated/SPI_MASTER\spi_master.h ****  * <b>Interrupt:</b><br>
 548:C:/Workspaces/DAVE-4.4.2-64Bit/RoverX/Dave/Generated/SPI_MASTER\spi_master.h ****  * The data transmission is accomplished using transmit interrupt. User can configure
 549:C:/Workspaces/DAVE-4.4.2-64Bit/RoverX/Dave/Generated/SPI_MASTER\spi_master.h ****  * a callback function in the APP UI. When the data is fully transmitted, the callback
 550:C:/Workspaces/DAVE-4.4.2-64Bit/RoverX/Dave/Generated/SPI_MASTER\spi_master.h ****  * function will be executed. If transmit FIFO is enabled, the trigger limit is set to 1.
 551:C:/Workspaces/DAVE-4.4.2-64Bit/RoverX/Dave/Generated/SPI_MASTER\spi_master.h ****  * So the transmit interrupt will be generated when all the data in FIFO is moved out of FIFO.
 552:C:/Workspaces/DAVE-4.4.2-64Bit/RoverX/Dave/Generated/SPI_MASTER\spi_master.h ****  * The APP handle's runtime structure is used to store the data pointer, count, data index
 553:C:/Workspaces/DAVE-4.4.2-64Bit/RoverX/Dave/Generated/SPI_MASTER\spi_master.h ****  * and status of transmission. This function only registers a data transmission request if
 554:C:/Workspaces/DAVE-4.4.2-64Bit/RoverX/Dave/Generated/SPI_MASTER\spi_master.h ****  * there is no active transmission in progress. Actual data transmission happens in the transmit
 555:C:/Workspaces/DAVE-4.4.2-64Bit/RoverX/Dave/Generated/SPI_MASTER\spi_master.h ****  * interrupt service routine. A trigger is generated for the transmit interrupt to start loading
 556:C:/Workspaces/DAVE-4.4.2-64Bit/RoverX/Dave/Generated/SPI_MASTER\spi_master.h ****  * the data to the transmit buffer. If transmit FIFO is configured, the data is filled into the FIF
 557:C:/Workspaces/DAVE-4.4.2-64Bit/RoverX/Dave/Generated/SPI_MASTER\spi_master.h ****  * Transmit interrupt will be generated subsequently when the transmit FIFO is empty. At this
 558:C:/Workspaces/DAVE-4.4.2-64Bit/RoverX/Dave/Generated/SPI_MASTER\spi_master.h ****  * point of time, if there is some more data to be transmitted, it is loaded to the FIFO again.
 559:C:/Workspaces/DAVE-4.4.2-64Bit/RoverX/Dave/Generated/SPI_MASTER\spi_master.h ****  * When FIFO is not enabled, data is transmitted one byte at a time. On transmission of each byte
 560:C:/Workspaces/DAVE-4.4.2-64Bit/RoverX/Dave/Generated/SPI_MASTER\spi_master.h ****  * an interrupt is generated and the next byte is transmitted in the interrupt service routine.
 561:C:/Workspaces/DAVE-4.4.2-64Bit/RoverX/Dave/Generated/SPI_MASTER\spi_master.h ****  * Callback function is executed when all the data bytes are transmitted.
 562:C:/Workspaces/DAVE-4.4.2-64Bit/RoverX/Dave/Generated/SPI_MASTER\spi_master.h ****  * If a callback function is not configured, user has to poll for the value of \a tx_busy flag of
 563:C:/Workspaces/DAVE-4.4.2-64Bit/RoverX/Dave/Generated/SPI_MASTER\spi_master.h ****  * the APP handle structure( \a handle->runtime->tx_busy ) to check for
 564:C:/Workspaces/DAVE-4.4.2-64Bit/RoverX/Dave/Generated/SPI_MASTER\spi_master.h ****  * the completion of data transmission or use SPI_MASTER_IsTxBusy() API.<br>
 565:C:/Workspaces/DAVE-4.4.2-64Bit/RoverX/Dave/Generated/SPI_MASTER\spi_master.h ****  * <b>DMA:</b><br>
 566:C:/Workspaces/DAVE-4.4.2-64Bit/RoverX/Dave/Generated/SPI_MASTER\spi_master.h ****  * DMA mode is available only in XMC4x family of microcontrollers. A DMA channel is configured to p
 567:C:/Workspaces/DAVE-4.4.2-64Bit/RoverX/Dave/Generated/SPI_MASTER\spi_master.h ****  * data to the SPI channel transmit buffer. This removes the load off the CPU. This API will only c
 568:C:/Workspaces/DAVE-4.4.2-64Bit/RoverX/Dave/Generated/SPI_MASTER\spi_master.h ****  * and enable the DMA channel by specifying the data buffer and count of bytes to transmit. Rest is
 569:C:/Workspaces/DAVE-4.4.2-64Bit/RoverX/Dave/Generated/SPI_MASTER\spi_master.h ****  * care without the CPU's intervention. User can configure a callback function in the APP UI. When 
 570:C:/Workspaces/DAVE-4.4.2-64Bit/RoverX/Dave/Generated/SPI_MASTER\spi_master.h ****  * transmission is complete, the callback function will be executed. FIFO will not be used in DMA m
 571:C:/Workspaces/DAVE-4.4.2-64Bit/RoverX/Dave/Generated/SPI_MASTER\spi_master.h ****  * Receive start interrupt is configured for triggering the DMA channel. So each byte is transmitte
 572:C:/Workspaces/DAVE-4.4.2-64Bit/RoverX/Dave/Generated/SPI_MASTER\spi_master.h ****  * the background through the DMA channel.
 573:C:/Workspaces/DAVE-4.4.2-64Bit/RoverX/Dave/Generated/SPI_MASTER\spi_master.h ****  * If the callback function is not configured, \a handle->runtime->tx_busy flag can be checked to
 574:C:/Workspaces/DAVE-4.4.2-64Bit/RoverX/Dave/Generated/SPI_MASTER\spi_master.h ****  * verify if the transmission is complete.
 575:C:/Workspaces/DAVE-4.4.2-64Bit/RoverX/Dave/Generated/SPI_MASTER\spi_master.h ****  * <b>Direct:</b><br>
 576:C:/Workspaces/DAVE-4.4.2-64Bit/RoverX/Dave/Generated/SPI_MASTER\spi_master.h ****  * Data will be transmitted using polling method. Status flags are used to check if data can be tra
 577:C:/Workspaces/DAVE-4.4.2-64Bit/RoverX/Dave/Generated/SPI_MASTER\spi_master.h ****  * <i><b> Note:</b> In Direct mode, the API blocks the CPU until the count of bytes requested is tr
 578:C:/Workspaces/DAVE-4.4.2-64Bit/RoverX/Dave/Generated/SPI_MASTER\spi_master.h ****  *
 579:C:/Workspaces/DAVE-4.4.2-64Bit/RoverX/Dave/Generated/SPI_MASTER\spi_master.h ****  * Example Usage:
 580:C:/Workspaces/DAVE-4.4.2-64Bit/RoverX/Dave/Generated/SPI_MASTER\spi_master.h ****  * <BR>
 581:C:/Workspaces/DAVE-4.4.2-64Bit/RoverX/Dave/Generated/SPI_MASTER\spi_master.h ****  * @code
 582:C:/Workspaces/DAVE-4.4.2-64Bit/RoverX/Dave/Generated/SPI_MASTER\spi_master.h ****  * #include "DAVE.h"
 583:C:/Workspaces/DAVE-4.4.2-64Bit/RoverX/Dave/Generated/SPI_MASTER\spi_master.h ****  *
 584:C:/Workspaces/DAVE-4.4.2-64Bit/RoverX/Dave/Generated/SPI_MASTER\spi_master.h ****  * //Description:
 585:C:/Workspaces/DAVE-4.4.2-64Bit/RoverX/Dave/Generated/SPI_MASTER\spi_master.h ****  * //Transmits "Infineon" to the slave device.
 586:C:/Workspaces/DAVE-4.4.2-64Bit/RoverX/Dave/Generated/SPI_MASTER\spi_master.h ****  *
 587:C:/Workspaces/DAVE-4.4.2-64Bit/RoverX/Dave/Generated/SPI_MASTER\spi_master.h ****  *
 588:C:/Workspaces/DAVE-4.4.2-64Bit/RoverX/Dave/Generated/SPI_MASTER\spi_master.h ****  * int main(void)
 589:C:/Workspaces/DAVE-4.4.2-64Bit/RoverX/Dave/Generated/SPI_MASTER\spi_master.h ****  * {
 590:C:/Workspaces/DAVE-4.4.2-64Bit/RoverX/Dave/Generated/SPI_MASTER\spi_master.h ****  *   DAVE_STATUS_t status;
 591:C:/Workspaces/DAVE-4.4.2-64Bit/RoverX/Dave/Generated/SPI_MASTER\spi_master.h ****  *
 592:C:/Workspaces/DAVE-4.4.2-64Bit/RoverX/Dave/Generated/SPI_MASTER\spi_master.h ****  *   uint8_t Send_Data[] = "Infineon";
 593:C:/Workspaces/DAVE-4.4.2-64Bit/RoverX/Dave/Generated/SPI_MASTER\spi_master.h ****  *
 594:C:/Workspaces/DAVE-4.4.2-64Bit/RoverX/Dave/Generated/SPI_MASTER\spi_master.h ****  *   status = DAVE_Init();    // SPI_MASTER_Init() is called from DAVE_Init()
 595:C:/Workspaces/DAVE-4.4.2-64Bit/RoverX/Dave/Generated/SPI_MASTER\spi_master.h ****  *   if(status == DAVE_STATUS_SUCCESS)
 596:C:/Workspaces/DAVE-4.4.2-64Bit/RoverX/Dave/Generated/SPI_MASTER\spi_master.h ****  *   {
 597:C:/Workspaces/DAVE-4.4.2-64Bit/RoverX/Dave/Generated/SPI_MASTER\spi_master.h ****  *     if(SPI_MASTER_Transmit(&SPI_MASTER_0, Send_Data, sizeof(Send_Data)) == SPI_MASTER_STATUS_SUC
 598:C:/Workspaces/DAVE-4.4.2-64Bit/RoverX/Dave/Generated/SPI_MASTER\spi_master.h ****  *     {
 599:C:/Workspaces/DAVE-4.4.2-64Bit/RoverX/Dave/Generated/SPI_MASTER\spi_master.h ****  *       while(SPI_MASTER_0.runtime->tx_busy)
 600:C:/Workspaces/DAVE-4.4.2-64Bit/RoverX/Dave/Generated/SPI_MASTER\spi_master.h ****  *       {
 601:C:/Workspaces/DAVE-4.4.2-64Bit/RoverX/Dave/Generated/SPI_MASTER\spi_master.h ****  *       }
 602:C:/Workspaces/DAVE-4.4.2-64Bit/RoverX/Dave/Generated/SPI_MASTER\spi_master.h ****  *     }
 603:C:/Workspaces/DAVE-4.4.2-64Bit/RoverX/Dave/Generated/SPI_MASTER\spi_master.h ****  *   }
 604:C:/Workspaces/DAVE-4.4.2-64Bit/RoverX/Dave/Generated/SPI_MASTER\spi_master.h ****  *   else
 605:C:/Workspaces/DAVE-4.4.2-64Bit/RoverX/Dave/Generated/SPI_MASTER\spi_master.h ****  *   {
 606:C:/Workspaces/DAVE-4.4.2-64Bit/RoverX/Dave/Generated/SPI_MASTER\spi_master.h ****  *    XMC_DEBUG("main: Application initialization failed");
 607:C:/Workspaces/DAVE-4.4.2-64Bit/RoverX/Dave/Generated/SPI_MASTER\spi_master.h ****  *    while(1U)
 608:C:/Workspaces/DAVE-4.4.2-64Bit/RoverX/Dave/Generated/SPI_MASTER\spi_master.h ****  *    {
 609:C:/Workspaces/DAVE-4.4.2-64Bit/RoverX/Dave/Generated/SPI_MASTER\spi_master.h ****  *    }
 610:C:/Workspaces/DAVE-4.4.2-64Bit/RoverX/Dave/Generated/SPI_MASTER\spi_master.h ****  *   }
 611:C:/Workspaces/DAVE-4.4.2-64Bit/RoverX/Dave/Generated/SPI_MASTER\spi_master.h ****  *    return 1U;
 612:C:/Workspaces/DAVE-4.4.2-64Bit/RoverX/Dave/Generated/SPI_MASTER\spi_master.h ****  * }
 613:C:/Workspaces/DAVE-4.4.2-64Bit/RoverX/Dave/Generated/SPI_MASTER\spi_master.h ****  * @endcode<BR> </p>
 614:C:/Workspaces/DAVE-4.4.2-64Bit/RoverX/Dave/Generated/SPI_MASTER\spi_master.h ****  *
 615:C:/Workspaces/DAVE-4.4.2-64Bit/RoverX/Dave/Generated/SPI_MASTER\spi_master.h ****  */
 616:C:/Workspaces/DAVE-4.4.2-64Bit/RoverX/Dave/Generated/SPI_MASTER\spi_master.h **** SPI_MASTER_STATUS_t SPI_MASTER_Transmit(const SPI_MASTER_t *const handle, uint8_t* dataptr, uint32_
 617:C:/Workspaces/DAVE-4.4.2-64Bit/RoverX/Dave/Generated/SPI_MASTER\spi_master.h **** 
 618:C:/Workspaces/DAVE-4.4.2-64Bit/RoverX/Dave/Generated/SPI_MASTER\spi_master.h **** /**
 619:C:/Workspaces/DAVE-4.4.2-64Bit/RoverX/Dave/Generated/SPI_MASTER\spi_master.h ****  * @brief Receives the specified number of data words and execute the callback defined in GUI, if e
 620:C:/Workspaces/DAVE-4.4.2-64Bit/RoverX/Dave/Generated/SPI_MASTER\spi_master.h ****  *
 621:C:/Workspaces/DAVE-4.4.2-64Bit/RoverX/Dave/Generated/SPI_MASTER\spi_master.h ****  * @param handle Pointer to static and dynamic content of APP configuration.
 622:C:/Workspaces/DAVE-4.4.2-64Bit/RoverX/Dave/Generated/SPI_MASTER\spi_master.h ****  * @param dataptr Pointer to data in which value is written
 623:C:/Workspaces/DAVE-4.4.2-64Bit/RoverX/Dave/Generated/SPI_MASTER\spi_master.h ****  * @param count number of data words (word length configured) to be read
 624:C:/Workspaces/DAVE-4.4.2-64Bit/RoverX/Dave/Generated/SPI_MASTER\spi_master.h ****  *
 625:C:/Workspaces/DAVE-4.4.2-64Bit/RoverX/Dave/Generated/SPI_MASTER\spi_master.h ****  * @return  SPI_MASTER_STATUS_t
 626:C:/Workspaces/DAVE-4.4.2-64Bit/RoverX/Dave/Generated/SPI_MASTER\spi_master.h ****  *          SPI_MASTER_STATUS_SUCCESS : if read is successful\n
 627:C:/Workspaces/DAVE-4.4.2-64Bit/RoverX/Dave/Generated/SPI_MASTER\spi_master.h ****  *          SPI_MASTER_STATUS_BUSY : if SPI channel is busy with other operation
 628:C:/Workspaces/DAVE-4.4.2-64Bit/RoverX/Dave/Generated/SPI_MASTER\spi_master.h ****  * <BR>
 629:C:/Workspaces/DAVE-4.4.2-64Bit/RoverX/Dave/Generated/SPI_MASTER\spi_master.h ****  * \par<b>Description:</b><br>
 630:C:/Workspaces/DAVE-4.4.2-64Bit/RoverX/Dave/Generated/SPI_MASTER\spi_master.h ****  * Data will be received from the SPI slave synchronously. After the requested number of data bytes
 631:C:/Workspaces/DAVE-4.4.2-64Bit/RoverX/Dave/Generated/SPI_MASTER\spi_master.h ****  * optionally, the user configured callback function will be executed.
 632:C:/Workspaces/DAVE-4.4.2-64Bit/RoverX/Dave/Generated/SPI_MASTER\spi_master.h ****  * Data reception is accomplished using the receive mode selected in the UI.
 633:C:/Workspaces/DAVE-4.4.2-64Bit/RoverX/Dave/Generated/SPI_MASTER\spi_master.h ****  * <b>Interrupt:</b><br>
 634:C:/Workspaces/DAVE-4.4.2-64Bit/RoverX/Dave/Generated/SPI_MASTER\spi_master.h ****  * Based on the UI configuration, either standard receive buffer(RBUF) or receive FIFO(OUT) is used
 635:C:/Workspaces/DAVE-4.4.2-64Bit/RoverX/Dave/Generated/SPI_MASTER\spi_master.h ****  * for data reception. An interrupt is configured for reading received data from the bus. This func
 636:C:/Workspaces/DAVE-4.4.2-64Bit/RoverX/Dave/Generated/SPI_MASTER\spi_master.h ****  * only registers a request to receive a number of data bytes from a USIC channel. If FIFO is
 637:C:/Workspaces/DAVE-4.4.2-64Bit/RoverX/Dave/Generated/SPI_MASTER\spi_master.h ****  * configured for reception, the FIFO limit is dynamically configured to optimally utilize the
 638:C:/Workspaces/DAVE-4.4.2-64Bit/RoverX/Dave/Generated/SPI_MASTER\spi_master.h ****  * CPU load. Before starting data reception, the receive buffers are flushed. So only those data, r
 639:C:/Workspaces/DAVE-4.4.2-64Bit/RoverX/Dave/Generated/SPI_MASTER\spi_master.h ****  * after calling the API, will be placed in the user buffer.
 640:C:/Workspaces/DAVE-4.4.2-64Bit/RoverX/Dave/Generated/SPI_MASTER\spi_master.h ****  * When all the requested number of data bytes are received, the configured callback
 641:C:/Workspaces/DAVE-4.4.2-64Bit/RoverX/Dave/Generated/SPI_MASTER\spi_master.h ****  * function will be executed.
 642:C:/Workspaces/DAVE-4.4.2-64Bit/RoverX/Dave/Generated/SPI_MASTER\spi_master.h ****  * If a callback function is not configured, the user has to poll for the value of the
 643:C:/Workspaces/DAVE-4.4.2-64Bit/RoverX/Dave/Generated/SPI_MASTER\spi_master.h ****  * variable, \a handle->runtime->rx_busy to be false. The value is updated to \a false when all the
 644:C:/Workspaces/DAVE-4.4.2-64Bit/RoverX/Dave/Generated/SPI_MASTER\spi_master.h ****  * requested number of data bytes are received.
 645:C:/Workspaces/DAVE-4.4.2-64Bit/RoverX/Dave/Generated/SPI_MASTER\spi_master.h ****  * <br>
 646:C:/Workspaces/DAVE-4.4.2-64Bit/RoverX/Dave/Generated/SPI_MASTER\spi_master.h ****  * <b>DMA:</b><br>
 647:C:/Workspaces/DAVE-4.4.2-64Bit/RoverX/Dave/Generated/SPI_MASTER\spi_master.h ****  * DMA mode is available only in XMC4x family of microcontrollers. In this mode, a DMA channel is
 648:C:/Workspaces/DAVE-4.4.2-64Bit/RoverX/Dave/Generated/SPI_MASTER\spi_master.h ****  * configured for receiving data from standard receive buffer(RBUF) to the user buffer. By calling
 649:C:/Workspaces/DAVE-4.4.2-64Bit/RoverX/Dave/Generated/SPI_MASTER\spi_master.h ****  * this API, the DMA channel destination address is configured to the user buffer and the channel i
 650:C:/Workspaces/DAVE-4.4.2-64Bit/RoverX/Dave/Generated/SPI_MASTER\spi_master.h ****  * enabled. Receive FIFO will not be used when the receive mode is DMA.
 651:C:/Workspaces/DAVE-4.4.2-64Bit/RoverX/Dave/Generated/SPI_MASTER\spi_master.h ****  * Before starting data reception, the receive buffers are flushed. So only those data, received
 652:C:/Workspaces/DAVE-4.4.2-64Bit/RoverX/Dave/Generated/SPI_MASTER\spi_master.h ****  * after calling the API, will be placed in the user buffer.
 653:C:/Workspaces/DAVE-4.4.2-64Bit/RoverX/Dave/Generated/SPI_MASTER\spi_master.h ****  * When all the requested number of data bytes are received, the configured callback
 654:C:/Workspaces/DAVE-4.4.2-64Bit/RoverX/Dave/Generated/SPI_MASTER\spi_master.h ****  * function will be executed.
 655:C:/Workspaces/DAVE-4.4.2-64Bit/RoverX/Dave/Generated/SPI_MASTER\spi_master.h ****  * If a callback function is not configured, the user has to poll for the value of the
 656:C:/Workspaces/DAVE-4.4.2-64Bit/RoverX/Dave/Generated/SPI_MASTER\spi_master.h ****  * variable, \a handle->runtime->rx_busy to be false. The value is updated to \a false when all the
 657:C:/Workspaces/DAVE-4.4.2-64Bit/RoverX/Dave/Generated/SPI_MASTER\spi_master.h ****  * requested number of data bytes are received.
 658:C:/Workspaces/DAVE-4.4.2-64Bit/RoverX/Dave/Generated/SPI_MASTER\spi_master.h ****  * <br>
 659:C:/Workspaces/DAVE-4.4.2-64Bit/RoverX/Dave/Generated/SPI_MASTER\spi_master.h ****  * <b>Direct</b><br>
 660:C:/Workspaces/DAVE-4.4.2-64Bit/RoverX/Dave/Generated/SPI_MASTER\spi_master.h ****  * In Direct receive mode, neither interrupt nor DMA is used. The API polls
 661:C:/Workspaces/DAVE-4.4.2-64Bit/RoverX/Dave/Generated/SPI_MASTER\spi_master.h ****  * the receive flag to read the received data and waits for all the requested number of bytes to
 662:C:/Workspaces/DAVE-4.4.2-64Bit/RoverX/Dave/Generated/SPI_MASTER\spi_master.h ****  * be received. Based on FIFO configuration, either RBUF or OUT register is used for reading receiv
 663:C:/Workspaces/DAVE-4.4.2-64Bit/RoverX/Dave/Generated/SPI_MASTER\spi_master.h ****  * data. Before starting data reception, the receive buffers are flushed. So only those data, recei
 664:C:/Workspaces/DAVE-4.4.2-64Bit/RoverX/Dave/Generated/SPI_MASTER\spi_master.h ****  * after calling the API, will be placed in the user buffer.
 665:C:/Workspaces/DAVE-4.4.2-64Bit/RoverX/Dave/Generated/SPI_MASTER\spi_master.h ****  * <i><b> Note:</b> In Direct mode, the API blocks the CPU until the count of bytes requested is re
 666:C:/Workspaces/DAVE-4.4.2-64Bit/RoverX/Dave/Generated/SPI_MASTER\spi_master.h ****  * <BR>
 667:C:/Workspaces/DAVE-4.4.2-64Bit/RoverX/Dave/Generated/SPI_MASTER\spi_master.h ****  *
 668:C:/Workspaces/DAVE-4.4.2-64Bit/RoverX/Dave/Generated/SPI_MASTER\spi_master.h ****  * Example Usage:
 669:C:/Workspaces/DAVE-4.4.2-64Bit/RoverX/Dave/Generated/SPI_MASTER\spi_master.h ****  *
 670:C:/Workspaces/DAVE-4.4.2-64Bit/RoverX/Dave/Generated/SPI_MASTER\spi_master.h ****  * @code
 671:C:/Workspaces/DAVE-4.4.2-64Bit/RoverX/Dave/Generated/SPI_MASTER\spi_master.h ****  * #include "DAVE.h"
 672:C:/Workspaces/DAVE-4.4.2-64Bit/RoverX/Dave/Generated/SPI_MASTER\spi_master.h ****  *
 673:C:/Workspaces/DAVE-4.4.2-64Bit/RoverX/Dave/Generated/SPI_MASTER\spi_master.h ****  * //Description:
 674:C:/Workspaces/DAVE-4.4.2-64Bit/RoverX/Dave/Generated/SPI_MASTER\spi_master.h ****  * //Receives 10 bytes of data from slave.
 675:C:/Workspaces/DAVE-4.4.2-64Bit/RoverX/Dave/Generated/SPI_MASTER\spi_master.h ****  *
 676:C:/Workspaces/DAVE-4.4.2-64Bit/RoverX/Dave/Generated/SPI_MASTER\spi_master.h ****  * int main(void)
 677:C:/Workspaces/DAVE-4.4.2-64Bit/RoverX/Dave/Generated/SPI_MASTER\spi_master.h ****  * {
 678:C:/Workspaces/DAVE-4.4.2-64Bit/RoverX/Dave/Generated/SPI_MASTER\spi_master.h ****  *   DAVE_STATUS_t status;
 679:C:/Workspaces/DAVE-4.4.2-64Bit/RoverX/Dave/Generated/SPI_MASTER\spi_master.h ****  *   uint8_t ReadData[10];
 680:C:/Workspaces/DAVE-4.4.2-64Bit/RoverX/Dave/Generated/SPI_MASTER\spi_master.h ****  *
 681:C:/Workspaces/DAVE-4.4.2-64Bit/RoverX/Dave/Generated/SPI_MASTER\spi_master.h ****  *   status =  DAVE_Init();    // SPI_MASTER_Init() is called from DAVE_Init()
 682:C:/Workspaces/DAVE-4.4.2-64Bit/RoverX/Dave/Generated/SPI_MASTER\spi_master.h ****  *   if(status == DAVE_STATUS_SUCCESS)
 683:C:/Workspaces/DAVE-4.4.2-64Bit/RoverX/Dave/Generated/SPI_MASTER\spi_master.h ****  *   {
 684:C:/Workspaces/DAVE-4.4.2-64Bit/RoverX/Dave/Generated/SPI_MASTER\spi_master.h ****  *     if(SPI_MASTER_Receive(&SPI_MASTER_0, ReadData, 10U))
 685:C:/Workspaces/DAVE-4.4.2-64Bit/RoverX/Dave/Generated/SPI_MASTER\spi_master.h ****  *     {
 686:C:/Workspaces/DAVE-4.4.2-64Bit/RoverX/Dave/Generated/SPI_MASTER\spi_master.h ****  *       while(SPI_MASTER_0.runtime->rx_busy)
 687:C:/Workspaces/DAVE-4.4.2-64Bit/RoverX/Dave/Generated/SPI_MASTER\spi_master.h ****  *       {
 688:C:/Workspaces/DAVE-4.4.2-64Bit/RoverX/Dave/Generated/SPI_MASTER\spi_master.h ****  *       }
 689:C:/Workspaces/DAVE-4.4.2-64Bit/RoverX/Dave/Generated/SPI_MASTER\spi_master.h ****  *     }
 690:C:/Workspaces/DAVE-4.4.2-64Bit/RoverX/Dave/Generated/SPI_MASTER\spi_master.h ****  *   }
 691:C:/Workspaces/DAVE-4.4.2-64Bit/RoverX/Dave/Generated/SPI_MASTER\spi_master.h ****  *   else
 692:C:/Workspaces/DAVE-4.4.2-64Bit/RoverX/Dave/Generated/SPI_MASTER\spi_master.h ****  *   {
 693:C:/Workspaces/DAVE-4.4.2-64Bit/RoverX/Dave/Generated/SPI_MASTER\spi_master.h ****  *    XMC_DEBUG("main: Application initialization failed");
 694:C:/Workspaces/DAVE-4.4.2-64Bit/RoverX/Dave/Generated/SPI_MASTER\spi_master.h ****  *    while(1U)
 695:C:/Workspaces/DAVE-4.4.2-64Bit/RoverX/Dave/Generated/SPI_MASTER\spi_master.h ****  *    {
 696:C:/Workspaces/DAVE-4.4.2-64Bit/RoverX/Dave/Generated/SPI_MASTER\spi_master.h ****  *    }
 697:C:/Workspaces/DAVE-4.4.2-64Bit/RoverX/Dave/Generated/SPI_MASTER\spi_master.h ****  *   }
 698:C:/Workspaces/DAVE-4.4.2-64Bit/RoverX/Dave/Generated/SPI_MASTER\spi_master.h ****  *    return 1U;
 699:C:/Workspaces/DAVE-4.4.2-64Bit/RoverX/Dave/Generated/SPI_MASTER\spi_master.h ****  * }
 700:C:/Workspaces/DAVE-4.4.2-64Bit/RoverX/Dave/Generated/SPI_MASTER\spi_master.h ****  * @endcode<BR>
 701:C:/Workspaces/DAVE-4.4.2-64Bit/RoverX/Dave/Generated/SPI_MASTER\spi_master.h ****  */
 702:C:/Workspaces/DAVE-4.4.2-64Bit/RoverX/Dave/Generated/SPI_MASTER\spi_master.h **** SPI_MASTER_STATUS_t SPI_MASTER_Receive(const SPI_MASTER_t *const handle, uint8_t* dataptr, uint32_t
 703:C:/Workspaces/DAVE-4.4.2-64Bit/RoverX/Dave/Generated/SPI_MASTER\spi_master.h **** 
 704:C:/Workspaces/DAVE-4.4.2-64Bit/RoverX/Dave/Generated/SPI_MASTER\spi_master.h **** /**
 705:C:/Workspaces/DAVE-4.4.2-64Bit/RoverX/Dave/Generated/SPI_MASTER\spi_master.h ****  * @brief Transmits and Receives the specified number of data words and execute the receive callbac
 706:C:/Workspaces/DAVE-4.4.2-64Bit/RoverX/Dave/Generated/SPI_MASTER\spi_master.h ****  *        in GUI.
 707:C:/Workspaces/DAVE-4.4.2-64Bit/RoverX/Dave/Generated/SPI_MASTER\spi_master.h ****  *
 708:C:/Workspaces/DAVE-4.4.2-64Bit/RoverX/Dave/Generated/SPI_MASTER\spi_master.h ****  * @param handle Pointer to static and dynamic content of APP configuration.
 709:C:/Workspaces/DAVE-4.4.2-64Bit/RoverX/Dave/Generated/SPI_MASTER\spi_master.h ****  * @param tx_dataptr Pointer to data buffer which has to be send
 710:C:/Workspaces/DAVE-4.4.2-64Bit/RoverX/Dave/Generated/SPI_MASTER\spi_master.h ****  * @param rx_dataptr Pointer to data buffer where the received data has to be stored.
 711:C:/Workspaces/DAVE-4.4.2-64Bit/RoverX/Dave/Generated/SPI_MASTER\spi_master.h ****  * @param count number of data words (word length configured) to be read and write
 712:C:/Workspaces/DAVE-4.4.2-64Bit/RoverX/Dave/Generated/SPI_MASTER\spi_master.h ****  *
 713:C:/Workspaces/DAVE-4.4.2-64Bit/RoverX/Dave/Generated/SPI_MASTER\spi_master.h ****  * @return  SPI_MASTER_STATUS_t
 714:C:/Workspaces/DAVE-4.4.2-64Bit/RoverX/Dave/Generated/SPI_MASTER\spi_master.h ****  *          SPI_MASTER_STATUS_SUCCESS   : if transfer of data is successful\n
 715:C:/Workspaces/DAVE-4.4.2-64Bit/RoverX/Dave/Generated/SPI_MASTER\spi_master.h ****  *          SPI_MASTER_STATUS_FAILURE   : if transfer of data is failed (or) in other than standard
 716:C:/Workspaces/DAVE-4.4.2-64Bit/RoverX/Dave/Generated/SPI_MASTER\spi_master.h ****  *          SPI_MASTER_STATUS_BUFFER_INVALID : if passed buffers are NULL pointers (or) length of d
 717:C:/Workspaces/DAVE-4.4.2-64Bit/RoverX/Dave/Generated/SPI_MASTER\spi_master.h ****  * <BR>
 718:C:/Workspaces/DAVE-4.4.2-64Bit/RoverX/Dave/Generated/SPI_MASTER\spi_master.h ****  * \par<b>Description:</b><br>
 719:C:/Workspaces/DAVE-4.4.2-64Bit/RoverX/Dave/Generated/SPI_MASTER\spi_master.h ****  * Transmits and receives data simultaneously using the SPI channel as a master device. API is appl
 720:C:/Workspaces/DAVE-4.4.2-64Bit/RoverX/Dave/Generated/SPI_MASTER\spi_master.h ****  * <i>Full duplex</> operation mode. Data transfer happens based on the individual modes configured
 721:C:/Workspaces/DAVE-4.4.2-64Bit/RoverX/Dave/Generated/SPI_MASTER\spi_master.h ****  * reception.<br>
 722:C:/Workspaces/DAVE-4.4.2-64Bit/RoverX/Dave/Generated/SPI_MASTER\spi_master.h ****  * Two data pins MOSI and MISO will be used for receiving and transmitting data respectively. A cal
 723:C:/Workspaces/DAVE-4.4.2-64Bit/RoverX/Dave/Generated/SPI_MASTER\spi_master.h ****  * configured to execute after completing the transfer when 'Interrupt' or 'DMA' mode is used. The 
 724:C:/Workspaces/DAVE-4.4.2-64Bit/RoverX/Dave/Generated/SPI_MASTER\spi_master.h ****  * should be configured for <i>End of receive/transfer callback</i> in the 'Interrupt Settings' tab
 725:C:/Workspaces/DAVE-4.4.2-64Bit/RoverX/Dave/Generated/SPI_MASTER\spi_master.h ****  * function will be executed when the last word of data is received.
 726:C:/Workspaces/DAVE-4.4.2-64Bit/RoverX/Dave/Generated/SPI_MASTER\spi_master.h ****  *
 727:C:/Workspaces/DAVE-4.4.2-64Bit/RoverX/Dave/Generated/SPI_MASTER\spi_master.h ****  * <BR>
 728:C:/Workspaces/DAVE-4.4.2-64Bit/RoverX/Dave/Generated/SPI_MASTER\spi_master.h ****  *
 729:C:/Workspaces/DAVE-4.4.2-64Bit/RoverX/Dave/Generated/SPI_MASTER\spi_master.h ****  * Example Usage:
 730:C:/Workspaces/DAVE-4.4.2-64Bit/RoverX/Dave/Generated/SPI_MASTER\spi_master.h ****  *
 731:C:/Workspaces/DAVE-4.4.2-64Bit/RoverX/Dave/Generated/SPI_MASTER\spi_master.h ****  * @code
 732:C:/Workspaces/DAVE-4.4.2-64Bit/RoverX/Dave/Generated/SPI_MASTER\spi_master.h ****  * #include "DAVE.h"
 733:C:/Workspaces/DAVE-4.4.2-64Bit/RoverX/Dave/Generated/SPI_MASTER\spi_master.h ****  *
 734:C:/Workspaces/DAVE-4.4.2-64Bit/RoverX/Dave/Generated/SPI_MASTER\spi_master.h ****  * //Precondition: Operation mode should be 'Full Duplex"
 735:C:/Workspaces/DAVE-4.4.2-64Bit/RoverX/Dave/Generated/SPI_MASTER\spi_master.h ****  * //Description:
 736:C:/Workspaces/DAVE-4.4.2-64Bit/RoverX/Dave/Generated/SPI_MASTER\spi_master.h ****  * //Transmits and Receives 10 bytes of data from slave in parallel.
 737:C:/Workspaces/DAVE-4.4.2-64Bit/RoverX/Dave/Generated/SPI_MASTER\spi_master.h ****  *
 738:C:/Workspaces/DAVE-4.4.2-64Bit/RoverX/Dave/Generated/SPI_MASTER\spi_master.h ****  * int main(void)
 739:C:/Workspaces/DAVE-4.4.2-64Bit/RoverX/Dave/Generated/SPI_MASTER\spi_master.h ****  * {
 740:C:/Workspaces/DAVE-4.4.2-64Bit/RoverX/Dave/Generated/SPI_MASTER\spi_master.h ****  *   DAVE_STATUS_t status;
 741:C:/Workspaces/DAVE-4.4.2-64Bit/RoverX/Dave/Generated/SPI_MASTER\spi_master.h ****  *   uint8_t ReadData[10];
 742:C:/Workspaces/DAVE-4.4.2-64Bit/RoverX/Dave/Generated/SPI_MASTER\spi_master.h ****  *   uint8_t SendData[10] = {0x1, 0x2, 0x3, 0x4, 0x5, 0x6, 0x7, 0x8, 0x9, 0xA};
 743:C:/Workspaces/DAVE-4.4.2-64Bit/RoverX/Dave/Generated/SPI_MASTER\spi_master.h ****  *
 744:C:/Workspaces/DAVE-4.4.2-64Bit/RoverX/Dave/Generated/SPI_MASTER\spi_master.h ****  *   status =  DAVE_Init();    // SPI_MASTER_Init() is called from DAVE_Init()
 745:C:/Workspaces/DAVE-4.4.2-64Bit/RoverX/Dave/Generated/SPI_MASTER\spi_master.h ****  *
 746:C:/Workspaces/DAVE-4.4.2-64Bit/RoverX/Dave/Generated/SPI_MASTER\spi_master.h ****  *   if(status == DAVE_STATUS_SUCCESS)
 747:C:/Workspaces/DAVE-4.4.2-64Bit/RoverX/Dave/Generated/SPI_MASTER\spi_master.h ****  *   {
 748:C:/Workspaces/DAVE-4.4.2-64Bit/RoverX/Dave/Generated/SPI_MASTER\spi_master.h ****  *     SPI_MASTER_Transfer(&SPI_MASTER_0, SendData, ReadData, 10);
 749:C:/Workspaces/DAVE-4.4.2-64Bit/RoverX/Dave/Generated/SPI_MASTER\spi_master.h ****  *   }
 750:C:/Workspaces/DAVE-4.4.2-64Bit/RoverX/Dave/Generated/SPI_MASTER\spi_master.h ****  *   else
 751:C:/Workspaces/DAVE-4.4.2-64Bit/RoverX/Dave/Generated/SPI_MASTER\spi_master.h ****  *   {
 752:C:/Workspaces/DAVE-4.4.2-64Bit/RoverX/Dave/Generated/SPI_MASTER\spi_master.h ****  *     XMC_DEBUG("main: Application initialization failed");
 753:C:/Workspaces/DAVE-4.4.2-64Bit/RoverX/Dave/Generated/SPI_MASTER\spi_master.h ****  *     while(1U)
 754:C:/Workspaces/DAVE-4.4.2-64Bit/RoverX/Dave/Generated/SPI_MASTER\spi_master.h ****  *     {
 755:C:/Workspaces/DAVE-4.4.2-64Bit/RoverX/Dave/Generated/SPI_MASTER\spi_master.h ****  *     }
 756:C:/Workspaces/DAVE-4.4.2-64Bit/RoverX/Dave/Generated/SPI_MASTER\spi_master.h ****  *   }
 757:C:/Workspaces/DAVE-4.4.2-64Bit/RoverX/Dave/Generated/SPI_MASTER\spi_master.h ****  *    return 1U;
 758:C:/Workspaces/DAVE-4.4.2-64Bit/RoverX/Dave/Generated/SPI_MASTER\spi_master.h ****  * }
 759:C:/Workspaces/DAVE-4.4.2-64Bit/RoverX/Dave/Generated/SPI_MASTER\spi_master.h ****  * @endcode<BR>
 760:C:/Workspaces/DAVE-4.4.2-64Bit/RoverX/Dave/Generated/SPI_MASTER\spi_master.h ****  */
 761:C:/Workspaces/DAVE-4.4.2-64Bit/RoverX/Dave/Generated/SPI_MASTER\spi_master.h **** SPI_MASTER_STATUS_t SPI_MASTER_Transfer(const SPI_MASTER_t *const handle,
 762:C:/Workspaces/DAVE-4.4.2-64Bit/RoverX/Dave/Generated/SPI_MASTER\spi_master.h ****                                         uint8_t* tx_dataptr,
 763:C:/Workspaces/DAVE-4.4.2-64Bit/RoverX/Dave/Generated/SPI_MASTER\spi_master.h ****                                         uint8_t* rx_dataptr,
 764:C:/Workspaces/DAVE-4.4.2-64Bit/RoverX/Dave/Generated/SPI_MASTER\spi_master.h ****                                         uint32_t count);
 765:C:/Workspaces/DAVE-4.4.2-64Bit/RoverX/Dave/Generated/SPI_MASTER\spi_master.h **** 
 766:C:/Workspaces/DAVE-4.4.2-64Bit/RoverX/Dave/Generated/SPI_MASTER\spi_master.h **** #if (SPI_MASTER_INTERRUPT_RECEIVE_MODE == 1U)
 767:C:/Workspaces/DAVE-4.4.2-64Bit/RoverX/Dave/Generated/SPI_MASTER\spi_master.h **** /**
 768:C:/Workspaces/DAVE-4.4.2-64Bit/RoverX/Dave/Generated/SPI_MASTER\spi_master.h ****  * @brief Receives the specified number of data words and execute the callback defined in GUI, if e
 769:C:/Workspaces/DAVE-4.4.2-64Bit/RoverX/Dave/Generated/SPI_MASTER\spi_master.h ****  *
 770:C:/Workspaces/DAVE-4.4.2-64Bit/RoverX/Dave/Generated/SPI_MASTER\spi_master.h ****  * @param handle Pointer to static and dynamic content of APP configuration.
 771:C:/Workspaces/DAVE-4.4.2-64Bit/RoverX/Dave/Generated/SPI_MASTER\spi_master.h ****  * @param dataptr Pointer to data in which value is written
 772:C:/Workspaces/DAVE-4.4.2-64Bit/RoverX/Dave/Generated/SPI_MASTER\spi_master.h ****  * @param count number of data words (word length configured) to be read
 773:C:/Workspaces/DAVE-4.4.2-64Bit/RoverX/Dave/Generated/SPI_MASTER\spi_master.h ****  *
 774:C:/Workspaces/DAVE-4.4.2-64Bit/RoverX/Dave/Generated/SPI_MASTER\spi_master.h ****  * @return  SPI_MASTER_STATUS_t
 775:C:/Workspaces/DAVE-4.4.2-64Bit/RoverX/Dave/Generated/SPI_MASTER\spi_master.h ****  *          SPI_MASTER_STATUS_SUCCESS : if read is successful\n
 776:C:/Workspaces/DAVE-4.4.2-64Bit/RoverX/Dave/Generated/SPI_MASTER\spi_master.h ****  *          SPI_MASTER_STATUS_BUSY : if SPI channel is busy with other operation
 777:C:/Workspaces/DAVE-4.4.2-64Bit/RoverX/Dave/Generated/SPI_MASTER\spi_master.h ****  *          SPI_MASTER_STATUS_MODE_MISMATCH if receive mode is DMA.
 778:C:/Workspaces/DAVE-4.4.2-64Bit/RoverX/Dave/Generated/SPI_MASTER\spi_master.h ****  * <BR>
 779:C:/Workspaces/DAVE-4.4.2-64Bit/RoverX/Dave/Generated/SPI_MASTER\spi_master.h ****  * \par<b>Description:</b><br>
 780:C:/Workspaces/DAVE-4.4.2-64Bit/RoverX/Dave/Generated/SPI_MASTER\spi_master.h ****  * After receiving the specified number of words (word length configured), the user configured call
 781:C:/Workspaces/DAVE-4.4.2-64Bit/RoverX/Dave/Generated/SPI_MASTER\spi_master.h ****  * is executed, if it is enabled. If a callback function is not configured on the APP UI, the user 
 782:C:/Workspaces/DAVE-4.4.2-64Bit/RoverX/Dave/Generated/SPI_MASTER\spi_master.h ****  * the status of rx_busy variable of the APP handle structure. Based on the UI configuration, eithe
 783:C:/Workspaces/DAVE-4.4.2-64Bit/RoverX/Dave/Generated/SPI_MASTER\spi_master.h ****  * buffer or receive FIFO is used for data reception. An interrupt is configured for received data 
 784:C:/Workspaces/DAVE-4.4.2-64Bit/RoverX/Dave/Generated/SPI_MASTER\spi_master.h ****  * function only registers a request to receive a number of data bytes from a SPI channel. If FIFO 
 785:C:/Workspaces/DAVE-4.4.2-64Bit/RoverX/Dave/Generated/SPI_MASTER\spi_master.h ****  * reception, the FIFO limit is dynamically configured to optimally utilize the CPU load.
 786:C:/Workspaces/DAVE-4.4.2-64Bit/RoverX/Dave/Generated/SPI_MASTER\spi_master.h ****  * <a href="..\group___architecture___description.html#spi_master_receive_irq_flow_chart">Click her
 787:C:/Workspaces/DAVE-4.4.2-64Bit/RoverX/Dave/Generated/SPI_MASTER\spi_master.h ****  *
 788:C:/Workspaces/DAVE-4.4.2-64Bit/RoverX/Dave/Generated/SPI_MASTER\spi_master.h ****  * <BR>
 789:C:/Workspaces/DAVE-4.4.2-64Bit/RoverX/Dave/Generated/SPI_MASTER\spi_master.h ****  *
 790:C:/Workspaces/DAVE-4.4.2-64Bit/RoverX/Dave/Generated/SPI_MASTER\spi_master.h ****  * Example Usage:
 791:C:/Workspaces/DAVE-4.4.2-64Bit/RoverX/Dave/Generated/SPI_MASTER\spi_master.h ****  *
 792:C:/Workspaces/DAVE-4.4.2-64Bit/RoverX/Dave/Generated/SPI_MASTER\spi_master.h ****  * @code
 793:C:/Workspaces/DAVE-4.4.2-64Bit/RoverX/Dave/Generated/SPI_MASTER\spi_master.h ****  * #include "DAVE.h"
 794:C:/Workspaces/DAVE-4.4.2-64Bit/RoverX/Dave/Generated/SPI_MASTER\spi_master.h ****  *
 795:C:/Workspaces/DAVE-4.4.2-64Bit/RoverX/Dave/Generated/SPI_MASTER\spi_master.h ****  * int main(void)
 796:C:/Workspaces/DAVE-4.4.2-64Bit/RoverX/Dave/Generated/SPI_MASTER\spi_master.h ****  * {
 797:C:/Workspaces/DAVE-4.4.2-64Bit/RoverX/Dave/Generated/SPI_MASTER\spi_master.h ****  *   DAVE_STATUS_t status;
 798:C:/Workspaces/DAVE-4.4.2-64Bit/RoverX/Dave/Generated/SPI_MASTER\spi_master.h ****  *   uint8_t ReadData[10];
 799:C:/Workspaces/DAVE-4.4.2-64Bit/RoverX/Dave/Generated/SPI_MASTER\spi_master.h ****  *
 800:C:/Workspaces/DAVE-4.4.2-64Bit/RoverX/Dave/Generated/SPI_MASTER\spi_master.h ****  *   status =  DAVE_Init();    // SPI_MASTER_Init() is called from DAVE_Init()
 801:C:/Workspaces/DAVE-4.4.2-64Bit/RoverX/Dave/Generated/SPI_MASTER\spi_master.h ****  *   if(status == DAVE_STATUS_SUCCESS)
 802:C:/Workspaces/DAVE-4.4.2-64Bit/RoverX/Dave/Generated/SPI_MASTER\spi_master.h ****  *   {
 803:C:/Workspaces/DAVE-4.4.2-64Bit/RoverX/Dave/Generated/SPI_MASTER\spi_master.h ****  *     if(SPI_MASTER_StartReceiveIRQ(&SPI_MASTER_0, ReadData, 10U))
 804:C:/Workspaces/DAVE-4.4.2-64Bit/RoverX/Dave/Generated/SPI_MASTER\spi_master.h ****  *     {
 805:C:/Workspaces/DAVE-4.4.2-64Bit/RoverX/Dave/Generated/SPI_MASTER\spi_master.h ****  *       while(SPI_MASTER_0.runtime->rx_busy)
 806:C:/Workspaces/DAVE-4.4.2-64Bit/RoverX/Dave/Generated/SPI_MASTER\spi_master.h ****  *       {
 807:C:/Workspaces/DAVE-4.4.2-64Bit/RoverX/Dave/Generated/SPI_MASTER\spi_master.h ****  *       }
 808:C:/Workspaces/DAVE-4.4.2-64Bit/RoverX/Dave/Generated/SPI_MASTER\spi_master.h ****  *       SPI_MASTER_Transmit(&SPI_MASTER_0, ReadData, 10U);
 809:C:/Workspaces/DAVE-4.4.2-64Bit/RoverX/Dave/Generated/SPI_MASTER\spi_master.h ****  *     }
 810:C:/Workspaces/DAVE-4.4.2-64Bit/RoverX/Dave/Generated/SPI_MASTER\spi_master.h ****  *   }
 811:C:/Workspaces/DAVE-4.4.2-64Bit/RoverX/Dave/Generated/SPI_MASTER\spi_master.h ****  *   else
 812:C:/Workspaces/DAVE-4.4.2-64Bit/RoverX/Dave/Generated/SPI_MASTER\spi_master.h ****  *   {
 813:C:/Workspaces/DAVE-4.4.2-64Bit/RoverX/Dave/Generated/SPI_MASTER\spi_master.h ****  *    XMC_DEBUG("main: Application initialization failed");
 814:C:/Workspaces/DAVE-4.4.2-64Bit/RoverX/Dave/Generated/SPI_MASTER\spi_master.h ****  *    while(1U)
 815:C:/Workspaces/DAVE-4.4.2-64Bit/RoverX/Dave/Generated/SPI_MASTER\spi_master.h ****  *    {
 816:C:/Workspaces/DAVE-4.4.2-64Bit/RoverX/Dave/Generated/SPI_MASTER\spi_master.h ****  *    }
 817:C:/Workspaces/DAVE-4.4.2-64Bit/RoverX/Dave/Generated/SPI_MASTER\spi_master.h ****  *   }
 818:C:/Workspaces/DAVE-4.4.2-64Bit/RoverX/Dave/Generated/SPI_MASTER\spi_master.h ****  *    return 1U;
 819:C:/Workspaces/DAVE-4.4.2-64Bit/RoverX/Dave/Generated/SPI_MASTER\spi_master.h ****  * }
 820:C:/Workspaces/DAVE-4.4.2-64Bit/RoverX/Dave/Generated/SPI_MASTER\spi_master.h ****  * @endcode<BR>
 821:C:/Workspaces/DAVE-4.4.2-64Bit/RoverX/Dave/Generated/SPI_MASTER\spi_master.h ****  */
 822:C:/Workspaces/DAVE-4.4.2-64Bit/RoverX/Dave/Generated/SPI_MASTER\spi_master.h **** SPI_MASTER_STATUS_t SPI_MASTER_StartReceiveIRQ(const SPI_MASTER_t *const handle, uint8_t* dataptr, 
 823:C:/Workspaces/DAVE-4.4.2-64Bit/RoverX/Dave/Generated/SPI_MASTER\spi_master.h **** #endif
 824:C:/Workspaces/DAVE-4.4.2-64Bit/RoverX/Dave/Generated/SPI_MASTER\spi_master.h **** 
 825:C:/Workspaces/DAVE-4.4.2-64Bit/RoverX/Dave/Generated/SPI_MASTER\spi_master.h **** #if(SPI_MASTER_INTERRUPT_TRANSMIT_MODE == 1U)
 826:C:/Workspaces/DAVE-4.4.2-64Bit/RoverX/Dave/Generated/SPI_MASTER\spi_master.h **** /**
 827:C:/Workspaces/DAVE-4.4.2-64Bit/RoverX/Dave/Generated/SPI_MASTER\spi_master.h ****  * @brief Transmits the specified number of data words and execute the callback defined in GUI, if 
 828:C:/Workspaces/DAVE-4.4.2-64Bit/RoverX/Dave/Generated/SPI_MASTER\spi_master.h ****  *
 829:C:/Workspaces/DAVE-4.4.2-64Bit/RoverX/Dave/Generated/SPI_MASTER\spi_master.h ****  * @param handle Pointer to static and dynamic content of APP configuration.
 830:C:/Workspaces/DAVE-4.4.2-64Bit/RoverX/Dave/Generated/SPI_MASTER\spi_master.h ****  * @param dataptr Pointer to data
 831:C:/Workspaces/DAVE-4.4.2-64Bit/RoverX/Dave/Generated/SPI_MASTER\spi_master.h ****  * @param count number of data words (word length configured) to be transmitted
 832:C:/Workspaces/DAVE-4.4.2-64Bit/RoverX/Dave/Generated/SPI_MASTER\spi_master.h ****  *
 833:C:/Workspaces/DAVE-4.4.2-64Bit/RoverX/Dave/Generated/SPI_MASTER\spi_master.h ****  * @return  SPI_MASTER_STATUS_t
 834:C:/Workspaces/DAVE-4.4.2-64Bit/RoverX/Dave/Generated/SPI_MASTER\spi_master.h ****  *          SPI_MASTER_STATUS_SUCCESS : if transmit is successful\n
 835:C:/Workspaces/DAVE-4.4.2-64Bit/RoverX/Dave/Generated/SPI_MASTER\spi_master.h ****  *          SPI_MASTER_STATUS_BUSY : if SPI channel is busy with other operation
 836:C:/Workspaces/DAVE-4.4.2-64Bit/RoverX/Dave/Generated/SPI_MASTER\spi_master.h ****  *          SPI_MASTER_STATUS_BUFFER_INVALID : if the data_ptr is NULL or count is 0. \n
 837:C:/Workspaces/DAVE-4.4.2-64Bit/RoverX/Dave/Generated/SPI_MASTER\spi_master.h ****  *          SPI_MASTER_STATUS_MODE_MISMATCH : if transmit mode is DMA.
 838:C:/Workspaces/DAVE-4.4.2-64Bit/RoverX/Dave/Generated/SPI_MASTER\spi_master.h ****  * <BR>
 839:C:/Workspaces/DAVE-4.4.2-64Bit/RoverX/Dave/Generated/SPI_MASTER\spi_master.h ****  *
 840:C:/Workspaces/DAVE-4.4.2-64Bit/RoverX/Dave/Generated/SPI_MASTER\spi_master.h ****  * \par<b>Description:</b><br>
 841:C:/Workspaces/DAVE-4.4.2-64Bit/RoverX/Dave/Generated/SPI_MASTER\spi_master.h ****  * The data transmission is accomplished using transmit interrupt. After transmitting the total dat
 842:C:/Workspaces/DAVE-4.4.2-64Bit/RoverX/Dave/Generated/SPI_MASTER\spi_master.h ****  * function is executed. If transmit FIFO is enabled, the trigger limit is set to 1. So the transmi
 843:C:/Workspaces/DAVE-4.4.2-64Bit/RoverX/Dave/Generated/SPI_MASTER\spi_master.h ****  * generated when all the data in FIFO is moved from FIFO. The function uses APP handle's dynamic s
 844:C:/Workspaces/DAVE-4.4.2-64Bit/RoverX/Dave/Generated/SPI_MASTER\spi_master.h ****  * the data pointer, count, data index and status of transmission. This function only registers a d
 845:C:/Workspaces/DAVE-4.4.2-64Bit/RoverX/Dave/Generated/SPI_MASTER\spi_master.h ****  * request if there is no active transmission in progress. Actual data transmission happens in the 
 846:C:/Workspaces/DAVE-4.4.2-64Bit/RoverX/Dave/Generated/SPI_MASTER\spi_master.h ****  * service routine. A trigger is generated for the transmit interrupt to start loading the data. If
 847:C:/Workspaces/DAVE-4.4.2-64Bit/RoverX/Dave/Generated/SPI_MASTER\spi_master.h ****  * configured, the data is filled into the FIFO with trigger limit set to 1. Transmit interrupt wil
 848:C:/Workspaces/DAVE-4.4.2-64Bit/RoverX/Dave/Generated/SPI_MASTER\spi_master.h ****  * when the transmit FIFO is empty. At this point of time, if there is some more data to be transmi
 849:C:/Workspaces/DAVE-4.4.2-64Bit/RoverX/Dave/Generated/SPI_MASTER\spi_master.h ****  * to the FIFO again. When FIFO is not enabled, data is transmitted one byte at a time. On transmis
 850:C:/Workspaces/DAVE-4.4.2-64Bit/RoverX/Dave/Generated/SPI_MASTER\spi_master.h ****  * an interrupt is generated and the next byte is transmitted in the interrupt service routine.
 851:C:/Workspaces/DAVE-4.4.2-64Bit/RoverX/Dave/Generated/SPI_MASTER\spi_master.h ****  * <a href="..\group___architecture___description.html#spi_master_transmit_irq_flow_chart">Click he
 852:C:/Workspaces/DAVE-4.4.2-64Bit/RoverX/Dave/Generated/SPI_MASTER\spi_master.h ****  *
 853:C:/Workspaces/DAVE-4.4.2-64Bit/RoverX/Dave/Generated/SPI_MASTER\spi_master.h ****  * Example Usage:
 854:C:/Workspaces/DAVE-4.4.2-64Bit/RoverX/Dave/Generated/SPI_MASTER\spi_master.h ****  * <BR>
 855:C:/Workspaces/DAVE-4.4.2-64Bit/RoverX/Dave/Generated/SPI_MASTER\spi_master.h ****  * @code
 856:C:/Workspaces/DAVE-4.4.2-64Bit/RoverX/Dave/Generated/SPI_MASTER\spi_master.h ****  * #include "DAVE.h"
 857:C:/Workspaces/DAVE-4.4.2-64Bit/RoverX/Dave/Generated/SPI_MASTER\spi_master.h ****  *
 858:C:/Workspaces/DAVE-4.4.2-64Bit/RoverX/Dave/Generated/SPI_MASTER\spi_master.h ****  * //Pre-condition:
 859:C:/Workspaces/DAVE-4.4.2-64Bit/RoverX/Dave/Generated/SPI_MASTER\spi_master.h ****  * //Transmit mode should be configured as "Interrupt".
 860:C:/Workspaces/DAVE-4.4.2-64Bit/RoverX/Dave/Generated/SPI_MASTER\spi_master.h ****  * //Description:
 861:C:/Workspaces/DAVE-4.4.2-64Bit/RoverX/Dave/Generated/SPI_MASTER\spi_master.h ****  * //Transmits "Infineon" data to slave.
 862:C:/Workspaces/DAVE-4.4.2-64Bit/RoverX/Dave/Generated/SPI_MASTER\spi_master.h ****  *
 863:C:/Workspaces/DAVE-4.4.2-64Bit/RoverX/Dave/Generated/SPI_MASTER\spi_master.h ****  * int main(void)
 864:C:/Workspaces/DAVE-4.4.2-64Bit/RoverX/Dave/Generated/SPI_MASTER\spi_master.h ****  * {
 865:C:/Workspaces/DAVE-4.4.2-64Bit/RoverX/Dave/Generated/SPI_MASTER\spi_master.h ****  *   DAVE_STATUS_t status;
 866:C:/Workspaces/DAVE-4.4.2-64Bit/RoverX/Dave/Generated/SPI_MASTER\spi_master.h ****  *
 867:C:/Workspaces/DAVE-4.4.2-64Bit/RoverX/Dave/Generated/SPI_MASTER\spi_master.h ****  *   uint8_t Send_Data[] = "Infineon";
 868:C:/Workspaces/DAVE-4.4.2-64Bit/RoverX/Dave/Generated/SPI_MASTER\spi_master.h ****  *
 869:C:/Workspaces/DAVE-4.4.2-64Bit/RoverX/Dave/Generated/SPI_MASTER\spi_master.h ****  *   status = DAVE_Init();    // SPI_MASTER_Init() is called from DAVE_Init()
 870:C:/Workspaces/DAVE-4.4.2-64Bit/RoverX/Dave/Generated/SPI_MASTER\spi_master.h ****  *   if(status == DAVE_STATUS_SUCCESS)
 871:C:/Workspaces/DAVE-4.4.2-64Bit/RoverX/Dave/Generated/SPI_MASTER\spi_master.h ****  *   {
 872:C:/Workspaces/DAVE-4.4.2-64Bit/RoverX/Dave/Generated/SPI_MASTER\spi_master.h ****  *     if(SPI_MASTER_StartTransmitIRQ(&SPI_MASTER_0, Send_Data, sizeof(Send_Data)) == SPI_MASTER_ST
 873:C:/Workspaces/DAVE-4.4.2-64Bit/RoverX/Dave/Generated/SPI_MASTER\spi_master.h ****  *     {
 874:C:/Workspaces/DAVE-4.4.2-64Bit/RoverX/Dave/Generated/SPI_MASTER\spi_master.h ****  *       while(SPI_MASTER_0.runtime->tx_busy)
 875:C:/Workspaces/DAVE-4.4.2-64Bit/RoverX/Dave/Generated/SPI_MASTER\spi_master.h ****  *       {
 876:C:/Workspaces/DAVE-4.4.2-64Bit/RoverX/Dave/Generated/SPI_MASTER\spi_master.h ****  *       }
 877:C:/Workspaces/DAVE-4.4.2-64Bit/RoverX/Dave/Generated/SPI_MASTER\spi_master.h ****  *     }
 878:C:/Workspaces/DAVE-4.4.2-64Bit/RoverX/Dave/Generated/SPI_MASTER\spi_master.h ****  *   }
 879:C:/Workspaces/DAVE-4.4.2-64Bit/RoverX/Dave/Generated/SPI_MASTER\spi_master.h ****  *   else
 880:C:/Workspaces/DAVE-4.4.2-64Bit/RoverX/Dave/Generated/SPI_MASTER\spi_master.h ****  *   {
 881:C:/Workspaces/DAVE-4.4.2-64Bit/RoverX/Dave/Generated/SPI_MASTER\spi_master.h ****  *    XMC_DEBUG("main: Application initialization failed");
 882:C:/Workspaces/DAVE-4.4.2-64Bit/RoverX/Dave/Generated/SPI_MASTER\spi_master.h ****  *    while(1U)
 883:C:/Workspaces/DAVE-4.4.2-64Bit/RoverX/Dave/Generated/SPI_MASTER\spi_master.h ****  *    {
 884:C:/Workspaces/DAVE-4.4.2-64Bit/RoverX/Dave/Generated/SPI_MASTER\spi_master.h ****  *    }
 885:C:/Workspaces/DAVE-4.4.2-64Bit/RoverX/Dave/Generated/SPI_MASTER\spi_master.h ****  *   }
 886:C:/Workspaces/DAVE-4.4.2-64Bit/RoverX/Dave/Generated/SPI_MASTER\spi_master.h ****  *    return 1U;
 887:C:/Workspaces/DAVE-4.4.2-64Bit/RoverX/Dave/Generated/SPI_MASTER\spi_master.h ****  * }
 888:C:/Workspaces/DAVE-4.4.2-64Bit/RoverX/Dave/Generated/SPI_MASTER\spi_master.h ****  * @endcode<BR> </p>
 889:C:/Workspaces/DAVE-4.4.2-64Bit/RoverX/Dave/Generated/SPI_MASTER\spi_master.h ****  *
 890:C:/Workspaces/DAVE-4.4.2-64Bit/RoverX/Dave/Generated/SPI_MASTER\spi_master.h ****  */
 891:C:/Workspaces/DAVE-4.4.2-64Bit/RoverX/Dave/Generated/SPI_MASTER\spi_master.h **** SPI_MASTER_STATUS_t SPI_MASTER_StartTransmitIRQ(const SPI_MASTER_t *const handle, uint8_t *addr, ui
 892:C:/Workspaces/DAVE-4.4.2-64Bit/RoverX/Dave/Generated/SPI_MASTER\spi_master.h **** #endif
 893:C:/Workspaces/DAVE-4.4.2-64Bit/RoverX/Dave/Generated/SPI_MASTER\spi_master.h **** 
 894:C:/Workspaces/DAVE-4.4.2-64Bit/RoverX/Dave/Generated/SPI_MASTER\spi_master.h **** 
 895:C:/Workspaces/DAVE-4.4.2-64Bit/RoverX/Dave/Generated/SPI_MASTER\spi_master.h **** #if(SPI_MASTER_DMA_RECEIVE_MODE == 1U)
 896:C:/Workspaces/DAVE-4.4.2-64Bit/RoverX/Dave/Generated/SPI_MASTER\spi_master.h **** /**
 897:C:/Workspaces/DAVE-4.4.2-64Bit/RoverX/Dave/Generated/SPI_MASTER\spi_master.h ****  * @brief Registers a request for receiving data over SPI_MASTER channel using DMA.
 898:C:/Workspaces/DAVE-4.4.2-64Bit/RoverX/Dave/Generated/SPI_MASTER\spi_master.h ****  *
 899:C:/Workspaces/DAVE-4.4.2-64Bit/RoverX/Dave/Generated/SPI_MASTER\spi_master.h ****  *
 900:C:/Workspaces/DAVE-4.4.2-64Bit/RoverX/Dave/Generated/SPI_MASTER\spi_master.h ****  * @param  handle  Pointer to SPI_MASTER_t handle structure
 901:C:/Workspaces/DAVE-4.4.2-64Bit/RoverX/Dave/Generated/SPI_MASTER\spi_master.h ****  * @param data_ptr  Pointer to data of type uint8_t.
 902:C:/Workspaces/DAVE-4.4.2-64Bit/RoverX/Dave/Generated/SPI_MASTER\spi_master.h ****  * @param  count  Total no of bytes to be received.\n
 903:C:/Workspaces/DAVE-4.4.2-64Bit/RoverX/Dave/Generated/SPI_MASTER\spi_master.h ****  *                \b Range: minimum= 1, maximum= 4096.
 904:C:/Workspaces/DAVE-4.4.2-64Bit/RoverX/Dave/Generated/SPI_MASTER\spi_master.h ****  *
 905:C:/Workspaces/DAVE-4.4.2-64Bit/RoverX/Dave/Generated/SPI_MASTER\spi_master.h ****  * @return  SPI_MASTER_STATUS_t: Status for receive request.\n
 906:C:/Workspaces/DAVE-4.4.2-64Bit/RoverX/Dave/Generated/SPI_MASTER\spi_master.h ****  *                        @ref SPI_MASTER_STATUS_SUCCESS if the request is accepted.\n
 907:C:/Workspaces/DAVE-4.4.2-64Bit/RoverX/Dave/Generated/SPI_MASTER\spi_master.h ****  *                        @ref SPI_MASTER_STATUS_BUSY if a reception is in progress.\n
 908:C:/Workspaces/DAVE-4.4.2-64Bit/RoverX/Dave/Generated/SPI_MASTER\spi_master.h ****  *                        @ref SPI_MASTER_STATUS_BUFFER_INVALID if the data_ptr is NULL or count is
 909:C:/Workspaces/DAVE-4.4.2-64Bit/RoverX/Dave/Generated/SPI_MASTER\spi_master.h ****  *                        @ref SPI_MASTER_STATUS_MODE_MISMATCH : if receive mode is Interrupt \n
 910:C:/Workspaces/DAVE-4.4.2-64Bit/RoverX/Dave/Generated/SPI_MASTER\spi_master.h ****  *
 911:C:/Workspaces/DAVE-4.4.2-64Bit/RoverX/Dave/Generated/SPI_MASTER\spi_master.h ****  *
 912:C:/Workspaces/DAVE-4.4.2-64Bit/RoverX/Dave/Generated/SPI_MASTER\spi_master.h ****  * \par<b>Description:</b><br>
 913:C:/Workspaces/DAVE-4.4.2-64Bit/RoverX/Dave/Generated/SPI_MASTER\spi_master.h ****  * Data will be received asynchronously. When the requested number of data bytes are received,
 914:C:/Workspaces/DAVE-4.4.2-64Bit/RoverX/Dave/Generated/SPI_MASTER\spi_master.h ****  * optionally, the user configured callback function will be executed.
 915:C:/Workspaces/DAVE-4.4.2-64Bit/RoverX/Dave/Generated/SPI_MASTER\spi_master.h ****  * This function only registers a request to receive a number of data bytes from a USIC channel.
 916:C:/Workspaces/DAVE-4.4.2-64Bit/RoverX/Dave/Generated/SPI_MASTER\spi_master.h ****  * When all the requested number of data bytes are received, the configured callback
 917:C:/Workspaces/DAVE-4.4.2-64Bit/RoverX/Dave/Generated/SPI_MASTER\spi_master.h ****  * function will be executed.
 918:C:/Workspaces/DAVE-4.4.2-64Bit/RoverX/Dave/Generated/SPI_MASTER\spi_master.h ****  * If a callback function is not configured, the user has to poll for the value of the
 919:C:/Workspaces/DAVE-4.4.2-64Bit/RoverX/Dave/Generated/SPI_MASTER\spi_master.h ****  * variable, \a handle->runtime->rx_busy to be false. The value is updated to \a false when all the
 920:C:/Workspaces/DAVE-4.4.2-64Bit/RoverX/Dave/Generated/SPI_MASTER\spi_master.h ****  * requested number of data bytes are received.
 921:C:/Workspaces/DAVE-4.4.2-64Bit/RoverX/Dave/Generated/SPI_MASTER\spi_master.h ****  * A maximum of 4096 bytes can be received in one API call. This limit is because of the DMA single
 922:C:/Workspaces/DAVE-4.4.2-64Bit/RoverX/Dave/Generated/SPI_MASTER\spi_master.h ****  * <a href="..\group___architecture___description.html#spi_master_receive_dma_flow_chart">Click her
 923:C:/Workspaces/DAVE-4.4.2-64Bit/RoverX/Dave/Generated/SPI_MASTER\spi_master.h ****  *
 924:C:/Workspaces/DAVE-4.4.2-64Bit/RoverX/Dave/Generated/SPI_MASTER\spi_master.h ****  *
 925:C:/Workspaces/DAVE-4.4.2-64Bit/RoverX/Dave/Generated/SPI_MASTER\spi_master.h ****  * Example Usage:
 926:C:/Workspaces/DAVE-4.4.2-64Bit/RoverX/Dave/Generated/SPI_MASTER\spi_master.h ****  * @code
 927:C:/Workspaces/DAVE-4.4.2-64Bit/RoverX/Dave/Generated/SPI_MASTER\spi_master.h ****  *   #include "DAVE.h"         //Declarations from DAVE Code Generation (includes SFR declaration)
 928:C:/Workspaces/DAVE-4.4.2-64Bit/RoverX/Dave/Generated/SPI_MASTER\spi_master.h ****  *
 929:C:/Workspaces/DAVE-4.4.2-64Bit/RoverX/Dave/Generated/SPI_MASTER\spi_master.h ****  *   //Pre condition:
 930:C:/Workspaces/DAVE-4.4.2-64Bit/RoverX/Dave/Generated/SPI_MASTER\spi_master.h ****  *   //Receive mode should be configured to "DMA"
 931:C:/Workspaces/DAVE-4.4.2-64Bit/RoverX/Dave/Generated/SPI_MASTER\spi_master.h ****  *   //Description: Receive 10 bytes from slave.
 932:C:/Workspaces/DAVE-4.4.2-64Bit/RoverX/Dave/Generated/SPI_MASTER\spi_master.h ****  *
 933:C:/Workspaces/DAVE-4.4.2-64Bit/RoverX/Dave/Generated/SPI_MASTER\spi_master.h ****  *
 934:C:/Workspaces/DAVE-4.4.2-64Bit/RoverX/Dave/Generated/SPI_MASTER\spi_master.h ****  *   int main(void)
 935:C:/Workspaces/DAVE-4.4.2-64Bit/RoverX/Dave/Generated/SPI_MASTER\spi_master.h ****  *   {
 936:C:/Workspaces/DAVE-4.4.2-64Bit/RoverX/Dave/Generated/SPI_MASTER\spi_master.h ****  *     SPI_MASTER_STATUS_t init_status;
 937:C:/Workspaces/DAVE-4.4.2-64Bit/RoverX/Dave/Generated/SPI_MASTER\spi_master.h ****  *     uint8_t ReadData[10];
 938:C:/Workspaces/DAVE-4.4.2-64Bit/RoverX/Dave/Generated/SPI_MASTER\spi_master.h ****  *
 939:C:/Workspaces/DAVE-4.4.2-64Bit/RoverX/Dave/Generated/SPI_MASTER\spi_master.h ****  *     init_status = (SPI_MASTER_STATUS_t)SPI_MASTER_Init(&SPI_MASTER_0);
 940:C:/Workspaces/DAVE-4.4.2-64Bit/RoverX/Dave/Generated/SPI_MASTER\spi_master.h ****  *     if(init_status == SPI_MASTER_STATUS_SUCCESS)
 941:C:/Workspaces/DAVE-4.4.2-64Bit/RoverX/Dave/Generated/SPI_MASTER\spi_master.h ****  *     {
 942:C:/Workspaces/DAVE-4.4.2-64Bit/RoverX/Dave/Generated/SPI_MASTER\spi_master.h ****  *       if(SPI_MASTER_StartReceiveDMA(&SPI_MASTER_0, ReadData, 10) == SPI_MASTER_STATUS_SUCCESS)
 943:C:/Workspaces/DAVE-4.4.2-64Bit/RoverX/Dave/Generated/SPI_MASTER\spi_master.h ****  *       {
 944:C:/Workspaces/DAVE-4.4.2-64Bit/RoverX/Dave/Generated/SPI_MASTER\spi_master.h ****  *         while(SPI_MASTER_0.runtime->rx_busy)
 945:C:/Workspaces/DAVE-4.4.2-64Bit/RoverX/Dave/Generated/SPI_MASTER\spi_master.h ****  *         {
 946:C:/Workspaces/DAVE-4.4.2-64Bit/RoverX/Dave/Generated/SPI_MASTER\spi_master.h ****  *         }
 947:C:/Workspaces/DAVE-4.4.2-64Bit/RoverX/Dave/Generated/SPI_MASTER\spi_master.h ****  *       }
 948:C:/Workspaces/DAVE-4.4.2-64Bit/RoverX/Dave/Generated/SPI_MASTER\spi_master.h ****  *     }
 949:C:/Workspaces/DAVE-4.4.2-64Bit/RoverX/Dave/Generated/SPI_MASTER\spi_master.h ****  *     else
 950:C:/Workspaces/DAVE-4.4.2-64Bit/RoverX/Dave/Generated/SPI_MASTER\spi_master.h ****  *     {
 951:C:/Workspaces/DAVE-4.4.2-64Bit/RoverX/Dave/Generated/SPI_MASTER\spi_master.h ****  *      XMC_DEBUG("main: Application initialization failed");
 952:C:/Workspaces/DAVE-4.4.2-64Bit/RoverX/Dave/Generated/SPI_MASTER\spi_master.h ****  *      while(1U)
 953:C:/Workspaces/DAVE-4.4.2-64Bit/RoverX/Dave/Generated/SPI_MASTER\spi_master.h ****  *      {
 954:C:/Workspaces/DAVE-4.4.2-64Bit/RoverX/Dave/Generated/SPI_MASTER\spi_master.h ****  *      }
 955:C:/Workspaces/DAVE-4.4.2-64Bit/RoverX/Dave/Generated/SPI_MASTER\spi_master.h ****  *     }
 956:C:/Workspaces/DAVE-4.4.2-64Bit/RoverX/Dave/Generated/SPI_MASTER\spi_master.h ****  *      return 1U;
 957:C:/Workspaces/DAVE-4.4.2-64Bit/RoverX/Dave/Generated/SPI_MASTER\spi_master.h ****  *  }
 958:C:/Workspaces/DAVE-4.4.2-64Bit/RoverX/Dave/Generated/SPI_MASTER\spi_master.h ****  *  @endcode
 959:C:/Workspaces/DAVE-4.4.2-64Bit/RoverX/Dave/Generated/SPI_MASTER\spi_master.h ****  *
 960:C:/Workspaces/DAVE-4.4.2-64Bit/RoverX/Dave/Generated/SPI_MASTER\spi_master.h ****  */
 961:C:/Workspaces/DAVE-4.4.2-64Bit/RoverX/Dave/Generated/SPI_MASTER\spi_master.h **** SPI_MASTER_STATUS_t SPI_MASTER_StartReceiveDMA(const SPI_MASTER_t  *const handle, uint8_t *addr, ui
 962:C:/Workspaces/DAVE-4.4.2-64Bit/RoverX/Dave/Generated/SPI_MASTER\spi_master.h **** #endif
 963:C:/Workspaces/DAVE-4.4.2-64Bit/RoverX/Dave/Generated/SPI_MASTER\spi_master.h **** 
 964:C:/Workspaces/DAVE-4.4.2-64Bit/RoverX/Dave/Generated/SPI_MASTER\spi_master.h **** #if(SPI_MASTER_DMA_TRANSMIT_MODE == 1U)
 965:C:/Workspaces/DAVE-4.4.2-64Bit/RoverX/Dave/Generated/SPI_MASTER\spi_master.h **** /**
 966:C:/Workspaces/DAVE-4.4.2-64Bit/RoverX/Dave/Generated/SPI_MASTER\spi_master.h ****  * @brief Registers a request for transmitting data over SPI_MASTER channel using DMA.
 967:C:/Workspaces/DAVE-4.4.2-64Bit/RoverX/Dave/Generated/SPI_MASTER\spi_master.h ****  *
 968:C:/Workspaces/DAVE-4.4.2-64Bit/RoverX/Dave/Generated/SPI_MASTER\spi_master.h ****  * @param  handle  SPI_MASTER APP handle pointer of type @ref SPI_MASTER_t
 969:C:/Workspaces/DAVE-4.4.2-64Bit/RoverX/Dave/Generated/SPI_MASTER\spi_master.h ****  * @param  data_ptr Pointer to data of type uint8_t.
 970:C:/Workspaces/DAVE-4.4.2-64Bit/RoverX/Dave/Generated/SPI_MASTER\spi_master.h ****  * @param  count Total number of words to be transmitted.\n
 971:C:/Workspaces/DAVE-4.4.2-64Bit/RoverX/Dave/Generated/SPI_MASTER\spi_master.h ****  * \b Range: minimum= 1, maximum= 4096.
 972:C:/Workspaces/DAVE-4.4.2-64Bit/RoverX/Dave/Generated/SPI_MASTER\spi_master.h ****  *
 973:C:/Workspaces/DAVE-4.4.2-64Bit/RoverX/Dave/Generated/SPI_MASTER\spi_master.h ****  * @return  SPI_MASTER_STATUS_t: Status of transmit request.\n
 974:C:/Workspaces/DAVE-4.4.2-64Bit/RoverX/Dave/Generated/SPI_MASTER\spi_master.h ****  *                        @ref SPI_MASTER_STATUS_SUCCESS if the request is accepted.\n
 975:C:/Workspaces/DAVE-4.4.2-64Bit/RoverX/Dave/Generated/SPI_MASTER\spi_master.h ****  *                        @ref SPI_MASTER_STATUS_BUSY if a transmission is in progress.\n
 976:C:/Workspaces/DAVE-4.4.2-64Bit/RoverX/Dave/Generated/SPI_MASTER\spi_master.h ****  *                        @ref SPI_MASTER__STATUS_BUFFER_INVALID if the data_ptr is NULL or count i
 977:C:/Workspaces/DAVE-4.4.2-64Bit/RoverX/Dave/Generated/SPI_MASTER\spi_master.h ****  *                        @ref SPI_MASTER_STATUS_MODE_MISMATCH : if transmit mode is Interrupt \n
 978:C:/Workspaces/DAVE-4.4.2-64Bit/RoverX/Dave/Generated/SPI_MASTER\spi_master.h ****  *
 979:C:/Workspaces/DAVE-4.4.2-64Bit/RoverX/Dave/Generated/SPI_MASTER\spi_master.h ****  * <i>Imp Note:</i> Return value should be validated by user to ensure that the
 980:C:/Workspaces/DAVE-4.4.2-64Bit/RoverX/Dave/Generated/SPI_MASTER\spi_master.h ****  * request is registered.
 981:C:/Workspaces/DAVE-4.4.2-64Bit/RoverX/Dave/Generated/SPI_MASTER\spi_master.h ****  *
 982:C:/Workspaces/DAVE-4.4.2-64Bit/RoverX/Dave/Generated/SPI_MASTER\spi_master.h ****  * \par<b>Description:</b><br>
 983:C:/Workspaces/DAVE-4.4.2-64Bit/RoverX/Dave/Generated/SPI_MASTER\spi_master.h ****  * The data transmission is accomplished using DMA. User can configure a callback function in the A
 984:C:/Workspaces/DAVE-4.4.2-64Bit/RoverX/Dave/Generated/SPI_MASTER\spi_master.h ****  * is fully transmitted, the callback function will be executed.
 985:C:/Workspaces/DAVE-4.4.2-64Bit/RoverX/Dave/Generated/SPI_MASTER\spi_master.h ****  * The function uses APP handle's runtime structure to store the status of transmission.
 986:C:/Workspaces/DAVE-4.4.2-64Bit/RoverX/Dave/Generated/SPI_MASTER\spi_master.h ****  * This function only registers a data transmission request, if there is no active transmission in 
 987:C:/Workspaces/DAVE-4.4.2-64Bit/RoverX/Dave/Generated/SPI_MASTER\spi_master.h ****  * data transmission happens through DMA channel. A maximum of 4095 bytes can be transmitted in one
 988:C:/Workspaces/DAVE-4.4.2-64Bit/RoverX/Dave/Generated/SPI_MASTER\spi_master.h ****  * is because of the DMA single block size. Callback function is executed when all the data bytes a
 989:C:/Workspaces/DAVE-4.4.2-64Bit/RoverX/Dave/Generated/SPI_MASTER\spi_master.h ****  * If a callback function is not configured, user has to poll for the value of \a tx_busy flag of
 990:C:/Workspaces/DAVE-4.4.2-64Bit/RoverX/Dave/Generated/SPI_MASTER\spi_master.h ****  * the APP handle structure( \a handle->runtime->tx_busy ) to check for the completion of data tran
 991:C:/Workspaces/DAVE-4.4.2-64Bit/RoverX/Dave/Generated/SPI_MASTER\spi_master.h ****  * If data more than the block size of 4095 have to be transmitted, user will have to transmit them
 992:C:/Workspaces/DAVE-4.4.2-64Bit/RoverX/Dave/Generated/SPI_MASTER\spi_master.h ****  * multiple calls to this API.
 993:C:/Workspaces/DAVE-4.4.2-64Bit/RoverX/Dave/Generated/SPI_MASTER\spi_master.h ****  * <a href="..\group___architecture___description.html#spi_master_transmit_dma_flow_chart">Click he
 994:C:/Workspaces/DAVE-4.4.2-64Bit/RoverX/Dave/Generated/SPI_MASTER\spi_master.h ****  *
 995:C:/Workspaces/DAVE-4.4.2-64Bit/RoverX/Dave/Generated/SPI_MASTER\spi_master.h ****  * Example Usage:
 996:C:/Workspaces/DAVE-4.4.2-64Bit/RoverX/Dave/Generated/SPI_MASTER\spi_master.h ****  * @code
 997:C:/Workspaces/DAVE-4.4.2-64Bit/RoverX/Dave/Generated/SPI_MASTER\spi_master.h ****  *   #include "DAVE.h"         //Declarations from DAVE Code Generation (includes SFR declaration)
 998:C:/Workspaces/DAVE-4.4.2-64Bit/RoverX/Dave/Generated/SPI_MASTER\spi_master.h ****  *
 999:C:/Workspaces/DAVE-4.4.2-64Bit/RoverX/Dave/Generated/SPI_MASTER\spi_master.h ****  *   //Pre-condition:
1000:C:/Workspaces/DAVE-4.4.2-64Bit/RoverX/Dave/Generated/SPI_MASTER\spi_master.h ****  *   //Transmit mode should be configured as "DMA".
1001:C:/Workspaces/DAVE-4.4.2-64Bit/RoverX/Dave/Generated/SPI_MASTER\spi_master.h ****  *   //Description: Transmits "Infineon" data to the slave
1002:C:/Workspaces/DAVE-4.4.2-64Bit/RoverX/Dave/Generated/SPI_MASTER\spi_master.h ****  *
1003:C:/Workspaces/DAVE-4.4.2-64Bit/RoverX/Dave/Generated/SPI_MASTER\spi_master.h ****  *
1004:C:/Workspaces/DAVE-4.4.2-64Bit/RoverX/Dave/Generated/SPI_MASTER\spi_master.h ****  *   int main(void)
1005:C:/Workspaces/DAVE-4.4.2-64Bit/RoverX/Dave/Generated/SPI_MASTER\spi_master.h ****  *   {
1006:C:/Workspaces/DAVE-4.4.2-64Bit/RoverX/Dave/Generated/SPI_MASTER\spi_master.h ****  *     SPI_MASTER_STATUS_t init_status;
1007:C:/Workspaces/DAVE-4.4.2-64Bit/RoverX/Dave/Generated/SPI_MASTER\spi_master.h ****  *     uint8_t Send_Data[] = "Infineon";
1008:C:/Workspaces/DAVE-4.4.2-64Bit/RoverX/Dave/Generated/SPI_MASTER\spi_master.h ****  *
1009:C:/Workspaces/DAVE-4.4.2-64Bit/RoverX/Dave/Generated/SPI_MASTER\spi_master.h ****  *     init_status = (SPI_MASTER_STATUS_t)SPI_MASTER_Init(&SPI_MASTER_0);
1010:C:/Workspaces/DAVE-4.4.2-64Bit/RoverX/Dave/Generated/SPI_MASTER\spi_master.h ****  *     if(init_status == SPI_MASTER_STATUS_SUCCESS)
1011:C:/Workspaces/DAVE-4.4.2-64Bit/RoverX/Dave/Generated/SPI_MASTER\spi_master.h ****  *     {
1012:C:/Workspaces/DAVE-4.4.2-64Bit/RoverX/Dave/Generated/SPI_MASTER\spi_master.h ****  *       if(SPI_MASTER_StartTransmitDMA(&SPI_MASTER_0, Send_Data, sizeof(Send_Data)) == SPI_MASTER_
1013:C:/Workspaces/DAVE-4.4.2-64Bit/RoverX/Dave/Generated/SPI_MASTER\spi_master.h ****  *       {
1014:C:/Workspaces/DAVE-4.4.2-64Bit/RoverX/Dave/Generated/SPI_MASTER\spi_master.h ****  *         while(SPI_MASTER_0.runtime->tx_busy)
1015:C:/Workspaces/DAVE-4.4.2-64Bit/RoverX/Dave/Generated/SPI_MASTER\spi_master.h ****  *         {
1016:C:/Workspaces/DAVE-4.4.2-64Bit/RoverX/Dave/Generated/SPI_MASTER\spi_master.h ****  *         }
1017:C:/Workspaces/DAVE-4.4.2-64Bit/RoverX/Dave/Generated/SPI_MASTER\spi_master.h ****  *       }
1018:C:/Workspaces/DAVE-4.4.2-64Bit/RoverX/Dave/Generated/SPI_MASTER\spi_master.h ****  *     }
1019:C:/Workspaces/DAVE-4.4.2-64Bit/RoverX/Dave/Generated/SPI_MASTER\spi_master.h ****  *     else
1020:C:/Workspaces/DAVE-4.4.2-64Bit/RoverX/Dave/Generated/SPI_MASTER\spi_master.h ****  *     {
1021:C:/Workspaces/DAVE-4.4.2-64Bit/RoverX/Dave/Generated/SPI_MASTER\spi_master.h ****  *      XMC_DEBUG("main: Application initialization failed");
1022:C:/Workspaces/DAVE-4.4.2-64Bit/RoverX/Dave/Generated/SPI_MASTER\spi_master.h ****  *      while(1U)
1023:C:/Workspaces/DAVE-4.4.2-64Bit/RoverX/Dave/Generated/SPI_MASTER\spi_master.h ****  *      {
1024:C:/Workspaces/DAVE-4.4.2-64Bit/RoverX/Dave/Generated/SPI_MASTER\spi_master.h ****  *      }
1025:C:/Workspaces/DAVE-4.4.2-64Bit/RoverX/Dave/Generated/SPI_MASTER\spi_master.h ****  *     }
1026:C:/Workspaces/DAVE-4.4.2-64Bit/RoverX/Dave/Generated/SPI_MASTER\spi_master.h ****  *      return 1U;
1027:C:/Workspaces/DAVE-4.4.2-64Bit/RoverX/Dave/Generated/SPI_MASTER\spi_master.h ****  *  }
1028:C:/Workspaces/DAVE-4.4.2-64Bit/RoverX/Dave/Generated/SPI_MASTER\spi_master.h ****  * @endcode
1029:C:/Workspaces/DAVE-4.4.2-64Bit/RoverX/Dave/Generated/SPI_MASTER\spi_master.h ****  *
1030:C:/Workspaces/DAVE-4.4.2-64Bit/RoverX/Dave/Generated/SPI_MASTER\spi_master.h ****  */
1031:C:/Workspaces/DAVE-4.4.2-64Bit/RoverX/Dave/Generated/SPI_MASTER\spi_master.h **** SPI_MASTER_STATUS_t SPI_MASTER_StartTransmitDMA(const SPI_MASTER_t *const handle, uint8_t *addr, ui
1032:C:/Workspaces/DAVE-4.4.2-64Bit/RoverX/Dave/Generated/SPI_MASTER\spi_master.h **** #endif
1033:C:/Workspaces/DAVE-4.4.2-64Bit/RoverX/Dave/Generated/SPI_MASTER\spi_master.h **** 
1034:C:/Workspaces/DAVE-4.4.2-64Bit/RoverX/Dave/Generated/SPI_MASTER\spi_master.h **** /**
1035:C:/Workspaces/DAVE-4.4.2-64Bit/RoverX/Dave/Generated/SPI_MASTER\spi_master.h ****  * @brief Returns the state of the specified interrupt flag.
1036:C:/Workspaces/DAVE-4.4.2-64Bit/RoverX/Dave/Generated/SPI_MASTER\spi_master.h ****  *
1037:C:/Workspaces/DAVE-4.4.2-64Bit/RoverX/Dave/Generated/SPI_MASTER\spi_master.h ****  * @param handle Pointer to static and dynamic content of APP configuration.
1038:C:/Workspaces/DAVE-4.4.2-64Bit/RoverX/Dave/Generated/SPI_MASTER\spi_master.h ****  * @param flag Interrupt for which status is required
1039:C:/Workspaces/DAVE-4.4.2-64Bit/RoverX/Dave/Generated/SPI_MASTER\spi_master.h ****  *             Use type @ref XMC_SPI_CH_STATUS_FLAG_t for the bitmask of events.
1040:C:/Workspaces/DAVE-4.4.2-64Bit/RoverX/Dave/Generated/SPI_MASTER\spi_master.h ****  * @return  uint32_t status of the interrupt
1041:C:/Workspaces/DAVE-4.4.2-64Bit/RoverX/Dave/Generated/SPI_MASTER\spi_master.h ****  * <BR>
1042:C:/Workspaces/DAVE-4.4.2-64Bit/RoverX/Dave/Generated/SPI_MASTER\spi_master.h ****  *
1043:C:/Workspaces/DAVE-4.4.2-64Bit/RoverX/Dave/Generated/SPI_MASTER\spi_master.h ****  * \par<b>Description:</b><br>
1044:C:/Workspaces/DAVE-4.4.2-64Bit/RoverX/Dave/Generated/SPI_MASTER\spi_master.h ****  * Returns the status of the events, by reading PSR register. This indicates the status of the all 
1045:C:/Workspaces/DAVE-4.4.2-64Bit/RoverX/Dave/Generated/SPI_MASTER\spi_master.h ****  * SPI communication.
1046:C:/Workspaces/DAVE-4.4.2-64Bit/RoverX/Dave/Generated/SPI_MASTER\spi_master.h ****  * <BR>
1047:C:/Workspaces/DAVE-4.4.2-64Bit/RoverX/Dave/Generated/SPI_MASTER\spi_master.h ****  *
1048:C:/Workspaces/DAVE-4.4.2-64Bit/RoverX/Dave/Generated/SPI_MASTER\spi_master.h ****  * Example Usage:
1049:C:/Workspaces/DAVE-4.4.2-64Bit/RoverX/Dave/Generated/SPI_MASTER\spi_master.h ****  * @code
1050:C:/Workspaces/DAVE-4.4.2-64Bit/RoverX/Dave/Generated/SPI_MASTER\spi_master.h ****  * #include "DAVE.h"
1051:C:/Workspaces/DAVE-4.4.2-64Bit/RoverX/Dave/Generated/SPI_MASTER\spi_master.h ****  *
1052:C:/Workspaces/DAVE-4.4.2-64Bit/RoverX/Dave/Generated/SPI_MASTER\spi_master.h ****  * //Description:
1053:C:/Workspaces/DAVE-4.4.2-64Bit/RoverX/Dave/Generated/SPI_MASTER\spi_master.h ****  * //It transmits "Infineon" to the SPI slave. After calling the transmit API, it will poll for the
1054:C:/Workspaces/DAVE-4.4.2-64Bit/RoverX/Dave/Generated/SPI_MASTER\spi_master.h ****  * //indication flag to know the data has shifted out or not.
1055:C:/Workspaces/DAVE-4.4.2-64Bit/RoverX/Dave/Generated/SPI_MASTER\spi_master.h ****  *
1056:C:/Workspaces/DAVE-4.4.2-64Bit/RoverX/Dave/Generated/SPI_MASTER\spi_master.h ****  * int main(void)
1057:C:/Workspaces/DAVE-4.4.2-64Bit/RoverX/Dave/Generated/SPI_MASTER\spi_master.h ****  * {
1058:C:/Workspaces/DAVE-4.4.2-64Bit/RoverX/Dave/Generated/SPI_MASTER\spi_master.h ****  *   DAVE_STATUS_t status;
1059:C:/Workspaces/DAVE-4.4.2-64Bit/RoverX/Dave/Generated/SPI_MASTER\spi_master.h ****  *   uint8_t Send_Data[] = "Infineon";
1060:C:/Workspaces/DAVE-4.4.2-64Bit/RoverX/Dave/Generated/SPI_MASTER\spi_master.h ****  *
1061:C:/Workspaces/DAVE-4.4.2-64Bit/RoverX/Dave/Generated/SPI_MASTER\spi_master.h ****  *   status = DAVE_Init();    // SPI_MASTER_Init() is called from DAVE_Init()
1062:C:/Workspaces/DAVE-4.4.2-64Bit/RoverX/Dave/Generated/SPI_MASTER\spi_master.h ****  *   if(status == DAVE_STATUS_SUCCESS)
1063:C:/Workspaces/DAVE-4.4.2-64Bit/RoverX/Dave/Generated/SPI_MASTER\spi_master.h ****  *   {
1064:C:/Workspaces/DAVE-4.4.2-64Bit/RoverX/Dave/Generated/SPI_MASTER\spi_master.h ****  *     SPI_MASTER_Transmit(&SPI_MASTER_0, Send_Data, sizeof(Send_Data));
1065:C:/Workspaces/DAVE-4.4.2-64Bit/RoverX/Dave/Generated/SPI_MASTER\spi_master.h ****  *     while(SPI_MASTER_GetFlagStatus(&SPI_MASTER_0, XMC_SPI_CH_STATUS_FLAG_TRANSMIT_SHIFT_INDICATI
1066:C:/Workspaces/DAVE-4.4.2-64Bit/RoverX/Dave/Generated/SPI_MASTER\spi_master.h ****  *   }
1067:C:/Workspaces/DAVE-4.4.2-64Bit/RoverX/Dave/Generated/SPI_MASTER\spi_master.h ****  *   else
1068:C:/Workspaces/DAVE-4.4.2-64Bit/RoverX/Dave/Generated/SPI_MASTER\spi_master.h ****  *   {
1069:C:/Workspaces/DAVE-4.4.2-64Bit/RoverX/Dave/Generated/SPI_MASTER\spi_master.h ****  *    XMC_DEBUG("main: Application initialization failed");
1070:C:/Workspaces/DAVE-4.4.2-64Bit/RoverX/Dave/Generated/SPI_MASTER\spi_master.h ****  *    while(1U)
1071:C:/Workspaces/DAVE-4.4.2-64Bit/RoverX/Dave/Generated/SPI_MASTER\spi_master.h ****  *    {
1072:C:/Workspaces/DAVE-4.4.2-64Bit/RoverX/Dave/Generated/SPI_MASTER\spi_master.h ****  *    }
1073:C:/Workspaces/DAVE-4.4.2-64Bit/RoverX/Dave/Generated/SPI_MASTER\spi_master.h ****  *   }
1074:C:/Workspaces/DAVE-4.4.2-64Bit/RoverX/Dave/Generated/SPI_MASTER\spi_master.h ****  *    return 1U;
1075:C:/Workspaces/DAVE-4.4.2-64Bit/RoverX/Dave/Generated/SPI_MASTER\spi_master.h ****  * }
1076:C:/Workspaces/DAVE-4.4.2-64Bit/RoverX/Dave/Generated/SPI_MASTER\spi_master.h ****  * @endcode<BR>
1077:C:/Workspaces/DAVE-4.4.2-64Bit/RoverX/Dave/Generated/SPI_MASTER\spi_master.h ****  *
1078:C:/Workspaces/DAVE-4.4.2-64Bit/RoverX/Dave/Generated/SPI_MASTER\spi_master.h ****  */
1079:C:/Workspaces/DAVE-4.4.2-64Bit/RoverX/Dave/Generated/SPI_MASTER\spi_master.h **** 
1080:C:/Workspaces/DAVE-4.4.2-64Bit/RoverX/Dave/Generated/SPI_MASTER\spi_master.h **** __STATIC_INLINE uint32_t SPI_MASTER_GetFlagStatus(const SPI_MASTER_t* handle, const uint32_t flag)
1081:C:/Workspaces/DAVE-4.4.2-64Bit/RoverX/Dave/Generated/SPI_MASTER\spi_master.h **** {
1082:C:/Workspaces/DAVE-4.4.2-64Bit/RoverX/Dave/Generated/SPI_MASTER\spi_master.h ****   XMC_ASSERT("SPI_MASTER_GetFlagStatus:handle NULL" , (handle != NULL));
1083:C:/Workspaces/DAVE-4.4.2-64Bit/RoverX/Dave/Generated/SPI_MASTER\spi_master.h ****   return (XMC_SPI_CH_GetStatusFlag(handle->channel) & flag);
1084:C:/Workspaces/DAVE-4.4.2-64Bit/RoverX/Dave/Generated/SPI_MASTER\spi_master.h **** }
1085:C:/Workspaces/DAVE-4.4.2-64Bit/RoverX/Dave/Generated/SPI_MASTER\spi_master.h **** 
1086:C:/Workspaces/DAVE-4.4.2-64Bit/RoverX/Dave/Generated/SPI_MASTER\spi_master.h **** /**
1087:C:/Workspaces/DAVE-4.4.2-64Bit/RoverX/Dave/Generated/SPI_MASTER\spi_master.h ****  * @brief Clears the status of the specified interrupt flags.
1088:C:/Workspaces/DAVE-4.4.2-64Bit/RoverX/Dave/Generated/SPI_MASTER\spi_master.h ****  *
1089:C:/Workspaces/DAVE-4.4.2-64Bit/RoverX/Dave/Generated/SPI_MASTER\spi_master.h ****  * @param handle Pointer to static and dynamic content of APP configuration.
1090:C:/Workspaces/DAVE-4.4.2-64Bit/RoverX/Dave/Generated/SPI_MASTER\spi_master.h ****  * @param flag_mask Interrupt for which status has to be cleared
1091:C:/Workspaces/DAVE-4.4.2-64Bit/RoverX/Dave/Generated/SPI_MASTER\spi_master.h ****  *             Use type @ref XMC_SPI_CH_STATUS_FLAG_t for the bitmask of events.
1092:C:/Workspaces/DAVE-4.4.2-64Bit/RoverX/Dave/Generated/SPI_MASTER\spi_master.h ****  * <BR>
1093:C:/Workspaces/DAVE-4.4.2-64Bit/RoverX/Dave/Generated/SPI_MASTER\spi_master.h ****  * \par<b>Description:</b><br>
1094:C:/Workspaces/DAVE-4.4.2-64Bit/RoverX/Dave/Generated/SPI_MASTER\spi_master.h ****  * During communication the events occurred has to be cleared to get the successive events.\n
1095:C:/Workspaces/DAVE-4.4.2-64Bit/RoverX/Dave/Generated/SPI_MASTER\spi_master.h ****  * e.g: During transmission Transmit buffer event occurs to indicating data word transfer has start
1096:C:/Workspaces/DAVE-4.4.2-64Bit/RoverX/Dave/Generated/SPI_MASTER\spi_master.h ****  * to be cleared after transmission of each data word. Otherwise next event is not considered as va
1097:C:/Workspaces/DAVE-4.4.2-64Bit/RoverX/Dave/Generated/SPI_MASTER\spi_master.h ****  * <BR>
1098:C:/Workspaces/DAVE-4.4.2-64Bit/RoverX/Dave/Generated/SPI_MASTER\spi_master.h ****  *
1099:C:/Workspaces/DAVE-4.4.2-64Bit/RoverX/Dave/Generated/SPI_MASTER\spi_master.h ****  * Example Usage:
1100:C:/Workspaces/DAVE-4.4.2-64Bit/RoverX/Dave/Generated/SPI_MASTER\spi_master.h ****  * @code
1101:C:/Workspaces/DAVE-4.4.2-64Bit/RoverX/Dave/Generated/SPI_MASTER\spi_master.h ****  * #include "DAVE.h"
1102:C:/Workspaces/DAVE-4.4.2-64Bit/RoverX/Dave/Generated/SPI_MASTER\spi_master.h ****  *
1103:C:/Workspaces/DAVE-4.4.2-64Bit/RoverX/Dave/Generated/SPI_MASTER\spi_master.h ****  * //Description:
1104:C:/Workspaces/DAVE-4.4.2-64Bit/RoverX/Dave/Generated/SPI_MASTER\spi_master.h ****  * //It transmits "Infineon" to the SPI slave. After calling the transmit API, it will poll for the
1105:C:/Workspaces/DAVE-4.4.2-64Bit/RoverX/Dave/Generated/SPI_MASTER\spi_master.h ****  * //indication flag to know the data has shifted out or not, and clears the flag.
1106:C:/Workspaces/DAVE-4.4.2-64Bit/RoverX/Dave/Generated/SPI_MASTER\spi_master.h ****  *
1107:C:/Workspaces/DAVE-4.4.2-64Bit/RoverX/Dave/Generated/SPI_MASTER\spi_master.h ****  * int main(void)
1108:C:/Workspaces/DAVE-4.4.2-64Bit/RoverX/Dave/Generated/SPI_MASTER\spi_master.h ****  * {
1109:C:/Workspaces/DAVE-4.4.2-64Bit/RoverX/Dave/Generated/SPI_MASTER\spi_master.h ****  *   DAVE_STATUS_t status;
1110:C:/Workspaces/DAVE-4.4.2-64Bit/RoverX/Dave/Generated/SPI_MASTER\spi_master.h ****  *   uint8_t Send_Data[] = "Infineon";
1111:C:/Workspaces/DAVE-4.4.2-64Bit/RoverX/Dave/Generated/SPI_MASTER\spi_master.h ****  *
1112:C:/Workspaces/DAVE-4.4.2-64Bit/RoverX/Dave/Generated/SPI_MASTER\spi_master.h ****  *   status = DAVE_Init();    // SPI_MASTER_Init() is called from DAVE_Init()
1113:C:/Workspaces/DAVE-4.4.2-64Bit/RoverX/Dave/Generated/SPI_MASTER\spi_master.h ****  *   if(status == DAVE_STATUS_SUCCESS)
1114:C:/Workspaces/DAVE-4.4.2-64Bit/RoverX/Dave/Generated/SPI_MASTER\spi_master.h ****  *   {
1115:C:/Workspaces/DAVE-4.4.2-64Bit/RoverX/Dave/Generated/SPI_MASTER\spi_master.h ****  *     SPI_MASTER_Transmit(&SPI_MASTER_0, Send_Data, sizeof(Send_Data));
1116:C:/Workspaces/DAVE-4.4.2-64Bit/RoverX/Dave/Generated/SPI_MASTER\spi_master.h ****  *     while(SPI_MASTER_GetFlagStatus(&SPI_MASTER_0, (uint32_t)XMC_SPI_CH_STATUS_FLAG_TRANSMIT_SHIF
1117:C:/Workspaces/DAVE-4.4.2-64Bit/RoverX/Dave/Generated/SPI_MASTER\spi_master.h ****  *     SPI_MASTER_ClearFlag(&SPI_MASTER_0, (uint32_t)XMC_SPI_CH_STATUS_FLAG_TRANSMIT_SHIFT_INDICATI
1118:C:/Workspaces/DAVE-4.4.2-64Bit/RoverX/Dave/Generated/SPI_MASTER\spi_master.h ****  *   }
1119:C:/Workspaces/DAVE-4.4.2-64Bit/RoverX/Dave/Generated/SPI_MASTER\spi_master.h ****  *   else
1120:C:/Workspaces/DAVE-4.4.2-64Bit/RoverX/Dave/Generated/SPI_MASTER\spi_master.h ****  *   {
1121:C:/Workspaces/DAVE-4.4.2-64Bit/RoverX/Dave/Generated/SPI_MASTER\spi_master.h ****  *    XMC_DEBUG("main: Application initialization failed");
1122:C:/Workspaces/DAVE-4.4.2-64Bit/RoverX/Dave/Generated/SPI_MASTER\spi_master.h ****  *    while(1U)
1123:C:/Workspaces/DAVE-4.4.2-64Bit/RoverX/Dave/Generated/SPI_MASTER\spi_master.h ****  *    {
1124:C:/Workspaces/DAVE-4.4.2-64Bit/RoverX/Dave/Generated/SPI_MASTER\spi_master.h ****  *    }
1125:C:/Workspaces/DAVE-4.4.2-64Bit/RoverX/Dave/Generated/SPI_MASTER\spi_master.h ****  *   }
1126:C:/Workspaces/DAVE-4.4.2-64Bit/RoverX/Dave/Generated/SPI_MASTER\spi_master.h ****  *    return 1U;
1127:C:/Workspaces/DAVE-4.4.2-64Bit/RoverX/Dave/Generated/SPI_MASTER\spi_master.h ****  * }
1128:C:/Workspaces/DAVE-4.4.2-64Bit/RoverX/Dave/Generated/SPI_MASTER\spi_master.h ****  * @endcode<BR>
1129:C:/Workspaces/DAVE-4.4.2-64Bit/RoverX/Dave/Generated/SPI_MASTER\spi_master.h ****  */
1130:C:/Workspaces/DAVE-4.4.2-64Bit/RoverX/Dave/Generated/SPI_MASTER\spi_master.h **** __STATIC_INLINE void SPI_MASTER_ClearFlag(const SPI_MASTER_t* handle, const uint32_t flag_mask)
1131:C:/Workspaces/DAVE-4.4.2-64Bit/RoverX/Dave/Generated/SPI_MASTER\spi_master.h **** {
1132:C:/Workspaces/DAVE-4.4.2-64Bit/RoverX/Dave/Generated/SPI_MASTER\spi_master.h ****     XMC_ASSERT("SPI_MASTER_ClearFlag:handle NULL" , (handle != NULL));
1133:C:/Workspaces/DAVE-4.4.2-64Bit/RoverX/Dave/Generated/SPI_MASTER\spi_master.h ****     XMC_SPI_CH_ClearStatusFlag(handle->channel, flag_mask);
1134:C:/Workspaces/DAVE-4.4.2-64Bit/RoverX/Dave/Generated/SPI_MASTER\spi_master.h **** }
1135:C:/Workspaces/DAVE-4.4.2-64Bit/RoverX/Dave/Generated/SPI_MASTER\spi_master.h **** 
1136:C:/Workspaces/DAVE-4.4.2-64Bit/RoverX/Dave/Generated/SPI_MASTER\spi_master.h **** /**
1137:C:/Workspaces/DAVE-4.4.2-64Bit/RoverX/Dave/Generated/SPI_MASTER\spi_master.h ****  * @brief return the txbusy flag state
1138:C:/Workspaces/DAVE-4.4.2-64Bit/RoverX/Dave/Generated/SPI_MASTER\spi_master.h ****  * @param handle Pointer to static and dynamic content of APP configuration.
1139:C:/Workspaces/DAVE-4.4.2-64Bit/RoverX/Dave/Generated/SPI_MASTER\spi_master.h ****  * @return bool : status of txbusy flag
1140:C:/Workspaces/DAVE-4.4.2-64Bit/RoverX/Dave/Generated/SPI_MASTER\spi_master.h ****  *
1141:C:/Workspaces/DAVE-4.4.2-64Bit/RoverX/Dave/Generated/SPI_MASTER\spi_master.h ****  * <BR>
1142:C:/Workspaces/DAVE-4.4.2-64Bit/RoverX/Dave/Generated/SPI_MASTER\spi_master.h ****  * \par<b>Description:</b><br>
1143:C:/Workspaces/DAVE-4.4.2-64Bit/RoverX/Dave/Generated/SPI_MASTER\spi_master.h ****  * This is used to check whether any transmit process is going or not. If no process is going then 
1144:C:/Workspaces/DAVE-4.4.2-64Bit/RoverX/Dave/Generated/SPI_MASTER\spi_master.h ****  * the new request is accepted. SPI_MASTER_AbortTransmit() can be used to stop the current process 
1145:C:/Workspaces/DAVE-4.4.2-64Bit/RoverX/Dave/Generated/SPI_MASTER\spi_master.h ****  * start the new request.
1146:C:/Workspaces/DAVE-4.4.2-64Bit/RoverX/Dave/Generated/SPI_MASTER\spi_master.h ****  * <BR>
1147:C:/Workspaces/DAVE-4.4.2-64Bit/RoverX/Dave/Generated/SPI_MASTER\spi_master.h ****  *
1148:C:/Workspaces/DAVE-4.4.2-64Bit/RoverX/Dave/Generated/SPI_MASTER\spi_master.h ****  * Example Usage:
1149:C:/Workspaces/DAVE-4.4.2-64Bit/RoverX/Dave/Generated/SPI_MASTER\spi_master.h ****  * <BR>
1150:C:/Workspaces/DAVE-4.4.2-64Bit/RoverX/Dave/Generated/SPI_MASTER\spi_master.h ****  * @code
1151:C:/Workspaces/DAVE-4.4.2-64Bit/RoverX/Dave/Generated/SPI_MASTER\spi_master.h ****  * #include "DAVE.h"
1152:C:/Workspaces/DAVE-4.4.2-64Bit/RoverX/Dave/Generated/SPI_MASTER\spi_master.h ****  *
1153:C:/Workspaces/DAVE-4.4.2-64Bit/RoverX/Dave/Generated/SPI_MASTER\spi_master.h ****  * //Description:
1154:C:/Workspaces/DAVE-4.4.2-64Bit/RoverX/Dave/Generated/SPI_MASTER\spi_master.h ****  * //Transmits "Infineon" to the slave device.
1155:C:/Workspaces/DAVE-4.4.2-64Bit/RoverX/Dave/Generated/SPI_MASTER\spi_master.h ****  *
1156:C:/Workspaces/DAVE-4.4.2-64Bit/RoverX/Dave/Generated/SPI_MASTER\spi_master.h ****  *
1157:C:/Workspaces/DAVE-4.4.2-64Bit/RoverX/Dave/Generated/SPI_MASTER\spi_master.h ****  * int main(void)
1158:C:/Workspaces/DAVE-4.4.2-64Bit/RoverX/Dave/Generated/SPI_MASTER\spi_master.h ****  * {
1159:C:/Workspaces/DAVE-4.4.2-64Bit/RoverX/Dave/Generated/SPI_MASTER\spi_master.h ****  *   DAVE_STATUS_t status;
1160:C:/Workspaces/DAVE-4.4.2-64Bit/RoverX/Dave/Generated/SPI_MASTER\spi_master.h ****  *
1161:C:/Workspaces/DAVE-4.4.2-64Bit/RoverX/Dave/Generated/SPI_MASTER\spi_master.h ****  *   uint8_t Send_Data[] = "Infineon";
1162:C:/Workspaces/DAVE-4.4.2-64Bit/RoverX/Dave/Generated/SPI_MASTER\spi_master.h ****  *
1163:C:/Workspaces/DAVE-4.4.2-64Bit/RoverX/Dave/Generated/SPI_MASTER\spi_master.h ****  *   status = DAVE_Init();    // SPI_MASTER_Init() is called from DAVE_Init()
1164:C:/Workspaces/DAVE-4.4.2-64Bit/RoverX/Dave/Generated/SPI_MASTER\spi_master.h ****  *   if(status == DAVE_STATUS_SUCCESS)
1165:C:/Workspaces/DAVE-4.4.2-64Bit/RoverX/Dave/Generated/SPI_MASTER\spi_master.h ****  *   {
1166:C:/Workspaces/DAVE-4.4.2-64Bit/RoverX/Dave/Generated/SPI_MASTER\spi_master.h ****  *     if(SPI_MASTER_Transmit(&SPI_MASTER_0, Send_Data, sizeof(Send_Data)) == SPI_MASTER_STATUS_SUC
1167:C:/Workspaces/DAVE-4.4.2-64Bit/RoverX/Dave/Generated/SPI_MASTER\spi_master.h ****  *     {
1168:C:/Workspaces/DAVE-4.4.2-64Bit/RoverX/Dave/Generated/SPI_MASTER\spi_master.h ****  *       while(SPI_MASTER_IsTxBusy(&SPI_MASTER_0))
1169:C:/Workspaces/DAVE-4.4.2-64Bit/RoverX/Dave/Generated/SPI_MASTER\spi_master.h ****  *       {
1170:C:/Workspaces/DAVE-4.4.2-64Bit/RoverX/Dave/Generated/SPI_MASTER\spi_master.h ****  *       }
1171:C:/Workspaces/DAVE-4.4.2-64Bit/RoverX/Dave/Generated/SPI_MASTER\spi_master.h ****  *     }
1172:C:/Workspaces/DAVE-4.4.2-64Bit/RoverX/Dave/Generated/SPI_MASTER\spi_master.h ****  *   }
1173:C:/Workspaces/DAVE-4.4.2-64Bit/RoverX/Dave/Generated/SPI_MASTER\spi_master.h ****  *   else
1174:C:/Workspaces/DAVE-4.4.2-64Bit/RoverX/Dave/Generated/SPI_MASTER\spi_master.h ****  *   {
1175:C:/Workspaces/DAVE-4.4.2-64Bit/RoverX/Dave/Generated/SPI_MASTER\spi_master.h ****  *    XMC_DEBUG("main: Application initialization failed");
1176:C:/Workspaces/DAVE-4.4.2-64Bit/RoverX/Dave/Generated/SPI_MASTER\spi_master.h ****  *    while(1U)
1177:C:/Workspaces/DAVE-4.4.2-64Bit/RoverX/Dave/Generated/SPI_MASTER\spi_master.h ****  *    {
1178:C:/Workspaces/DAVE-4.4.2-64Bit/RoverX/Dave/Generated/SPI_MASTER\spi_master.h ****  *    }
1179:C:/Workspaces/DAVE-4.4.2-64Bit/RoverX/Dave/Generated/SPI_MASTER\spi_master.h ****  *   }
1180:C:/Workspaces/DAVE-4.4.2-64Bit/RoverX/Dave/Generated/SPI_MASTER\spi_master.h ****  *    return 1U;
1181:C:/Workspaces/DAVE-4.4.2-64Bit/RoverX/Dave/Generated/SPI_MASTER\spi_master.h ****  * }
1182:C:/Workspaces/DAVE-4.4.2-64Bit/RoverX/Dave/Generated/SPI_MASTER\spi_master.h ****  * @endcode<BR> </p>
1183:C:/Workspaces/DAVE-4.4.2-64Bit/RoverX/Dave/Generated/SPI_MASTER\spi_master.h ****  *
1184:C:/Workspaces/DAVE-4.4.2-64Bit/RoverX/Dave/Generated/SPI_MASTER\spi_master.h ****  */
1185:C:/Workspaces/DAVE-4.4.2-64Bit/RoverX/Dave/Generated/SPI_MASTER\spi_master.h **** __STATIC_INLINE bool SPI_MASTER_IsTxBusy(const SPI_MASTER_t* const handle)
1186:C:/Workspaces/DAVE-4.4.2-64Bit/RoverX/Dave/Generated/SPI_MASTER\spi_master.h **** {
1187:C:/Workspaces/DAVE-4.4.2-64Bit/RoverX/Dave/Generated/SPI_MASTER\spi_master.h ****   XMC_ASSERT("SPI_MASTER_IsTxBusy:handle NULL", (handle != NULL))
1188:C:/Workspaces/DAVE-4.4.2-64Bit/RoverX/Dave/Generated/SPI_MASTER\spi_master.h ****   return (handle->runtime->tx_busy);
1189:C:/Workspaces/DAVE-4.4.2-64Bit/RoverX/Dave/Generated/SPI_MASTER\spi_master.h **** }
1190:C:/Workspaces/DAVE-4.4.2-64Bit/RoverX/Dave/Generated/SPI_MASTER\spi_master.h **** 
1191:C:/Workspaces/DAVE-4.4.2-64Bit/RoverX/Dave/Generated/SPI_MASTER\spi_master.h **** /**
1192:C:/Workspaces/DAVE-4.4.2-64Bit/RoverX/Dave/Generated/SPI_MASTER\spi_master.h ****  * @brief return the rxbusy flag state
1193:C:/Workspaces/DAVE-4.4.2-64Bit/RoverX/Dave/Generated/SPI_MASTER\spi_master.h ****  * @param handle Pointer to static and dynamic content of APP configuration.
1194:C:/Workspaces/DAVE-4.4.2-64Bit/RoverX/Dave/Generated/SPI_MASTER\spi_master.h ****  * @return bool : status of rxbusy flag
1195:C:/Workspaces/DAVE-4.4.2-64Bit/RoverX/Dave/Generated/SPI_MASTER\spi_master.h ****  *
1196:C:/Workspaces/DAVE-4.4.2-64Bit/RoverX/Dave/Generated/SPI_MASTER\spi_master.h ****  * <BR>
1197:C:/Workspaces/DAVE-4.4.2-64Bit/RoverX/Dave/Generated/SPI_MASTER\spi_master.h ****  * \par<b>Description:</b><br>
1198:C:/Workspaces/DAVE-4.4.2-64Bit/RoverX/Dave/Generated/SPI_MASTER\spi_master.h ****  * This is used to check whether any receive process is going or not. If no process is going then o
1199:C:/Workspaces/DAVE-4.4.2-64Bit/RoverX/Dave/Generated/SPI_MASTER\spi_master.h ****  * the new request is accepted. SPI_MASTER_AbortReceive() can be used to stop the current process a
1200:C:/Workspaces/DAVE-4.4.2-64Bit/RoverX/Dave/Generated/SPI_MASTER\spi_master.h ****  * start the new request.
1201:C:/Workspaces/DAVE-4.4.2-64Bit/RoverX/Dave/Generated/SPI_MASTER\spi_master.h ****  * <BR>
1202:C:/Workspaces/DAVE-4.4.2-64Bit/RoverX/Dave/Generated/SPI_MASTER\spi_master.h ****  *
1203:C:/Workspaces/DAVE-4.4.2-64Bit/RoverX/Dave/Generated/SPI_MASTER\spi_master.h ****  * Example Usage:
1204:C:/Workspaces/DAVE-4.4.2-64Bit/RoverX/Dave/Generated/SPI_MASTER\spi_master.h ****  *
1205:C:/Workspaces/DAVE-4.4.2-64Bit/RoverX/Dave/Generated/SPI_MASTER\spi_master.h ****  * @code
1206:C:/Workspaces/DAVE-4.4.2-64Bit/RoverX/Dave/Generated/SPI_MASTER\spi_master.h ****  * #include "DAVE.h"
1207:C:/Workspaces/DAVE-4.4.2-64Bit/RoverX/Dave/Generated/SPI_MASTER\spi_master.h ****  *
1208:C:/Workspaces/DAVE-4.4.2-64Bit/RoverX/Dave/Generated/SPI_MASTER\spi_master.h ****  * //Description:
1209:C:/Workspaces/DAVE-4.4.2-64Bit/RoverX/Dave/Generated/SPI_MASTER\spi_master.h ****  * //Receives 10 bytes of data from slave.
1210:C:/Workspaces/DAVE-4.4.2-64Bit/RoverX/Dave/Generated/SPI_MASTER\spi_master.h ****  *
1211:C:/Workspaces/DAVE-4.4.2-64Bit/RoverX/Dave/Generated/SPI_MASTER\spi_master.h ****  * int main(void)
1212:C:/Workspaces/DAVE-4.4.2-64Bit/RoverX/Dave/Generated/SPI_MASTER\spi_master.h ****  * {
1213:C:/Workspaces/DAVE-4.4.2-64Bit/RoverX/Dave/Generated/SPI_MASTER\spi_master.h ****  *   DAVE_STATUS_t status;
1214:C:/Workspaces/DAVE-4.4.2-64Bit/RoverX/Dave/Generated/SPI_MASTER\spi_master.h ****  *   uint8_t ReadData[10];
1215:C:/Workspaces/DAVE-4.4.2-64Bit/RoverX/Dave/Generated/SPI_MASTER\spi_master.h ****  *
1216:C:/Workspaces/DAVE-4.4.2-64Bit/RoverX/Dave/Generated/SPI_MASTER\spi_master.h ****  *   status =  DAVE_Init();    // SPI_MASTER_Init() is called from DAVE_Init()
1217:C:/Workspaces/DAVE-4.4.2-64Bit/RoverX/Dave/Generated/SPI_MASTER\spi_master.h ****  *   if(status == DAVE_STATUS_SUCCESS)
1218:C:/Workspaces/DAVE-4.4.2-64Bit/RoverX/Dave/Generated/SPI_MASTER\spi_master.h ****  *   {
1219:C:/Workspaces/DAVE-4.4.2-64Bit/RoverX/Dave/Generated/SPI_MASTER\spi_master.h ****  *     if(SPI_MASTER_Receive(&SPI_MASTER_0, ReadData, 10U))
1220:C:/Workspaces/DAVE-4.4.2-64Bit/RoverX/Dave/Generated/SPI_MASTER\spi_master.h ****  *     {
1221:C:/Workspaces/DAVE-4.4.2-64Bit/RoverX/Dave/Generated/SPI_MASTER\spi_master.h ****  *       while(SPI_MASTER_IsRxBusy(&SPI_MASTER_0))
1222:C:/Workspaces/DAVE-4.4.2-64Bit/RoverX/Dave/Generated/SPI_MASTER\spi_master.h ****  *       {
1223:C:/Workspaces/DAVE-4.4.2-64Bit/RoverX/Dave/Generated/SPI_MASTER\spi_master.h ****  *       }
1224:C:/Workspaces/DAVE-4.4.2-64Bit/RoverX/Dave/Generated/SPI_MASTER\spi_master.h ****  *     }
1225:C:/Workspaces/DAVE-4.4.2-64Bit/RoverX/Dave/Generated/SPI_MASTER\spi_master.h ****  *   }
1226:C:/Workspaces/DAVE-4.4.2-64Bit/RoverX/Dave/Generated/SPI_MASTER\spi_master.h ****  *   else
1227:C:/Workspaces/DAVE-4.4.2-64Bit/RoverX/Dave/Generated/SPI_MASTER\spi_master.h ****  *   {
1228:C:/Workspaces/DAVE-4.4.2-64Bit/RoverX/Dave/Generated/SPI_MASTER\spi_master.h ****  *    XMC_DEBUG("main: Application initialization failed");
1229:C:/Workspaces/DAVE-4.4.2-64Bit/RoverX/Dave/Generated/SPI_MASTER\spi_master.h ****  *    while(1U)
1230:C:/Workspaces/DAVE-4.4.2-64Bit/RoverX/Dave/Generated/SPI_MASTER\spi_master.h ****  *    {
1231:C:/Workspaces/DAVE-4.4.2-64Bit/RoverX/Dave/Generated/SPI_MASTER\spi_master.h ****  *    }
1232:C:/Workspaces/DAVE-4.4.2-64Bit/RoverX/Dave/Generated/SPI_MASTER\spi_master.h ****  *   }
1233:C:/Workspaces/DAVE-4.4.2-64Bit/RoverX/Dave/Generated/SPI_MASTER\spi_master.h ****  *    return 1U;
1234:C:/Workspaces/DAVE-4.4.2-64Bit/RoverX/Dave/Generated/SPI_MASTER\spi_master.h ****  * }
1235:C:/Workspaces/DAVE-4.4.2-64Bit/RoverX/Dave/Generated/SPI_MASTER\spi_master.h ****  * @endcode<BR>
1236:C:/Workspaces/DAVE-4.4.2-64Bit/RoverX/Dave/Generated/SPI_MASTER\spi_master.h ****  */
1237:C:/Workspaces/DAVE-4.4.2-64Bit/RoverX/Dave/Generated/SPI_MASTER\spi_master.h **** __STATIC_INLINE bool SPI_MASTER_IsRxBusy(const SPI_MASTER_t* const handle)
1238:C:/Workspaces/DAVE-4.4.2-64Bit/RoverX/Dave/Generated/SPI_MASTER\spi_master.h **** {
1239:C:/Workspaces/DAVE-4.4.2-64Bit/RoverX/Dave/Generated/SPI_MASTER\spi_master.h ****   XMC_ASSERT("SPI_MASTER_IsTxBusy:handle NULL", (handle != NULL))
1240:C:/Workspaces/DAVE-4.4.2-64Bit/RoverX/Dave/Generated/SPI_MASTER\spi_master.h ****   return (handle->runtime->rx_busy);
1241:C:/Workspaces/DAVE-4.4.2-64Bit/RoverX/Dave/Generated/SPI_MASTER\spi_master.h **** }
1242:C:/Workspaces/DAVE-4.4.2-64Bit/RoverX/Dave/Generated/SPI_MASTER\spi_master.h **** 
1243:C:/Workspaces/DAVE-4.4.2-64Bit/RoverX/Dave/Generated/SPI_MASTER\spi_master.h **** 
1244:C:/Workspaces/DAVE-4.4.2-64Bit/RoverX/Dave/Generated/SPI_MASTER\spi_master.h **** /**
1245:C:/Workspaces/DAVE-4.4.2-64Bit/RoverX/Dave/Generated/SPI_MASTER\spi_master.h ****  * @brief Enables the specified slave select line
1246:C:/Workspaces/DAVE-4.4.2-64Bit/RoverX/Dave/Generated/SPI_MASTER\spi_master.h ****  *
1247:C:/Workspaces/DAVE-4.4.2-64Bit/RoverX/Dave/Generated/SPI_MASTER\spi_master.h ****  * @param handle Pointer to static and dynamic content of APP configuration.
1248:C:/Workspaces/DAVE-4.4.2-64Bit/RoverX/Dave/Generated/SPI_MASTER\spi_master.h ****  * @param slave which slave signal has to be enabled
1249:C:/Workspaces/DAVE-4.4.2-64Bit/RoverX/Dave/Generated/SPI_MASTER\spi_master.h ****  * <BR>
1250:C:/Workspaces/DAVE-4.4.2-64Bit/RoverX/Dave/Generated/SPI_MASTER\spi_master.h ****  * \par<b>Description:</b><br>
1251:C:/Workspaces/DAVE-4.4.2-64Bit/RoverX/Dave/Generated/SPI_MASTER\spi_master.h ****  * Each slave is connected with one slave select signal. At a time only one slave can be communicat
1252:C:/Workspaces/DAVE-4.4.2-64Bit/RoverX/Dave/Generated/SPI_MASTER\spi_master.h ****  * required slave to start the communication.
1253:C:/Workspaces/DAVE-4.4.2-64Bit/RoverX/Dave/Generated/SPI_MASTER\spi_master.h ****  * <BR>
1254:C:/Workspaces/DAVE-4.4.2-64Bit/RoverX/Dave/Generated/SPI_MASTER\spi_master.h ****  *
1255:C:/Workspaces/DAVE-4.4.2-64Bit/RoverX/Dave/Generated/SPI_MASTER\spi_master.h ****  * Example Usage:
1256:C:/Workspaces/DAVE-4.4.2-64Bit/RoverX/Dave/Generated/SPI_MASTER\spi_master.h ****  * Generate code for multiple slave by configuring in "Advanced settings tab". Transmit the data to
1257:C:/Workspaces/DAVE-4.4.2-64Bit/RoverX/Dave/Generated/SPI_MASTER\spi_master.h ****  * @code
1258:C:/Workspaces/DAVE-4.4.2-64Bit/RoverX/Dave/Generated/SPI_MASTER\spi_master.h ****  *
1259:C:/Workspaces/DAVE-4.4.2-64Bit/RoverX/Dave/Generated/SPI_MASTER\spi_master.h ****  * #include "DAVE.h"
1260:C:/Workspaces/DAVE-4.4.2-64Bit/RoverX/Dave/Generated/SPI_MASTER\spi_master.h ****  *
1261:C:/Workspaces/DAVE-4.4.2-64Bit/RoverX/Dave/Generated/SPI_MASTER\spi_master.h ****  * //Precondition:
1262:C:/Workspaces/DAVE-4.4.2-64Bit/RoverX/Dave/Generated/SPI_MASTER\spi_master.h ****  * //Configure to use two slaves".
1263:C:/Workspaces/DAVE-4.4.2-64Bit/RoverX/Dave/Generated/SPI_MASTER\spi_master.h ****  * //Description:
1264:C:/Workspaces/DAVE-4.4.2-64Bit/RoverX/Dave/Generated/SPI_MASTER\spi_master.h ****  * //Transmits 10 bytes of data to slave-0 and disables the slave-o. Then enable the slave-1 and tr
1265:C:/Workspaces/DAVE-4.4.2-64Bit/RoverX/Dave/Generated/SPI_MASTER\spi_master.h ****  *
1266:C:/Workspaces/DAVE-4.4.2-64Bit/RoverX/Dave/Generated/SPI_MASTER\spi_master.h ****  * int main(void)
1267:C:/Workspaces/DAVE-4.4.2-64Bit/RoverX/Dave/Generated/SPI_MASTER\spi_master.h ****  * {
1268:C:/Workspaces/DAVE-4.4.2-64Bit/RoverX/Dave/Generated/SPI_MASTER\spi_master.h ****  *   DAVE_STATUS_t status;
1269:C:/Workspaces/DAVE-4.4.2-64Bit/RoverX/Dave/Generated/SPI_MASTER\spi_master.h ****  *   uint8_t Send_Data[] = "Infineon";
1270:C:/Workspaces/DAVE-4.4.2-64Bit/RoverX/Dave/Generated/SPI_MASTER\spi_master.h ****  *
1271:C:/Workspaces/DAVE-4.4.2-64Bit/RoverX/Dave/Generated/SPI_MASTER\spi_master.h ****  *   status = DAVE_Init();    // SPI_MASTER_Init() is called from DAVE_Init()
1272:C:/Workspaces/DAVE-4.4.2-64Bit/RoverX/Dave/Generated/SPI_MASTER\spi_master.h ****  *   if(status == DAVE_STATUS_SUCCESS)
1273:C:/Workspaces/DAVE-4.4.2-64Bit/RoverX/Dave/Generated/SPI_MASTER\spi_master.h ****  *   {
1274:C:/Workspaces/DAVE-4.4.2-64Bit/RoverX/Dave/Generated/SPI_MASTER\spi_master.h ****  *     SPI_MASTER_Transmit(&SPI_MASTER_0, Send_Data, sizeof(Send_Data));
1275:C:/Workspaces/DAVE-4.4.2-64Bit/RoverX/Dave/Generated/SPI_MASTER\spi_master.h ****  *     SPI_MASTER_DisableSlaveSelectSignal(&SPI_MASTER_0);
1276:C:/Workspaces/DAVE-4.4.2-64Bit/RoverX/Dave/Generated/SPI_MASTER\spi_master.h ****  *     SPI_MASTER_EnableSlaveSelectSignal(&SPI_MASTER_0, SPI_MASTER_SS_SIGNAL_1);
1277:C:/Workspaces/DAVE-4.4.2-64Bit/RoverX/Dave/Generated/SPI_MASTER\spi_master.h ****  *     SPI_MASTER_Transmit(&SPI_MASTER_0, Send_Data, sizeof(Send_Data));
1278:C:/Workspaces/DAVE-4.4.2-64Bit/RoverX/Dave/Generated/SPI_MASTER\spi_master.h ****  *   }
1279:C:/Workspaces/DAVE-4.4.2-64Bit/RoverX/Dave/Generated/SPI_MASTER\spi_master.h ****  *   else
1280:C:/Workspaces/DAVE-4.4.2-64Bit/RoverX/Dave/Generated/SPI_MASTER\spi_master.h ****  *   {
1281:C:/Workspaces/DAVE-4.4.2-64Bit/RoverX/Dave/Generated/SPI_MASTER\spi_master.h ****  *    XMC_DEBUG("main: Application initialization failed");
1282:C:/Workspaces/DAVE-4.4.2-64Bit/RoverX/Dave/Generated/SPI_MASTER\spi_master.h ****  *    while(1U)
1283:C:/Workspaces/DAVE-4.4.2-64Bit/RoverX/Dave/Generated/SPI_MASTER\spi_master.h ****  *    {
1284:C:/Workspaces/DAVE-4.4.2-64Bit/RoverX/Dave/Generated/SPI_MASTER\spi_master.h ****  *    }
1285:C:/Workspaces/DAVE-4.4.2-64Bit/RoverX/Dave/Generated/SPI_MASTER\spi_master.h ****  *   }
1286:C:/Workspaces/DAVE-4.4.2-64Bit/RoverX/Dave/Generated/SPI_MASTER\spi_master.h ****  *    return 1U;
1287:C:/Workspaces/DAVE-4.4.2-64Bit/RoverX/Dave/Generated/SPI_MASTER\spi_master.h ****  * }
1288:C:/Workspaces/DAVE-4.4.2-64Bit/RoverX/Dave/Generated/SPI_MASTER\spi_master.h ****  * @endcode<BR>
1289:C:/Workspaces/DAVE-4.4.2-64Bit/RoverX/Dave/Generated/SPI_MASTER\spi_master.h ****  *
1290:C:/Workspaces/DAVE-4.4.2-64Bit/RoverX/Dave/Generated/SPI_MASTER\spi_master.h ****  */
1291:C:/Workspaces/DAVE-4.4.2-64Bit/RoverX/Dave/Generated/SPI_MASTER\spi_master.h **** __STATIC_INLINE void SPI_MASTER_EnableSlaveSelectSignal(const SPI_MASTER_t* handle, const SPI_MASTE
1292:C:/Workspaces/DAVE-4.4.2-64Bit/RoverX/Dave/Generated/SPI_MASTER\spi_master.h **** {
 105              	 .loc 2 1292 0
 106              	 .cfi_startproc
 107 0000 80B5     	 push {r7,lr}
 108              	.LCFI6:
 109              	 .cfi_def_cfa_offset 8
 110              	 .cfi_offset 7,-8
 111              	 .cfi_offset 14,-4
 112 0002 82B0     	 sub sp,sp,#8
 113              	.LCFI7:
 114              	 .cfi_def_cfa_offset 16
 115 0004 00AF     	 add r7,sp,#0
 116              	.LCFI8:
 117              	 .cfi_def_cfa_register 7
 118 0006 7860     	 str r0,[r7,#4]
 119 0008 0A1C     	 mov r2,r1
 120 000a FB1C     	 add r3,r7,#3
 121 000c 1A70     	 strb r2,[r3]
1293:C:/Workspaces/DAVE-4.4.2-64Bit/RoverX/Dave/Generated/SPI_MASTER\spi_master.h ****     XMC_ASSERT("SPI_MASTER_EnableSlaveSelectSignal:handle NULL" , (handle != NULL));
1294:C:/Workspaces/DAVE-4.4.2-64Bit/RoverX/Dave/Generated/SPI_MASTER\spi_master.h ****     XMC_ASSERT("SPI_MASTER_EnableSlaveSelectSignal:Invalid Slave selection" , ((slave == SPI_MASTER
1295:C:/Workspaces/DAVE-4.4.2-64Bit/RoverX/Dave/Generated/SPI_MASTER\spi_master.h ****                                                                                (slave == SPI_MASTER
1296:C:/Workspaces/DAVE-4.4.2-64Bit/RoverX/Dave/Generated/SPI_MASTER\spi_master.h ****                                                                                (slave == SPI_MASTER
1297:C:/Workspaces/DAVE-4.4.2-64Bit/RoverX/Dave/Generated/SPI_MASTER\spi_master.h ****                                                                                (slave == SPI_MASTER
1298:C:/Workspaces/DAVE-4.4.2-64Bit/RoverX/Dave/Generated/SPI_MASTER\spi_master.h ****                                                                                (slave == SPI_MASTER
1299:C:/Workspaces/DAVE-4.4.2-64Bit/RoverX/Dave/Generated/SPI_MASTER\spi_master.h ****                                                                                (slave == SPI_MASTER
1300:C:/Workspaces/DAVE-4.4.2-64Bit/RoverX/Dave/Generated/SPI_MASTER\spi_master.h ****                                                                                (slave == SPI_MASTER
1301:C:/Workspaces/DAVE-4.4.2-64Bit/RoverX/Dave/Generated/SPI_MASTER\spi_master.h ****                                                                                (slave == SPI_MASTER
1302:C:/Workspaces/DAVE-4.4.2-64Bit/RoverX/Dave/Generated/SPI_MASTER\spi_master.h ****                                                                               );
1303:C:/Workspaces/DAVE-4.4.2-64Bit/RoverX/Dave/Generated/SPI_MASTER\spi_master.h ****     XMC_SPI_CH_EnableSlaveSelect(handle->channel, handle->config->slave_select_pin_config[slave]->s
 122              	 .loc 2 1303 0
 123 000e 7B68     	 ldr r3,[r7,#4]
 124 0010 1968     	 ldr r1,[r3]
 125 0012 7B68     	 ldr r3,[r7,#4]
 126 0014 5B68     	 ldr r3,[r3,#4]
 127 0016 FA1C     	 add r2,r7,#3
 128 0018 1278     	 ldrb r2,[r2]
 129 001a 1432     	 add r2,r2,#20
 130 001c 9200     	 lsl r2,r2,#2
 131 001e D358     	 ldr r3,[r2,r3]
 132 0020 DB68     	 ldr r3,[r3,#12]
 133 0022 081C     	 mov r0,r1
 134 0024 191C     	 mov r1,r3
 135 0026 FFF7FEFF 	 bl XMC_SPI_CH_EnableSlaveSelect
1304:C:/Workspaces/DAVE-4.4.2-64Bit/RoverX/Dave/Generated/SPI_MASTER\spi_master.h **** }
 136              	 .loc 2 1304 0
 137 002a BD46     	 mov sp,r7
 138 002c 02B0     	 add sp,sp,#8
 139              	 
 140 002e 80BD     	 pop {r7,pc}
 141              	 .cfi_endproc
 142              	.LFE182:
 144              	 .section .text.SPI_MASTER_DisableSlaveSelectSignal,"ax",%progbits
 145              	 .align 2
 146              	 .code 16
 147              	 .thumb_func
 149              	SPI_MASTER_DisableSlaveSelectSignal:
 150              	.LFB183:
1305:C:/Workspaces/DAVE-4.4.2-64Bit/RoverX/Dave/Generated/SPI_MASTER\spi_master.h **** 
1306:C:/Workspaces/DAVE-4.4.2-64Bit/RoverX/Dave/Generated/SPI_MASTER\spi_master.h **** /**
1307:C:/Workspaces/DAVE-4.4.2-64Bit/RoverX/Dave/Generated/SPI_MASTER\spi_master.h ****  * @brief Disables the all the slave select lines
1308:C:/Workspaces/DAVE-4.4.2-64Bit/RoverX/Dave/Generated/SPI_MASTER\spi_master.h ****  *
1309:C:/Workspaces/DAVE-4.4.2-64Bit/RoverX/Dave/Generated/SPI_MASTER\spi_master.h ****  * @param handle Pointer to static and dynamic content of APP configuration.
1310:C:/Workspaces/DAVE-4.4.2-64Bit/RoverX/Dave/Generated/SPI_MASTER\spi_master.h ****  * <BR>
1311:C:/Workspaces/DAVE-4.4.2-64Bit/RoverX/Dave/Generated/SPI_MASTER\spi_master.h ****  * \par<b>Description:</b><br>
1312:C:/Workspaces/DAVE-4.4.2-64Bit/RoverX/Dave/Generated/SPI_MASTER\spi_master.h ****  * Disable all the slave signals by clearing PCR.SELO bits.
1313:C:/Workspaces/DAVE-4.4.2-64Bit/RoverX/Dave/Generated/SPI_MASTER\spi_master.h ****  * <BR>
1314:C:/Workspaces/DAVE-4.4.2-64Bit/RoverX/Dave/Generated/SPI_MASTER\spi_master.h ****  *
1315:C:/Workspaces/DAVE-4.4.2-64Bit/RoverX/Dave/Generated/SPI_MASTER\spi_master.h ****  * Example Usage:
1316:C:/Workspaces/DAVE-4.4.2-64Bit/RoverX/Dave/Generated/SPI_MASTER\spi_master.h ****  * @code
1317:C:/Workspaces/DAVE-4.4.2-64Bit/RoverX/Dave/Generated/SPI_MASTER\spi_master.h ****  * #include "DAVE.h"
1318:C:/Workspaces/DAVE-4.4.2-64Bit/RoverX/Dave/Generated/SPI_MASTER\spi_master.h ****  *
1319:C:/Workspaces/DAVE-4.4.2-64Bit/RoverX/Dave/Generated/SPI_MASTER\spi_master.h ****  * //Precondition:
1320:C:/Workspaces/DAVE-4.4.2-64Bit/RoverX/Dave/Generated/SPI_MASTER\spi_master.h ****  * //Configure to use two slaves".
1321:C:/Workspaces/DAVE-4.4.2-64Bit/RoverX/Dave/Generated/SPI_MASTER\spi_master.h ****  * //Description:
1322:C:/Workspaces/DAVE-4.4.2-64Bit/RoverX/Dave/Generated/SPI_MASTER\spi_master.h ****  * //Transmits 10 bytes of data to slave-0 and disables the slave-o. Then enable the slave-1 and tr
1323:C:/Workspaces/DAVE-4.4.2-64Bit/RoverX/Dave/Generated/SPI_MASTER\spi_master.h ****  *
1324:C:/Workspaces/DAVE-4.4.2-64Bit/RoverX/Dave/Generated/SPI_MASTER\spi_master.h ****  * int main(void)
1325:C:/Workspaces/DAVE-4.4.2-64Bit/RoverX/Dave/Generated/SPI_MASTER\spi_master.h ****  * {
1326:C:/Workspaces/DAVE-4.4.2-64Bit/RoverX/Dave/Generated/SPI_MASTER\spi_master.h ****  *   DAVE_STATUS_t status;
1327:C:/Workspaces/DAVE-4.4.2-64Bit/RoverX/Dave/Generated/SPI_MASTER\spi_master.h ****  *   uint8_t Send_Data[] = "Infineon";
1328:C:/Workspaces/DAVE-4.4.2-64Bit/RoverX/Dave/Generated/SPI_MASTER\spi_master.h ****  *
1329:C:/Workspaces/DAVE-4.4.2-64Bit/RoverX/Dave/Generated/SPI_MASTER\spi_master.h ****  *   status = DAVE_Init();    // SPI_MASTER_Init() is called from DAVE_Init()
1330:C:/Workspaces/DAVE-4.4.2-64Bit/RoverX/Dave/Generated/SPI_MASTER\spi_master.h ****  *   if(status == DAVE_STATUS_SUCCESS)
1331:C:/Workspaces/DAVE-4.4.2-64Bit/RoverX/Dave/Generated/SPI_MASTER\spi_master.h ****  *   {
1332:C:/Workspaces/DAVE-4.4.2-64Bit/RoverX/Dave/Generated/SPI_MASTER\spi_master.h ****  *     SPI_MASTER_Transmit(&SPI_MASTER_0, Send_Data, sizeof(Send_Data));
1333:C:/Workspaces/DAVE-4.4.2-64Bit/RoverX/Dave/Generated/SPI_MASTER\spi_master.h ****  *     SPI_MASTER_DisableSlaveSelectSignal(&SPI_MASTER_0);
1334:C:/Workspaces/DAVE-4.4.2-64Bit/RoverX/Dave/Generated/SPI_MASTER\spi_master.h ****  *     SPI_MASTER_EnableSlaveSelectSignal(&SPI_MASTER_0, SPI_MASTER_SS_SIGNAL_1);
1335:C:/Workspaces/DAVE-4.4.2-64Bit/RoverX/Dave/Generated/SPI_MASTER\spi_master.h ****  *     SPI_MASTER_Transmit(&SPI_MASTER_0, Send_Data, sizeof(Send_Data));
1336:C:/Workspaces/DAVE-4.4.2-64Bit/RoverX/Dave/Generated/SPI_MASTER\spi_master.h ****  *   }
1337:C:/Workspaces/DAVE-4.4.2-64Bit/RoverX/Dave/Generated/SPI_MASTER\spi_master.h ****  *
1338:C:/Workspaces/DAVE-4.4.2-64Bit/RoverX/Dave/Generated/SPI_MASTER\spi_master.h ****  *   else
1339:C:/Workspaces/DAVE-4.4.2-64Bit/RoverX/Dave/Generated/SPI_MASTER\spi_master.h ****  *   {
1340:C:/Workspaces/DAVE-4.4.2-64Bit/RoverX/Dave/Generated/SPI_MASTER\spi_master.h ****  *    XMC_DEBUG("main: Application initialization failed");
1341:C:/Workspaces/DAVE-4.4.2-64Bit/RoverX/Dave/Generated/SPI_MASTER\spi_master.h ****  *    while(1U)
1342:C:/Workspaces/DAVE-4.4.2-64Bit/RoverX/Dave/Generated/SPI_MASTER\spi_master.h ****  *    {
1343:C:/Workspaces/DAVE-4.4.2-64Bit/RoverX/Dave/Generated/SPI_MASTER\spi_master.h ****  *    }
1344:C:/Workspaces/DAVE-4.4.2-64Bit/RoverX/Dave/Generated/SPI_MASTER\spi_master.h ****  *   }
1345:C:/Workspaces/DAVE-4.4.2-64Bit/RoverX/Dave/Generated/SPI_MASTER\spi_master.h ****  *    return 1U;
1346:C:/Workspaces/DAVE-4.4.2-64Bit/RoverX/Dave/Generated/SPI_MASTER\spi_master.h ****  * }
1347:C:/Workspaces/DAVE-4.4.2-64Bit/RoverX/Dave/Generated/SPI_MASTER\spi_master.h ****  * @endcode<BR>
1348:C:/Workspaces/DAVE-4.4.2-64Bit/RoverX/Dave/Generated/SPI_MASTER\spi_master.h ****  *
1349:C:/Workspaces/DAVE-4.4.2-64Bit/RoverX/Dave/Generated/SPI_MASTER\spi_master.h ****  */
1350:C:/Workspaces/DAVE-4.4.2-64Bit/RoverX/Dave/Generated/SPI_MASTER\spi_master.h **** __STATIC_INLINE void SPI_MASTER_DisableSlaveSelectSignal(const SPI_MASTER_t* handle)
1351:C:/Workspaces/DAVE-4.4.2-64Bit/RoverX/Dave/Generated/SPI_MASTER\spi_master.h **** {
 151              	 .loc 2 1351 0
 152              	 .cfi_startproc
 153 0000 80B5     	 push {r7,lr}
 154              	.LCFI9:
 155              	 .cfi_def_cfa_offset 8
 156              	 .cfi_offset 7,-8
 157              	 .cfi_offset 14,-4
 158 0002 82B0     	 sub sp,sp,#8
 159              	.LCFI10:
 160              	 .cfi_def_cfa_offset 16
 161 0004 00AF     	 add r7,sp,#0
 162              	.LCFI11:
 163              	 .cfi_def_cfa_register 7
 164 0006 7860     	 str r0,[r7,#4]
1352:C:/Workspaces/DAVE-4.4.2-64Bit/RoverX/Dave/Generated/SPI_MASTER\spi_master.h ****     XMC_ASSERT("SPI_MASTER_Transmit:handle NULL" , (handle != NULL));
1353:C:/Workspaces/DAVE-4.4.2-64Bit/RoverX/Dave/Generated/SPI_MASTER\spi_master.h ****     XMC_SPI_CH_DisableSlaveSelect(handle->channel);
 165              	 .loc 2 1353 0
 166 0008 7B68     	 ldr r3,[r7,#4]
 167 000a 1B68     	 ldr r3,[r3]
 168 000c 181C     	 mov r0,r3
 169 000e FFF7FEFF 	 bl XMC_SPI_CH_DisableSlaveSelect
1354:C:/Workspaces/DAVE-4.4.2-64Bit/RoverX/Dave/Generated/SPI_MASTER\spi_master.h **** }
 170              	 .loc 2 1354 0
 171 0012 BD46     	 mov sp,r7
 172 0014 02B0     	 add sp,sp,#8
 173              	 
 174 0016 80BD     	 pop {r7,pc}
 175              	 .cfi_endproc
 176              	.LFE183:
 178              	 .section .text.SPI_MASTER_TransmitWord,"ax",%progbits
 179              	 .align 2
 180              	 .code 16
 181              	 .thumb_func
 183              	SPI_MASTER_TransmitWord:
 184              	.LFB185:
1355:C:/Workspaces/DAVE-4.4.2-64Bit/RoverX/Dave/Generated/SPI_MASTER\spi_master.h **** 
1356:C:/Workspaces/DAVE-4.4.2-64Bit/RoverX/Dave/Generated/SPI_MASTER\spi_master.h **** /**
1357:C:/Workspaces/DAVE-4.4.2-64Bit/RoverX/Dave/Generated/SPI_MASTER\spi_master.h ****  * @brief Provides data received in the receive buffer.
1358:C:/Workspaces/DAVE-4.4.2-64Bit/RoverX/Dave/Generated/SPI_MASTER\spi_master.h ****  *
1359:C:/Workspaces/DAVE-4.4.2-64Bit/RoverX/Dave/Generated/SPI_MASTER\spi_master.h ****  * @param handle Pointer to static and dynamic content of APP configuration.
1360:C:/Workspaces/DAVE-4.4.2-64Bit/RoverX/Dave/Generated/SPI_MASTER\spi_master.h ****  * @return uint16_t Data read from the receive buffer.
1361:C:/Workspaces/DAVE-4.4.2-64Bit/RoverX/Dave/Generated/SPI_MASTER\spi_master.h ****  *
1362:C:/Workspaces/DAVE-4.4.2-64Bit/RoverX/Dave/Generated/SPI_MASTER\spi_master.h ****  * \par<b>Description:</b><br>
1363:C:/Workspaces/DAVE-4.4.2-64Bit/RoverX/Dave/Generated/SPI_MASTER\spi_master.h ****  * This can be used in receive mode "Direct" to read the received data.
1364:C:/Workspaces/DAVE-4.4.2-64Bit/RoverX/Dave/Generated/SPI_MASTER\spi_master.h ****  * If receive FIFO is not configured, function reads the value of RBUF register.
1365:C:/Workspaces/DAVE-4.4.2-64Bit/RoverX/Dave/Generated/SPI_MASTER\spi_master.h ****  * Otherwise the data is read from OUTR register.
1366:C:/Workspaces/DAVE-4.4.2-64Bit/RoverX/Dave/Generated/SPI_MASTER\spi_master.h ****  * User can poll for receive event or configure an interrupt by connecting
1367:C:/Workspaces/DAVE-4.4.2-64Bit/RoverX/Dave/Generated/SPI_MASTER\spi_master.h ****  * external INTERRUPT APP with receive event signals. This API can be used inside the ISR to read t
1368:C:/Workspaces/DAVE-4.4.2-64Bit/RoverX/Dave/Generated/SPI_MASTER\spi_master.h ****  * <BR>
1369:C:/Workspaces/DAVE-4.4.2-64Bit/RoverX/Dave/Generated/SPI_MASTER\spi_master.h ****  *
1370:C:/Workspaces/DAVE-4.4.2-64Bit/RoverX/Dave/Generated/SPI_MASTER\spi_master.h ****  */
1371:C:/Workspaces/DAVE-4.4.2-64Bit/RoverX/Dave/Generated/SPI_MASTER\spi_master.h **** __STATIC_INLINE uint16_t SPI_MASTER_GetReceivedWord(const SPI_MASTER_t *const handle)
1372:C:/Workspaces/DAVE-4.4.2-64Bit/RoverX/Dave/Generated/SPI_MASTER\spi_master.h **** {
1373:C:/Workspaces/DAVE-4.4.2-64Bit/RoverX/Dave/Generated/SPI_MASTER\spi_master.h ****   XMC_ASSERT("SPI_MASTER_GetReceivedWord:handle NULL" , (handle != NULL));
1374:C:/Workspaces/DAVE-4.4.2-64Bit/RoverX/Dave/Generated/SPI_MASTER\spi_master.h ****   return XMC_SPI_CH_GetReceivedData(handle->channel);
1375:C:/Workspaces/DAVE-4.4.2-64Bit/RoverX/Dave/Generated/SPI_MASTER\spi_master.h **** }
1376:C:/Workspaces/DAVE-4.4.2-64Bit/RoverX/Dave/Generated/SPI_MASTER\spi_master.h **** 
1377:C:/Workspaces/DAVE-4.4.2-64Bit/RoverX/Dave/Generated/SPI_MASTER\spi_master.h **** /**
1378:C:/Workspaces/DAVE-4.4.2-64Bit/RoverX/Dave/Generated/SPI_MASTER\spi_master.h ****  * @brief Transmits a word of data.
1379:C:/Workspaces/DAVE-4.4.2-64Bit/RoverX/Dave/Generated/SPI_MASTER\spi_master.h ****  *
1380:C:/Workspaces/DAVE-4.4.2-64Bit/RoverX/Dave/Generated/SPI_MASTER\spi_master.h ****  * @param handle Pointer to static and dynamic content of APP configuration.
1381:C:/Workspaces/DAVE-4.4.2-64Bit/RoverX/Dave/Generated/SPI_MASTER\spi_master.h ****  * @param data Data to be transmitted
1382:C:/Workspaces/DAVE-4.4.2-64Bit/RoverX/Dave/Generated/SPI_MASTER\spi_master.h ****  *
1383:C:/Workspaces/DAVE-4.4.2-64Bit/RoverX/Dave/Generated/SPI_MASTER\spi_master.h ****  * \par<b>Description:</b><br>
1384:C:/Workspaces/DAVE-4.4.2-64Bit/RoverX/Dave/Generated/SPI_MASTER\spi_master.h ****  * Transmits a word of data through the SPI channel as a master device.
1385:C:/Workspaces/DAVE-4.4.2-64Bit/RoverX/Dave/Generated/SPI_MASTER\spi_master.h ****  * If transmit FIFO is configured, the data is placed in the IN[0] register of the USIC channel.
1386:C:/Workspaces/DAVE-4.4.2-64Bit/RoverX/Dave/Generated/SPI_MASTER\spi_master.h ****  * If transmit FIFO is not configured, API waits for the TBUF to be free and then places the data i
1387:C:/Workspaces/DAVE-4.4.2-64Bit/RoverX/Dave/Generated/SPI_MASTER\spi_master.h ****  * User can poll for receive event or configure interrupt by connecting an
1388:C:/Workspaces/DAVE-4.4.2-64Bit/RoverX/Dave/Generated/SPI_MASTER\spi_master.h ****  * external INTERRUPT APP. This API can be used inside the ISR to read the received data.
1389:C:/Workspaces/DAVE-4.4.2-64Bit/RoverX/Dave/Generated/SPI_MASTER\spi_master.h ****  */
1390:C:/Workspaces/DAVE-4.4.2-64Bit/RoverX/Dave/Generated/SPI_MASTER\spi_master.h **** __STATIC_INLINE void SPI_MASTER_TransmitWord(const SPI_MASTER_t *const handle, const uint16_t data)
1391:C:/Workspaces/DAVE-4.4.2-64Bit/RoverX/Dave/Generated/SPI_MASTER\spi_master.h **** {
 185              	 .loc 2 1391 0
 186              	 .cfi_startproc
 187 0000 80B5     	 push {r7,lr}
 188              	.LCFI12:
 189              	 .cfi_def_cfa_offset 8
 190              	 .cfi_offset 7,-8
 191              	 .cfi_offset 14,-4
 192 0002 82B0     	 sub sp,sp,#8
 193              	.LCFI13:
 194              	 .cfi_def_cfa_offset 16
 195 0004 00AF     	 add r7,sp,#0
 196              	.LCFI14:
 197              	 .cfi_def_cfa_register 7
 198 0006 7860     	 str r0,[r7,#4]
 199 0008 0A1C     	 mov r2,r1
 200 000a BB1C     	 add r3,r7,#2
 201 000c 1A80     	 strh r2,[r3]
1392:C:/Workspaces/DAVE-4.4.2-64Bit/RoverX/Dave/Generated/SPI_MASTER\spi_master.h ****   XMC_ASSERT("SPI_MASTER_TransmitWord:handle NULL" , (handle != NULL));
1393:C:/Workspaces/DAVE-4.4.2-64Bit/RoverX/Dave/Generated/SPI_MASTER\spi_master.h ****   XMC_SPI_CH_Transmit(handle->channel, data, handle->runtime->spi_master_mode);
 202              	 .loc 2 1393 0
 203 000e 7B68     	 ldr r3,[r7,#4]
 204 0010 1968     	 ldr r1,[r3]
 205 0012 7B68     	 ldr r3,[r7,#4]
 206 0014 9B68     	 ldr r3,[r3,#8]
 207 0016 1B7F     	 ldrb r3,[r3,#28]
 208 0018 DAB2     	 uxtb r2,r3
 209 001a BB1C     	 add r3,r7,#2
 210 001c 1B88     	 ldrh r3,[r3]
 211 001e 081C     	 mov r0,r1
 212 0020 191C     	 mov r1,r3
 213 0022 FFF7FEFF 	 bl XMC_SPI_CH_Transmit
1394:C:/Workspaces/DAVE-4.4.2-64Bit/RoverX/Dave/Generated/SPI_MASTER\spi_master.h **** }
 214              	 .loc 2 1394 0
 215 0026 BD46     	 mov sp,r7
 216 0028 02B0     	 add sp,sp,#8
 217              	 
 218 002a 80BD     	 pop {r7,pc}
 219              	 .cfi_endproc
 220              	.LFE185:
 222              	 .section .text.DIGITAL_IO_SetOutputHigh,"ax",%progbits
 223              	 .align 2
 224              	 .code 16
 225              	 .thumb_func
 227              	DIGITAL_IO_SetOutputHigh:
 228              	.LFB200:
 229              	 .file 3 "C:/Workspaces/DAVE-4.4.2-64Bit/RoverX/Dave/Generated/DIGITAL_IO/digital_io.h"
   1:C:/Workspaces/DAVE-4.4.2-64Bit/RoverX/Dave/Generated/DIGITAL_IO\digital_io.h **** /*
   2:C:/Workspaces/DAVE-4.4.2-64Bit/RoverX/Dave/Generated/DIGITAL_IO\digital_io.h ****  *
   3:C:/Workspaces/DAVE-4.4.2-64Bit/RoverX/Dave/Generated/DIGITAL_IO\digital_io.h ****  * @file digital_io.h
   4:C:/Workspaces/DAVE-4.4.2-64Bit/RoverX/Dave/Generated/DIGITAL_IO\digital_io.h ****  * @date 2021-01-08
   5:C:/Workspaces/DAVE-4.4.2-64Bit/RoverX/Dave/Generated/DIGITAL_IO\digital_io.h ****  *
   6:C:/Workspaces/DAVE-4.4.2-64Bit/RoverX/Dave/Generated/DIGITAL_IO\digital_io.h ****  * NOTE:
   7:C:/Workspaces/DAVE-4.4.2-64Bit/RoverX/Dave/Generated/DIGITAL_IO\digital_io.h ****  * This file is generated by DAVE. Any manual modification done to this file will be lost when the 
   8:C:/Workspaces/DAVE-4.4.2-64Bit/RoverX/Dave/Generated/DIGITAL_IO\digital_io.h ****  *
   9:C:/Workspaces/DAVE-4.4.2-64Bit/RoverX/Dave/Generated/DIGITAL_IO\digital_io.h ****  * @cond
  10:C:/Workspaces/DAVE-4.4.2-64Bit/RoverX/Dave/Generated/DIGITAL_IO\digital_io.h ****  **************************************************************************************************
  11:C:/Workspaces/DAVE-4.4.2-64Bit/RoverX/Dave/Generated/DIGITAL_IO\digital_io.h ****  * DIGITAL_IO v4.0.18 - The DIGITAL_IO APP is used to configure a port pin as digital Input/Output.
  12:C:/Workspaces/DAVE-4.4.2-64Bit/RoverX/Dave/Generated/DIGITAL_IO\digital_io.h ****  *
  13:C:/Workspaces/DAVE-4.4.2-64Bit/RoverX/Dave/Generated/DIGITAL_IO\digital_io.h ****  * Copyright (c) 2015-2020, Infineon Technologies AG
  14:C:/Workspaces/DAVE-4.4.2-64Bit/RoverX/Dave/Generated/DIGITAL_IO\digital_io.h ****  * All rights reserved.
  15:C:/Workspaces/DAVE-4.4.2-64Bit/RoverX/Dave/Generated/DIGITAL_IO\digital_io.h ****  *
  16:C:/Workspaces/DAVE-4.4.2-64Bit/RoverX/Dave/Generated/DIGITAL_IO\digital_io.h ****  * Redistribution and use in source and binary forms, with or without modification,are permitted pr
  17:C:/Workspaces/DAVE-4.4.2-64Bit/RoverX/Dave/Generated/DIGITAL_IO\digital_io.h ****  * following conditions are met:
  18:C:/Workspaces/DAVE-4.4.2-64Bit/RoverX/Dave/Generated/DIGITAL_IO\digital_io.h ****  *
  19:C:/Workspaces/DAVE-4.4.2-64Bit/RoverX/Dave/Generated/DIGITAL_IO\digital_io.h ****  *   Redistributions of source code must retain the above copyright notice, this list of conditions
  20:C:/Workspaces/DAVE-4.4.2-64Bit/RoverX/Dave/Generated/DIGITAL_IO\digital_io.h ****  *   disclaimer.
  21:C:/Workspaces/DAVE-4.4.2-64Bit/RoverX/Dave/Generated/DIGITAL_IO\digital_io.h ****  *
  22:C:/Workspaces/DAVE-4.4.2-64Bit/RoverX/Dave/Generated/DIGITAL_IO\digital_io.h ****  *   Redistributions in binary form must reproduce the above copyright notice, this list of conditi
  23:C:/Workspaces/DAVE-4.4.2-64Bit/RoverX/Dave/Generated/DIGITAL_IO\digital_io.h ****  *   following disclaimer in the documentation and/or other materials provided with the distributio
  24:C:/Workspaces/DAVE-4.4.2-64Bit/RoverX/Dave/Generated/DIGITAL_IO\digital_io.h ****  *
  25:C:/Workspaces/DAVE-4.4.2-64Bit/RoverX/Dave/Generated/DIGITAL_IO\digital_io.h ****  *   Neither the name of the copyright holders nor the names of its contributors may be used to end
  26:C:/Workspaces/DAVE-4.4.2-64Bit/RoverX/Dave/Generated/DIGITAL_IO\digital_io.h ****  *   products derived from this software without specific prior written permission.
  27:C:/Workspaces/DAVE-4.4.2-64Bit/RoverX/Dave/Generated/DIGITAL_IO\digital_io.h ****  *
  28:C:/Workspaces/DAVE-4.4.2-64Bit/RoverX/Dave/Generated/DIGITAL_IO\digital_io.h ****  * THIS SOFTWARE IS PROVIDED BY THE COPYRIGHT HOLDERS AND CONTRIBUTORS "AS IS" AND ANY EXPRESS OR I
  29:C:/Workspaces/DAVE-4.4.2-64Bit/RoverX/Dave/Generated/DIGITAL_IO\digital_io.h ****  * INCLUDING, BUT NOT LIMITED TO, THE IMPLIED WARRANTIES OF MERCHANTABILITY AND FITNESS FOR A PARTI
  30:C:/Workspaces/DAVE-4.4.2-64Bit/RoverX/Dave/Generated/DIGITAL_IO\digital_io.h ****  * DISCLAIMED. IN NO EVENT SHALL THE COPYRIGHT HOLDER OR CONTRIBUTORS BE LIABLE  FOR ANY DIRECT, IN
  31:C:/Workspaces/DAVE-4.4.2-64Bit/RoverX/Dave/Generated/DIGITAL_IO\digital_io.h ****  * SPECIAL, EXEMPLARY, OR CONSEQUENTIAL DAMAGES (INCLUDING, BUT NOT LIMITED TO, PROCUREMENT OF SUBS
  32:C:/Workspaces/DAVE-4.4.2-64Bit/RoverX/Dave/Generated/DIGITAL_IO\digital_io.h ****  * SERVICES; LOSS OF USE, DATA, OR PROFITS; OR BUSINESS INTERRUPTION) HOWEVER CAUSED AND ON ANY THE
  33:C:/Workspaces/DAVE-4.4.2-64Bit/RoverX/Dave/Generated/DIGITAL_IO\digital_io.h ****  * WHETHER IN CONTRACT, STRICT LIABILITY,OR TORT (INCLUDING NEGLIGENCE OR OTHERWISE) ARISING IN ANY
  34:C:/Workspaces/DAVE-4.4.2-64Bit/RoverX/Dave/Generated/DIGITAL_IO\digital_io.h ****  * USE OF THIS SOFTWARE, EVEN IF ADVISED OF THE POSSIBILITY OF SUCH DAMAGE.
  35:C:/Workspaces/DAVE-4.4.2-64Bit/RoverX/Dave/Generated/DIGITAL_IO\digital_io.h ****  *
  36:C:/Workspaces/DAVE-4.4.2-64Bit/RoverX/Dave/Generated/DIGITAL_IO\digital_io.h ****  * To improve the quality of the software, users are encouraged to share modifications, enhancement
  37:C:/Workspaces/DAVE-4.4.2-64Bit/RoverX/Dave/Generated/DIGITAL_IO\digital_io.h ****  * with Infineon Technologies AG (dave@infineon.com).
  38:C:/Workspaces/DAVE-4.4.2-64Bit/RoverX/Dave/Generated/DIGITAL_IO\digital_io.h ****  **************************************************************************************************
  39:C:/Workspaces/DAVE-4.4.2-64Bit/RoverX/Dave/Generated/DIGITAL_IO\digital_io.h ****  *
  40:C:/Workspaces/DAVE-4.4.2-64Bit/RoverX/Dave/Generated/DIGITAL_IO\digital_io.h ****  * Change History
  41:C:/Workspaces/DAVE-4.4.2-64Bit/RoverX/Dave/Generated/DIGITAL_IO\digital_io.h ****  * --------------
  42:C:/Workspaces/DAVE-4.4.2-64Bit/RoverX/Dave/Generated/DIGITAL_IO\digital_io.h ****  *
  43:C:/Workspaces/DAVE-4.4.2-64Bit/RoverX/Dave/Generated/DIGITAL_IO\digital_io.h ****  * 2015-02-16
  44:C:/Workspaces/DAVE-4.4.2-64Bit/RoverX/Dave/Generated/DIGITAL_IO\digital_io.h ****  *     - Initial version
  45:C:/Workspaces/DAVE-4.4.2-64Bit/RoverX/Dave/Generated/DIGITAL_IO\digital_io.h ****  *
  46:C:/Workspaces/DAVE-4.4.2-64Bit/RoverX/Dave/Generated/DIGITAL_IO\digital_io.h ****  * 2015-04-22
  47:C:/Workspaces/DAVE-4.4.2-64Bit/RoverX/Dave/Generated/DIGITAL_IO\digital_io.h ****  *     - XMC_ASSERT is added in static inline functions.<br>
  48:C:/Workspaces/DAVE-4.4.2-64Bit/RoverX/Dave/Generated/DIGITAL_IO\digital_io.h ****  *
  49:C:/Workspaces/DAVE-4.4.2-64Bit/RoverX/Dave/Generated/DIGITAL_IO\digital_io.h ****  * 2015-06-20
  50:C:/Workspaces/DAVE-4.4.2-64Bit/RoverX/Dave/Generated/DIGITAL_IO\digital_io.h ****  *     - Version check added for XMCLib dependency.<br>
  51:C:/Workspaces/DAVE-4.4.2-64Bit/RoverX/Dave/Generated/DIGITAL_IO\digital_io.h ****  *
  52:C:/Workspaces/DAVE-4.4.2-64Bit/RoverX/Dave/Generated/DIGITAL_IO\digital_io.h ****  * 2015-12-22
  53:C:/Workspaces/DAVE-4.4.2-64Bit/RoverX/Dave/Generated/DIGITAL_IO\digital_io.h ****  *     - Added hardware controlled IO feature.
  54:C:/Workspaces/DAVE-4.4.2-64Bit/RoverX/Dave/Generated/DIGITAL_IO\digital_io.h ****  * 2016-07-08:
  55:C:/Workspaces/DAVE-4.4.2-64Bit/RoverX/Dave/Generated/DIGITAL_IO\digital_io.h ****  *     - Fixed incorrect case for an included header.<br>
  56:C:/Workspaces/DAVE-4.4.2-64Bit/RoverX/Dave/Generated/DIGITAL_IO\digital_io.h ****  * 2021-01-08:
  57:C:/Workspaces/DAVE-4.4.2-64Bit/RoverX/Dave/Generated/DIGITAL_IO\digital_io.h ****  *     - Modified check for minimum XMCLib version
  58:C:/Workspaces/DAVE-4.4.2-64Bit/RoverX/Dave/Generated/DIGITAL_IO\digital_io.h ****  *
  59:C:/Workspaces/DAVE-4.4.2-64Bit/RoverX/Dave/Generated/DIGITAL_IO\digital_io.h ****  * @endcond
  60:C:/Workspaces/DAVE-4.4.2-64Bit/RoverX/Dave/Generated/DIGITAL_IO\digital_io.h ****  *
  61:C:/Workspaces/DAVE-4.4.2-64Bit/RoverX/Dave/Generated/DIGITAL_IO\digital_io.h ****  */
  62:C:/Workspaces/DAVE-4.4.2-64Bit/RoverX/Dave/Generated/DIGITAL_IO\digital_io.h **** 
  63:C:/Workspaces/DAVE-4.4.2-64Bit/RoverX/Dave/Generated/DIGITAL_IO\digital_io.h **** /**************************************************************************************************
  64:C:/Workspaces/DAVE-4.4.2-64Bit/RoverX/Dave/Generated/DIGITAL_IO\digital_io.h ****  * HEADER FILES
  65:C:/Workspaces/DAVE-4.4.2-64Bit/RoverX/Dave/Generated/DIGITAL_IO\digital_io.h ****  **************************************************************************************************
  66:C:/Workspaces/DAVE-4.4.2-64Bit/RoverX/Dave/Generated/DIGITAL_IO\digital_io.h **** 
  67:C:/Workspaces/DAVE-4.4.2-64Bit/RoverX/Dave/Generated/DIGITAL_IO\digital_io.h **** #ifndef DIGITAL_IO_H
  68:C:/Workspaces/DAVE-4.4.2-64Bit/RoverX/Dave/Generated/DIGITAL_IO\digital_io.h **** #define DIGITAL_IO_H
  69:C:/Workspaces/DAVE-4.4.2-64Bit/RoverX/Dave/Generated/DIGITAL_IO\digital_io.h **** 
  70:C:/Workspaces/DAVE-4.4.2-64Bit/RoverX/Dave/Generated/DIGITAL_IO\digital_io.h **** #include "xmc_gpio.h"
  71:C:/Workspaces/DAVE-4.4.2-64Bit/RoverX/Dave/Generated/DIGITAL_IO\digital_io.h **** #include "DAVE_Common.h"
  72:C:/Workspaces/DAVE-4.4.2-64Bit/RoverX/Dave/Generated/DIGITAL_IO\digital_io.h **** #include "digital_io_conf.h"
  73:C:/Workspaces/DAVE-4.4.2-64Bit/RoverX/Dave/Generated/DIGITAL_IO\digital_io.h **** 
  74:C:/Workspaces/DAVE-4.4.2-64Bit/RoverX/Dave/Generated/DIGITAL_IO\digital_io.h **** /**************************************************************************************************
  75:C:/Workspaces/DAVE-4.4.2-64Bit/RoverX/Dave/Generated/DIGITAL_IO\digital_io.h ****  * MACROS
  76:C:/Workspaces/DAVE-4.4.2-64Bit/RoverX/Dave/Generated/DIGITAL_IO\digital_io.h ****  **************************************************************************************************
  77:C:/Workspaces/DAVE-4.4.2-64Bit/RoverX/Dave/Generated/DIGITAL_IO\digital_io.h **** #define DIGITAL_IO_XMC_LIB_MAJOR_VERSION 2
  78:C:/Workspaces/DAVE-4.4.2-64Bit/RoverX/Dave/Generated/DIGITAL_IO\digital_io.h **** #define DIGITAL_IO_XMC_LIB_MINOR_VERSION 0
  79:C:/Workspaces/DAVE-4.4.2-64Bit/RoverX/Dave/Generated/DIGITAL_IO\digital_io.h **** #define DIGITAL_IO_XMC_LIB_PATCH_VERSION 0
  80:C:/Workspaces/DAVE-4.4.2-64Bit/RoverX/Dave/Generated/DIGITAL_IO\digital_io.h **** 
  81:C:/Workspaces/DAVE-4.4.2-64Bit/RoverX/Dave/Generated/DIGITAL_IO\digital_io.h **** #if !((XMC_LIB_MAJOR_VERSION > DIGITAL_IO_XMC_LIB_MAJOR_VERSION) ||\
  82:C:/Workspaces/DAVE-4.4.2-64Bit/RoverX/Dave/Generated/DIGITAL_IO\digital_io.h ****       ((XMC_LIB_MAJOR_VERSION == DIGITAL_IO_XMC_LIB_MAJOR_VERSION) && (XMC_LIB_MINOR_VERSION > DIGI
  83:C:/Workspaces/DAVE-4.4.2-64Bit/RoverX/Dave/Generated/DIGITAL_IO\digital_io.h ****       ((XMC_LIB_MAJOR_VERSION == DIGITAL_IO_XMC_LIB_MAJOR_VERSION) && (XMC_LIB_MINOR_VERSION == DIG
  84:C:/Workspaces/DAVE-4.4.2-64Bit/RoverX/Dave/Generated/DIGITAL_IO\digital_io.h **** #error "DIGITAL_IO requires XMC Peripheral Library v2.0.0 or higher"
  85:C:/Workspaces/DAVE-4.4.2-64Bit/RoverX/Dave/Generated/DIGITAL_IO\digital_io.h **** #endif
  86:C:/Workspaces/DAVE-4.4.2-64Bit/RoverX/Dave/Generated/DIGITAL_IO\digital_io.h **** 
  87:C:/Workspaces/DAVE-4.4.2-64Bit/RoverX/Dave/Generated/DIGITAL_IO\digital_io.h ****  /*************************************************************************************************
  88:C:/Workspaces/DAVE-4.4.2-64Bit/RoverX/Dave/Generated/DIGITAL_IO\digital_io.h ****  * ENUMS
  89:C:/Workspaces/DAVE-4.4.2-64Bit/RoverX/Dave/Generated/DIGITAL_IO\digital_io.h ****  **************************************************************************************************
  90:C:/Workspaces/DAVE-4.4.2-64Bit/RoverX/Dave/Generated/DIGITAL_IO\digital_io.h **** 
  91:C:/Workspaces/DAVE-4.4.2-64Bit/RoverX/Dave/Generated/DIGITAL_IO\digital_io.h **** /**
  92:C:/Workspaces/DAVE-4.4.2-64Bit/RoverX/Dave/Generated/DIGITAL_IO\digital_io.h **** * @ingroup DIGITAL_IO_enumerations
  93:C:/Workspaces/DAVE-4.4.2-64Bit/RoverX/Dave/Generated/DIGITAL_IO\digital_io.h **** * @{
  94:C:/Workspaces/DAVE-4.4.2-64Bit/RoverX/Dave/Generated/DIGITAL_IO\digital_io.h **** */
  95:C:/Workspaces/DAVE-4.4.2-64Bit/RoverX/Dave/Generated/DIGITAL_IO\digital_io.h **** 
  96:C:/Workspaces/DAVE-4.4.2-64Bit/RoverX/Dave/Generated/DIGITAL_IO\digital_io.h **** /**
  97:C:/Workspaces/DAVE-4.4.2-64Bit/RoverX/Dave/Generated/DIGITAL_IO\digital_io.h **** * @brief Initialization status of DIGITAL_IO APP.
  98:C:/Workspaces/DAVE-4.4.2-64Bit/RoverX/Dave/Generated/DIGITAL_IO\digital_io.h **** */
  99:C:/Workspaces/DAVE-4.4.2-64Bit/RoverX/Dave/Generated/DIGITAL_IO\digital_io.h **** typedef enum DIGITAL_IO_STATUS
 100:C:/Workspaces/DAVE-4.4.2-64Bit/RoverX/Dave/Generated/DIGITAL_IO\digital_io.h **** {
 101:C:/Workspaces/DAVE-4.4.2-64Bit/RoverX/Dave/Generated/DIGITAL_IO\digital_io.h ****   DIGITAL_IO_STATUS_OK = 0U,/**< 0=Status OK */
 102:C:/Workspaces/DAVE-4.4.2-64Bit/RoverX/Dave/Generated/DIGITAL_IO\digital_io.h ****   DIGITAL_IO_STATUS_FAILURE = 1U/**< 1=Status Failed */
 103:C:/Workspaces/DAVE-4.4.2-64Bit/RoverX/Dave/Generated/DIGITAL_IO\digital_io.h **** } DIGITAL_IO_STATUS_t;
 104:C:/Workspaces/DAVE-4.4.2-64Bit/RoverX/Dave/Generated/DIGITAL_IO\digital_io.h **** 
 105:C:/Workspaces/DAVE-4.4.2-64Bit/RoverX/Dave/Generated/DIGITAL_IO\digital_io.h **** /**
 106:C:/Workspaces/DAVE-4.4.2-64Bit/RoverX/Dave/Generated/DIGITAL_IO\digital_io.h **** * @}
 107:C:/Workspaces/DAVE-4.4.2-64Bit/RoverX/Dave/Generated/DIGITAL_IO\digital_io.h **** */
 108:C:/Workspaces/DAVE-4.4.2-64Bit/RoverX/Dave/Generated/DIGITAL_IO\digital_io.h **** 
 109:C:/Workspaces/DAVE-4.4.2-64Bit/RoverX/Dave/Generated/DIGITAL_IO\digital_io.h **** /**************************************************************************************************
 110:C:/Workspaces/DAVE-4.4.2-64Bit/RoverX/Dave/Generated/DIGITAL_IO\digital_io.h ****  * DATA STRUCTURES
 111:C:/Workspaces/DAVE-4.4.2-64Bit/RoverX/Dave/Generated/DIGITAL_IO\digital_io.h ****  **************************************************************************************************
 112:C:/Workspaces/DAVE-4.4.2-64Bit/RoverX/Dave/Generated/DIGITAL_IO\digital_io.h **** /**
 113:C:/Workspaces/DAVE-4.4.2-64Bit/RoverX/Dave/Generated/DIGITAL_IO\digital_io.h **** * @ingroup DIGITAL_IO_datastructures
 114:C:/Workspaces/DAVE-4.4.2-64Bit/RoverX/Dave/Generated/DIGITAL_IO\digital_io.h **** * @{
 115:C:/Workspaces/DAVE-4.4.2-64Bit/RoverX/Dave/Generated/DIGITAL_IO\digital_io.h **** */
 116:C:/Workspaces/DAVE-4.4.2-64Bit/RoverX/Dave/Generated/DIGITAL_IO\digital_io.h **** 
 117:C:/Workspaces/DAVE-4.4.2-64Bit/RoverX/Dave/Generated/DIGITAL_IO\digital_io.h **** /**
 118:C:/Workspaces/DAVE-4.4.2-64Bit/RoverX/Dave/Generated/DIGITAL_IO\digital_io.h **** * @brief Initialization data structure of DIGITAL_IO APP
 119:C:/Workspaces/DAVE-4.4.2-64Bit/RoverX/Dave/Generated/DIGITAL_IO\digital_io.h **** */
 120:C:/Workspaces/DAVE-4.4.2-64Bit/RoverX/Dave/Generated/DIGITAL_IO\digital_io.h **** typedef struct DIGITAL_IO
 121:C:/Workspaces/DAVE-4.4.2-64Bit/RoverX/Dave/Generated/DIGITAL_IO\digital_io.h **** {
 122:C:/Workspaces/DAVE-4.4.2-64Bit/RoverX/Dave/Generated/DIGITAL_IO\digital_io.h ****   XMC_GPIO_PORT_t *const gpio_port;             /**< port number */
 123:C:/Workspaces/DAVE-4.4.2-64Bit/RoverX/Dave/Generated/DIGITAL_IO\digital_io.h ****   const XMC_GPIO_CONFIG_t gpio_config;          /**< mode, initial output level and pad driver stre
 124:C:/Workspaces/DAVE-4.4.2-64Bit/RoverX/Dave/Generated/DIGITAL_IO\digital_io.h ****   const uint8_t gpio_pin;                       /**< pin number */
 125:C:/Workspaces/DAVE-4.4.2-64Bit/RoverX/Dave/Generated/DIGITAL_IO\digital_io.h ****   const XMC_GPIO_HWCTRL_t hwctrl;               /**< Hardware port control */
 126:C:/Workspaces/DAVE-4.4.2-64Bit/RoverX/Dave/Generated/DIGITAL_IO\digital_io.h **** } DIGITAL_IO_t;
 127:C:/Workspaces/DAVE-4.4.2-64Bit/RoverX/Dave/Generated/DIGITAL_IO\digital_io.h **** 
 128:C:/Workspaces/DAVE-4.4.2-64Bit/RoverX/Dave/Generated/DIGITAL_IO\digital_io.h **** 
 129:C:/Workspaces/DAVE-4.4.2-64Bit/RoverX/Dave/Generated/DIGITAL_IO\digital_io.h **** /**
 130:C:/Workspaces/DAVE-4.4.2-64Bit/RoverX/Dave/Generated/DIGITAL_IO\digital_io.h **** * @}
 131:C:/Workspaces/DAVE-4.4.2-64Bit/RoverX/Dave/Generated/DIGITAL_IO\digital_io.h **** */
 132:C:/Workspaces/DAVE-4.4.2-64Bit/RoverX/Dave/Generated/DIGITAL_IO\digital_io.h **** 
 133:C:/Workspaces/DAVE-4.4.2-64Bit/RoverX/Dave/Generated/DIGITAL_IO\digital_io.h **** 
 134:C:/Workspaces/DAVE-4.4.2-64Bit/RoverX/Dave/Generated/DIGITAL_IO\digital_io.h **** /**************************************************************************************************
 135:C:/Workspaces/DAVE-4.4.2-64Bit/RoverX/Dave/Generated/DIGITAL_IO\digital_io.h ****  * API Prototypes
 136:C:/Workspaces/DAVE-4.4.2-64Bit/RoverX/Dave/Generated/DIGITAL_IO\digital_io.h ****  **************************************************************************************************
 137:C:/Workspaces/DAVE-4.4.2-64Bit/RoverX/Dave/Generated/DIGITAL_IO\digital_io.h **** 
 138:C:/Workspaces/DAVE-4.4.2-64Bit/RoverX/Dave/Generated/DIGITAL_IO\digital_io.h **** 
 139:C:/Workspaces/DAVE-4.4.2-64Bit/RoverX/Dave/Generated/DIGITAL_IO\digital_io.h **** #ifdef __cplusplus
 140:C:/Workspaces/DAVE-4.4.2-64Bit/RoverX/Dave/Generated/DIGITAL_IO\digital_io.h **** extern "C" {
 141:C:/Workspaces/DAVE-4.4.2-64Bit/RoverX/Dave/Generated/DIGITAL_IO\digital_io.h **** #endif
 142:C:/Workspaces/DAVE-4.4.2-64Bit/RoverX/Dave/Generated/DIGITAL_IO\digital_io.h **** 
 143:C:/Workspaces/DAVE-4.4.2-64Bit/RoverX/Dave/Generated/DIGITAL_IO\digital_io.h **** /**
 144:C:/Workspaces/DAVE-4.4.2-64Bit/RoverX/Dave/Generated/DIGITAL_IO\digital_io.h **** * @ingroup DIGITAL_IO_apidoc
 145:C:/Workspaces/DAVE-4.4.2-64Bit/RoverX/Dave/Generated/DIGITAL_IO\digital_io.h **** * @{
 146:C:/Workspaces/DAVE-4.4.2-64Bit/RoverX/Dave/Generated/DIGITAL_IO\digital_io.h **** */
 147:C:/Workspaces/DAVE-4.4.2-64Bit/RoverX/Dave/Generated/DIGITAL_IO\digital_io.h **** 
 148:C:/Workspaces/DAVE-4.4.2-64Bit/RoverX/Dave/Generated/DIGITAL_IO\digital_io.h **** 
 149:C:/Workspaces/DAVE-4.4.2-64Bit/RoverX/Dave/Generated/DIGITAL_IO\digital_io.h **** 
 150:C:/Workspaces/DAVE-4.4.2-64Bit/RoverX/Dave/Generated/DIGITAL_IO\digital_io.h **** /**
 151:C:/Workspaces/DAVE-4.4.2-64Bit/RoverX/Dave/Generated/DIGITAL_IO\digital_io.h **** * @brief Get DIGITAL_IO APP version
 152:C:/Workspaces/DAVE-4.4.2-64Bit/RoverX/Dave/Generated/DIGITAL_IO\digital_io.h **** * @return DAVE_APP_VERSION_t APP version information (major, minor and patch number)
 153:C:/Workspaces/DAVE-4.4.2-64Bit/RoverX/Dave/Generated/DIGITAL_IO\digital_io.h **** *
 154:C:/Workspaces/DAVE-4.4.2-64Bit/RoverX/Dave/Generated/DIGITAL_IO\digital_io.h **** * \par<b>Description: </b><br>
 155:C:/Workspaces/DAVE-4.4.2-64Bit/RoverX/Dave/Generated/DIGITAL_IO\digital_io.h **** * The function can be used to check application software compatibility with a
 156:C:/Workspaces/DAVE-4.4.2-64Bit/RoverX/Dave/Generated/DIGITAL_IO\digital_io.h **** * specific version of the APP.
 157:C:/Workspaces/DAVE-4.4.2-64Bit/RoverX/Dave/Generated/DIGITAL_IO\digital_io.h **** *
 158:C:/Workspaces/DAVE-4.4.2-64Bit/RoverX/Dave/Generated/DIGITAL_IO\digital_io.h **** * Example Usage:
 159:C:/Workspaces/DAVE-4.4.2-64Bit/RoverX/Dave/Generated/DIGITAL_IO\digital_io.h **** *
 160:C:/Workspaces/DAVE-4.4.2-64Bit/RoverX/Dave/Generated/DIGITAL_IO\digital_io.h **** * @code
 161:C:/Workspaces/DAVE-4.4.2-64Bit/RoverX/Dave/Generated/DIGITAL_IO\digital_io.h **** * #include "DAVE.h"
 162:C:/Workspaces/DAVE-4.4.2-64Bit/RoverX/Dave/Generated/DIGITAL_IO\digital_io.h **** *
 163:C:/Workspaces/DAVE-4.4.2-64Bit/RoverX/Dave/Generated/DIGITAL_IO\digital_io.h **** * int main(void)
 164:C:/Workspaces/DAVE-4.4.2-64Bit/RoverX/Dave/Generated/DIGITAL_IO\digital_io.h **** * {
 165:C:/Workspaces/DAVE-4.4.2-64Bit/RoverX/Dave/Generated/DIGITAL_IO\digital_io.h **** *   DAVE_STATUS_t init_status;
 166:C:/Workspaces/DAVE-4.4.2-64Bit/RoverX/Dave/Generated/DIGITAL_IO\digital_io.h **** *   DAVE_APP_VERSION_t version;
 167:C:/Workspaces/DAVE-4.4.2-64Bit/RoverX/Dave/Generated/DIGITAL_IO\digital_io.h **** *
 168:C:/Workspaces/DAVE-4.4.2-64Bit/RoverX/Dave/Generated/DIGITAL_IO\digital_io.h **** *   // Initialize DIGITAL_IO APP:
 169:C:/Workspaces/DAVE-4.4.2-64Bit/RoverX/Dave/Generated/DIGITAL_IO\digital_io.h **** *   // DIGITAL_IO_Init() is called from within DAVE_Init().
 170:C:/Workspaces/DAVE-4.4.2-64Bit/RoverX/Dave/Generated/DIGITAL_IO\digital_io.h **** *   init_status = DAVE_Init();
 171:C:/Workspaces/DAVE-4.4.2-64Bit/RoverX/Dave/Generated/DIGITAL_IO\digital_io.h **** *   if(init_status == DAVE_STATUS_SUCCESS)
 172:C:/Workspaces/DAVE-4.4.2-64Bit/RoverX/Dave/Generated/DIGITAL_IO\digital_io.h **** *   {
 173:C:/Workspaces/DAVE-4.4.2-64Bit/RoverX/Dave/Generated/DIGITAL_IO\digital_io.h **** *     version = DIGITAL_IO_GetAppVersion();
 174:C:/Workspaces/DAVE-4.4.2-64Bit/RoverX/Dave/Generated/DIGITAL_IO\digital_io.h **** *     if (version.major != 4U) {
 175:C:/Workspaces/DAVE-4.4.2-64Bit/RoverX/Dave/Generated/DIGITAL_IO\digital_io.h **** *     // Probably, not the right version.
 176:C:/Workspaces/DAVE-4.4.2-64Bit/RoverX/Dave/Generated/DIGITAL_IO\digital_io.h **** *     }
 177:C:/Workspaces/DAVE-4.4.2-64Bit/RoverX/Dave/Generated/DIGITAL_IO\digital_io.h **** *   }
 178:C:/Workspaces/DAVE-4.4.2-64Bit/RoverX/Dave/Generated/DIGITAL_IO\digital_io.h **** *
 179:C:/Workspaces/DAVE-4.4.2-64Bit/RoverX/Dave/Generated/DIGITAL_IO\digital_io.h **** *     // More code here
 180:C:/Workspaces/DAVE-4.4.2-64Bit/RoverX/Dave/Generated/DIGITAL_IO\digital_io.h **** *     while(1) {
 181:C:/Workspaces/DAVE-4.4.2-64Bit/RoverX/Dave/Generated/DIGITAL_IO\digital_io.h **** *
 182:C:/Workspaces/DAVE-4.4.2-64Bit/RoverX/Dave/Generated/DIGITAL_IO\digital_io.h **** *     }
 183:C:/Workspaces/DAVE-4.4.2-64Bit/RoverX/Dave/Generated/DIGITAL_IO\digital_io.h **** *     return (1);
 184:C:/Workspaces/DAVE-4.4.2-64Bit/RoverX/Dave/Generated/DIGITAL_IO\digital_io.h **** *  }
 185:C:/Workspaces/DAVE-4.4.2-64Bit/RoverX/Dave/Generated/DIGITAL_IO\digital_io.h **** * @endcode<BR>
 186:C:/Workspaces/DAVE-4.4.2-64Bit/RoverX/Dave/Generated/DIGITAL_IO\digital_io.h **** */
 187:C:/Workspaces/DAVE-4.4.2-64Bit/RoverX/Dave/Generated/DIGITAL_IO\digital_io.h **** 
 188:C:/Workspaces/DAVE-4.4.2-64Bit/RoverX/Dave/Generated/DIGITAL_IO\digital_io.h **** DAVE_APP_VERSION_t DIGITAL_IO_GetAppVersion(void);
 189:C:/Workspaces/DAVE-4.4.2-64Bit/RoverX/Dave/Generated/DIGITAL_IO\digital_io.h **** 
 190:C:/Workspaces/DAVE-4.4.2-64Bit/RoverX/Dave/Generated/DIGITAL_IO\digital_io.h **** /**
 191:C:/Workspaces/DAVE-4.4.2-64Bit/RoverX/Dave/Generated/DIGITAL_IO\digital_io.h **** *
 192:C:/Workspaces/DAVE-4.4.2-64Bit/RoverX/Dave/Generated/DIGITAL_IO\digital_io.h **** * @brief Function to initialize the port pin as per UI settings.
 193:C:/Workspaces/DAVE-4.4.2-64Bit/RoverX/Dave/Generated/DIGITAL_IO\digital_io.h **** * @param handler Pointer pointing to APP data structure. Refer @ref DIGITAL_IO_t for details.
 194:C:/Workspaces/DAVE-4.4.2-64Bit/RoverX/Dave/Generated/DIGITAL_IO\digital_io.h **** * @return DIGITAL_IO_STATUS_t DIGITAL_IO APP status. Refer @ref DIGITAL_IO_STATUS_t structure for d
 195:C:/Workspaces/DAVE-4.4.2-64Bit/RoverX/Dave/Generated/DIGITAL_IO\digital_io.h **** *
 196:C:/Workspaces/DAVE-4.4.2-64Bit/RoverX/Dave/Generated/DIGITAL_IO\digital_io.h **** * \par<b>Description:</b><br>
 197:C:/Workspaces/DAVE-4.4.2-64Bit/RoverX/Dave/Generated/DIGITAL_IO\digital_io.h **** * This function initializes GPIO port registers IOCR,PDISC,OMR,PDR/PHCR to configure pin direction,
 198:C:/Workspaces/DAVE-4.4.2-64Bit/RoverX/Dave/Generated/DIGITAL_IO\digital_io.h **** * and pad driver strength/hysteresis.
 199:C:/Workspaces/DAVE-4.4.2-64Bit/RoverX/Dave/Generated/DIGITAL_IO\digital_io.h **** *
 200:C:/Workspaces/DAVE-4.4.2-64Bit/RoverX/Dave/Generated/DIGITAL_IO\digital_io.h **** * \par<b>Related APIs:</b><BR>
 201:C:/Workspaces/DAVE-4.4.2-64Bit/RoverX/Dave/Generated/DIGITAL_IO\digital_io.h **** * None
 202:C:/Workspaces/DAVE-4.4.2-64Bit/RoverX/Dave/Generated/DIGITAL_IO\digital_io.h **** *
 203:C:/Workspaces/DAVE-4.4.2-64Bit/RoverX/Dave/Generated/DIGITAL_IO\digital_io.h **** * Example Usage:
 204:C:/Workspaces/DAVE-4.4.2-64Bit/RoverX/Dave/Generated/DIGITAL_IO\digital_io.h **** * @code
 205:C:/Workspaces/DAVE-4.4.2-64Bit/RoverX/Dave/Generated/DIGITAL_IO\digital_io.h **** * #include "DAVE.h" //Declarations from DAVE Code Generation (includes SFR declaration)
 206:C:/Workspaces/DAVE-4.4.2-64Bit/RoverX/Dave/Generated/DIGITAL_IO\digital_io.h **** *
 207:C:/Workspaces/DAVE-4.4.2-64Bit/RoverX/Dave/Generated/DIGITAL_IO\digital_io.h **** * int main(void)
 208:C:/Workspaces/DAVE-4.4.2-64Bit/RoverX/Dave/Generated/DIGITAL_IO\digital_io.h **** * {
 209:C:/Workspaces/DAVE-4.4.2-64Bit/RoverX/Dave/Generated/DIGITAL_IO\digital_io.h **** *   DAVE_STATUS_t status;
 210:C:/Workspaces/DAVE-4.4.2-64Bit/RoverX/Dave/Generated/DIGITAL_IO\digital_io.h **** *   status = DAVE_Init();  //(DAVE_STATUS_t)DIGITAL_IO_Init(&DIGITAL_IO_0) is called within DAVE_In
 211:C:/Workspaces/DAVE-4.4.2-64Bit/RoverX/Dave/Generated/DIGITAL_IO\digital_io.h **** *   if(status == DAVE_STATUS_SUCCESS)
 212:C:/Workspaces/DAVE-4.4.2-64Bit/RoverX/Dave/Generated/DIGITAL_IO\digital_io.h **** *   {
 213:C:/Workspaces/DAVE-4.4.2-64Bit/RoverX/Dave/Generated/DIGITAL_IO\digital_io.h **** *     XMC_DEBUG("DAVE Apps initialization success\n");
 214:C:/Workspaces/DAVE-4.4.2-64Bit/RoverX/Dave/Generated/DIGITAL_IO\digital_io.h **** *   }
 215:C:/Workspaces/DAVE-4.4.2-64Bit/RoverX/Dave/Generated/DIGITAL_IO\digital_io.h **** *   else
 216:C:/Workspaces/DAVE-4.4.2-64Bit/RoverX/Dave/Generated/DIGITAL_IO\digital_io.h **** *   {
 217:C:/Workspaces/DAVE-4.4.2-64Bit/RoverX/Dave/Generated/DIGITAL_IO\digital_io.h **** *     XMC_DEBUG(("DAVE Apps initialization failed with status %d\n", status));
 218:C:/Workspaces/DAVE-4.4.2-64Bit/RoverX/Dave/Generated/DIGITAL_IO\digital_io.h **** *     while(1U)
 219:C:/Workspaces/DAVE-4.4.2-64Bit/RoverX/Dave/Generated/DIGITAL_IO\digital_io.h **** *     {
 220:C:/Workspaces/DAVE-4.4.2-64Bit/RoverX/Dave/Generated/DIGITAL_IO\digital_io.h **** *     }
 221:C:/Workspaces/DAVE-4.4.2-64Bit/RoverX/Dave/Generated/DIGITAL_IO\digital_io.h **** *   }
 222:C:/Workspaces/DAVE-4.4.2-64Bit/RoverX/Dave/Generated/DIGITAL_IO\digital_io.h **** *   //Placeholder for user application code. The while loop below can be replaced with user applica
 223:C:/Workspaces/DAVE-4.4.2-64Bit/RoverX/Dave/Generated/DIGITAL_IO\digital_io.h **** *   while(1U)
 224:C:/Workspaces/DAVE-4.4.2-64Bit/RoverX/Dave/Generated/DIGITAL_IO\digital_io.h **** *   {
 225:C:/Workspaces/DAVE-4.4.2-64Bit/RoverX/Dave/Generated/DIGITAL_IO\digital_io.h **** *   }
 226:C:/Workspaces/DAVE-4.4.2-64Bit/RoverX/Dave/Generated/DIGITAL_IO\digital_io.h **** *   return 1U;
 227:C:/Workspaces/DAVE-4.4.2-64Bit/RoverX/Dave/Generated/DIGITAL_IO\digital_io.h **** *  }
 228:C:/Workspaces/DAVE-4.4.2-64Bit/RoverX/Dave/Generated/DIGITAL_IO\digital_io.h **** *  @endcode
 229:C:/Workspaces/DAVE-4.4.2-64Bit/RoverX/Dave/Generated/DIGITAL_IO\digital_io.h **** */
 230:C:/Workspaces/DAVE-4.4.2-64Bit/RoverX/Dave/Generated/DIGITAL_IO\digital_io.h **** 
 231:C:/Workspaces/DAVE-4.4.2-64Bit/RoverX/Dave/Generated/DIGITAL_IO\digital_io.h **** DIGITAL_IO_STATUS_t DIGITAL_IO_Init(const DIGITAL_IO_t *const handler);
 232:C:/Workspaces/DAVE-4.4.2-64Bit/RoverX/Dave/Generated/DIGITAL_IO\digital_io.h **** 
 233:C:/Workspaces/DAVE-4.4.2-64Bit/RoverX/Dave/Generated/DIGITAL_IO\digital_io.h **** /**
 234:C:/Workspaces/DAVE-4.4.2-64Bit/RoverX/Dave/Generated/DIGITAL_IO\digital_io.h **** *
 235:C:/Workspaces/DAVE-4.4.2-64Bit/RoverX/Dave/Generated/DIGITAL_IO\digital_io.h **** * @brief Function to set port pin high.
 236:C:/Workspaces/DAVE-4.4.2-64Bit/RoverX/Dave/Generated/DIGITAL_IO\digital_io.h **** * @param handler Pointer pointing to APP data structure. Refer @ref DIGITAL_IO_t for details.
 237:C:/Workspaces/DAVE-4.4.2-64Bit/RoverX/Dave/Generated/DIGITAL_IO\digital_io.h **** * @return None
 238:C:/Workspaces/DAVE-4.4.2-64Bit/RoverX/Dave/Generated/DIGITAL_IO\digital_io.h **** *
 239:C:/Workspaces/DAVE-4.4.2-64Bit/RoverX/Dave/Generated/DIGITAL_IO\digital_io.h **** * \par<b>Description:</b><br>
 240:C:/Workspaces/DAVE-4.4.2-64Bit/RoverX/Dave/Generated/DIGITAL_IO\digital_io.h **** * This function configures port output modification register Pn_OMR, to make port pin to high level
 241:C:/Workspaces/DAVE-4.4.2-64Bit/RoverX/Dave/Generated/DIGITAL_IO\digital_io.h **** *
 242:C:/Workspaces/DAVE-4.4.2-64Bit/RoverX/Dave/Generated/DIGITAL_IO\digital_io.h **** * \par<b>Related APIs:</b><BR>
 243:C:/Workspaces/DAVE-4.4.2-64Bit/RoverX/Dave/Generated/DIGITAL_IO\digital_io.h **** *  DIGITAL_IO_SetOutputLow()
 244:C:/Workspaces/DAVE-4.4.2-64Bit/RoverX/Dave/Generated/DIGITAL_IO\digital_io.h **** *
 245:C:/Workspaces/DAVE-4.4.2-64Bit/RoverX/Dave/Generated/DIGITAL_IO\digital_io.h **** * Example Usage:
 246:C:/Workspaces/DAVE-4.4.2-64Bit/RoverX/Dave/Generated/DIGITAL_IO\digital_io.h **** * @code
 247:C:/Workspaces/DAVE-4.4.2-64Bit/RoverX/Dave/Generated/DIGITAL_IO\digital_io.h **** * #include "DAVE.h" //Declarations from DAVE Code Generation (includes SFR declaration)
 248:C:/Workspaces/DAVE-4.4.2-64Bit/RoverX/Dave/Generated/DIGITAL_IO\digital_io.h **** *
 249:C:/Workspaces/DAVE-4.4.2-64Bit/RoverX/Dave/Generated/DIGITAL_IO\digital_io.h **** * int main(void)
 250:C:/Workspaces/DAVE-4.4.2-64Bit/RoverX/Dave/Generated/DIGITAL_IO\digital_io.h **** * {
 251:C:/Workspaces/DAVE-4.4.2-64Bit/RoverX/Dave/Generated/DIGITAL_IO\digital_io.h **** *   DAVE_STATUS_t status;
 252:C:/Workspaces/DAVE-4.4.2-64Bit/RoverX/Dave/Generated/DIGITAL_IO\digital_io.h **** *   status = DAVE_Init();  //(DAVE_STATUS_t)DIGITAL_IO_Init(&DIGITAL_IO_0) is called within DAVE_In
 253:C:/Workspaces/DAVE-4.4.2-64Bit/RoverX/Dave/Generated/DIGITAL_IO\digital_io.h **** *   if(status == DAVE_STATUS_SUCCESS)
 254:C:/Workspaces/DAVE-4.4.2-64Bit/RoverX/Dave/Generated/DIGITAL_IO\digital_io.h **** *   {
 255:C:/Workspaces/DAVE-4.4.2-64Bit/RoverX/Dave/Generated/DIGITAL_IO\digital_io.h **** *     XMC_DEBUG("DAVE Apps initialization success\n");
 256:C:/Workspaces/DAVE-4.4.2-64Bit/RoverX/Dave/Generated/DIGITAL_IO\digital_io.h **** *   }
 257:C:/Workspaces/DAVE-4.4.2-64Bit/RoverX/Dave/Generated/DIGITAL_IO\digital_io.h **** *   else
 258:C:/Workspaces/DAVE-4.4.2-64Bit/RoverX/Dave/Generated/DIGITAL_IO\digital_io.h **** *   {
 259:C:/Workspaces/DAVE-4.4.2-64Bit/RoverX/Dave/Generated/DIGITAL_IO\digital_io.h **** *     XMC_DEBUG(("DAVE Apps initialization failed with status %d\n", status));
 260:C:/Workspaces/DAVE-4.4.2-64Bit/RoverX/Dave/Generated/DIGITAL_IO\digital_io.h **** *     while(1U)
 261:C:/Workspaces/DAVE-4.4.2-64Bit/RoverX/Dave/Generated/DIGITAL_IO\digital_io.h **** *     {
 262:C:/Workspaces/DAVE-4.4.2-64Bit/RoverX/Dave/Generated/DIGITAL_IO\digital_io.h **** *     }
 263:C:/Workspaces/DAVE-4.4.2-64Bit/RoverX/Dave/Generated/DIGITAL_IO\digital_io.h **** *   }
 264:C:/Workspaces/DAVE-4.4.2-64Bit/RoverX/Dave/Generated/DIGITAL_IO\digital_io.h **** *   //Placeholder for user application code. The while loop below can be replaced with user applica
 265:C:/Workspaces/DAVE-4.4.2-64Bit/RoverX/Dave/Generated/DIGITAL_IO\digital_io.h **** *   DIGITAL_IO_SetOutputHigh(&DIGITAL_IO_0);
 266:C:/Workspaces/DAVE-4.4.2-64Bit/RoverX/Dave/Generated/DIGITAL_IO\digital_io.h **** *   while(1U)
 267:C:/Workspaces/DAVE-4.4.2-64Bit/RoverX/Dave/Generated/DIGITAL_IO\digital_io.h **** *   {
 268:C:/Workspaces/DAVE-4.4.2-64Bit/RoverX/Dave/Generated/DIGITAL_IO\digital_io.h **** *     // Add application code here
 269:C:/Workspaces/DAVE-4.4.2-64Bit/RoverX/Dave/Generated/DIGITAL_IO\digital_io.h **** *   }
 270:C:/Workspaces/DAVE-4.4.2-64Bit/RoverX/Dave/Generated/DIGITAL_IO\digital_io.h **** *
 271:C:/Workspaces/DAVE-4.4.2-64Bit/RoverX/Dave/Generated/DIGITAL_IO\digital_io.h **** *   return (1);
 272:C:/Workspaces/DAVE-4.4.2-64Bit/RoverX/Dave/Generated/DIGITAL_IO\digital_io.h **** * }
 273:C:/Workspaces/DAVE-4.4.2-64Bit/RoverX/Dave/Generated/DIGITAL_IO\digital_io.h **** *  @endcode
 274:C:/Workspaces/DAVE-4.4.2-64Bit/RoverX/Dave/Generated/DIGITAL_IO\digital_io.h **** */
 275:C:/Workspaces/DAVE-4.4.2-64Bit/RoverX/Dave/Generated/DIGITAL_IO\digital_io.h **** 
 276:C:/Workspaces/DAVE-4.4.2-64Bit/RoverX/Dave/Generated/DIGITAL_IO\digital_io.h **** __STATIC_INLINE void DIGITAL_IO_SetOutputHigh(const DIGITAL_IO_t *const handler)
 277:C:/Workspaces/DAVE-4.4.2-64Bit/RoverX/Dave/Generated/DIGITAL_IO\digital_io.h **** {
 230              	 .loc 3 277 0
 231              	 .cfi_startproc
 232 0000 80B5     	 push {r7,lr}
 233              	.LCFI15:
 234              	 .cfi_def_cfa_offset 8
 235              	 .cfi_offset 7,-8
 236              	 .cfi_offset 14,-4
 237 0002 82B0     	 sub sp,sp,#8
 238              	.LCFI16:
 239              	 .cfi_def_cfa_offset 16
 240 0004 00AF     	 add r7,sp,#0
 241              	.LCFI17:
 242              	 .cfi_def_cfa_register 7
 243 0006 7860     	 str r0,[r7,#4]
 278:C:/Workspaces/DAVE-4.4.2-64Bit/RoverX/Dave/Generated/DIGITAL_IO\digital_io.h ****   XMC_ASSERT("DIGITAL_IO_SetOutputHigh: handler null pointer", handler != NULL);
 279:C:/Workspaces/DAVE-4.4.2-64Bit/RoverX/Dave/Generated/DIGITAL_IO\digital_io.h ****   XMC_GPIO_SetOutputHigh(handler->gpio_port, handler->gpio_pin);
 244              	 .loc 3 279 0
 245 0008 7B68     	 ldr r3,[r7,#4]
 246 000a 1A68     	 ldr r2,[r3]
 247 000c 7B68     	 ldr r3,[r7,#4]
 248 000e 1B7B     	 ldrb r3,[r3,#12]
 249 0010 101C     	 mov r0,r2
 250 0012 191C     	 mov r1,r3
 251 0014 FFF7FEFF 	 bl XMC_GPIO_SetOutputHigh
 280:C:/Workspaces/DAVE-4.4.2-64Bit/RoverX/Dave/Generated/DIGITAL_IO\digital_io.h **** }
