   1              	 .cpu cortex-m0
   2              	 .fpu softvfp
   3              	 .eabi_attribute 20,1
   4              	 .eabi_attribute 21,1
   5              	 .eabi_attribute 23,3
   6              	 .eabi_attribute 24,1
   7              	 .eabi_attribute 25,1
   8              	 .eabi_attribute 26,1
   9              	 .eabi_attribute 30,6
  10              	 .eabi_attribute 34,0
  11              	 .eabi_attribute 18,4
  12              	 .code 16
  13              	 .file "xmc1_gpio.c"
  14              	 .text
  15              	.Ltext0:
  16              	 .cfi_sections .debug_frame
  17              	 .section .text.XMC_GPIO_Init,"ax",%progbits
  18              	 .align 2
  19              	 .global XMC_GPIO_Init
  20              	 .code 16
  21              	 .thumb_func
  23              	XMC_GPIO_Init:
  24              	.LFB52:
  25              	 .file 1 "../Libraries/XMCLib/src/xmc1_gpio.c"
   1:../Libraries/XMCLib/src/xmc1_gpio.c **** /**
   2:../Libraries/XMCLib/src/xmc1_gpio.c ****  * @file xmc1_gpio.c
   3:../Libraries/XMCLib/src/xmc1_gpio.c ****  * @date 2019-02-19
   4:../Libraries/XMCLib/src/xmc1_gpio.c ****  *
   5:../Libraries/XMCLib/src/xmc1_gpio.c ****  * @cond
   6:../Libraries/XMCLib/src/xmc1_gpio.c ****  *****************************************************************************
   7:../Libraries/XMCLib/src/xmc1_gpio.c ****  * XMClib v2.2.0 - XMC Peripheral Driver Library
   8:../Libraries/XMCLib/src/xmc1_gpio.c ****  *
   9:../Libraries/XMCLib/src/xmc1_gpio.c ****  * Copyright (c) 2015-2020, Infineon Technologies AG
  10:../Libraries/XMCLib/src/xmc1_gpio.c ****  * All rights reserved.
  11:../Libraries/XMCLib/src/xmc1_gpio.c ****  *
  12:../Libraries/XMCLib/src/xmc1_gpio.c ****  * Boost Software License - Version 1.0 - August 17th, 2003
  13:../Libraries/XMCLib/src/xmc1_gpio.c ****  *
  14:../Libraries/XMCLib/src/xmc1_gpio.c ****  * Permission is hereby granted, free of charge, to any person or organization
  15:../Libraries/XMCLib/src/xmc1_gpio.c ****  * obtaining a copy of the software and accompanying documentation covered by
  16:../Libraries/XMCLib/src/xmc1_gpio.c ****  * this license (the "Software") to use, reproduce, display, distribute,
  17:../Libraries/XMCLib/src/xmc1_gpio.c ****  * execute, and transmit the Software, and to prepare derivative works of the
  18:../Libraries/XMCLib/src/xmc1_gpio.c ****  * Software, and to permit third-parties to whom the Software is furnished to
  19:../Libraries/XMCLib/src/xmc1_gpio.c ****  * do so, all subject to the following:
  20:../Libraries/XMCLib/src/xmc1_gpio.c ****  *
  21:../Libraries/XMCLib/src/xmc1_gpio.c ****  * The copyright notices in the Software and this entire statement, including
  22:../Libraries/XMCLib/src/xmc1_gpio.c ****  * the above license grant, this restriction and the following disclaimer,
  23:../Libraries/XMCLib/src/xmc1_gpio.c ****  * must be included in all copies of the Software, in whole or in part, and
  24:../Libraries/XMCLib/src/xmc1_gpio.c ****  * all derivative works of the Software, unless such copies or derivative
  25:../Libraries/XMCLib/src/xmc1_gpio.c ****  * works are solely in the form of machine-executable object code generated by
  26:../Libraries/XMCLib/src/xmc1_gpio.c ****  * a source language processor.
  27:../Libraries/XMCLib/src/xmc1_gpio.c ****  *
  28:../Libraries/XMCLib/src/xmc1_gpio.c ****  * THE SOFTWARE IS PROVIDED "AS IS", WITHOUT WARRANTY OF ANY KIND, EXPRESS OR
  29:../Libraries/XMCLib/src/xmc1_gpio.c ****  * IMPLIED, INCLUDING BUT NOT LIMITED TO THE WARRANTIES OF MERCHANTABILITY,
  30:../Libraries/XMCLib/src/xmc1_gpio.c ****  * FITNESS FOR A PARTICULAR PURPOSE, TITLE AND NON-INFRINGEMENT. IN NO EVENT
  31:../Libraries/XMCLib/src/xmc1_gpio.c ****  * SHALL THE COPYRIGHT HOLDERS OR ANYONE DISTRIBUTING THE SOFTWARE BE LIABLE
  32:../Libraries/XMCLib/src/xmc1_gpio.c ****  * FOR ANY DAMAGES OR OTHER LIABILITY, WHETHER IN CONTRACT, TORT OR OTHERWISE,
  33:../Libraries/XMCLib/src/xmc1_gpio.c ****  * ARISING FROM, OUT OF OR IN CONNECTION WITH THE SOFTWARE OR THE USE OR OTHER
  34:../Libraries/XMCLib/src/xmc1_gpio.c ****  * DEALINGS IN THE SOFTWARE.
  35:../Libraries/XMCLib/src/xmc1_gpio.c ****  *
  36:../Libraries/XMCLib/src/xmc1_gpio.c ****  * To improve the quality of the software, users are encouraged to share
  37:../Libraries/XMCLib/src/xmc1_gpio.c ****  * modifications, enhancements or bug fixes with Infineon Technologies AG
  38:../Libraries/XMCLib/src/xmc1_gpio.c ****  * at XMCSupport@infineon.com.
  39:../Libraries/XMCLib/src/xmc1_gpio.c ****  *****************************************************************************
  40:../Libraries/XMCLib/src/xmc1_gpio.c ****  *
  41:../Libraries/XMCLib/src/xmc1_gpio.c ****  * Change History
  42:../Libraries/XMCLib/src/xmc1_gpio.c ****  * --------------
  43:../Libraries/XMCLib/src/xmc1_gpio.c ****  *
  44:../Libraries/XMCLib/src/xmc1_gpio.c ****  * 2015-02-20:
  45:../Libraries/XMCLib/src/xmc1_gpio.c ****  *     - Initial draft <br>
  46:../Libraries/XMCLib/src/xmc1_gpio.c ****  *
  47:../Libraries/XMCLib/src/xmc1_gpio.c ****  * 2015-06-20:
  48:../Libraries/XMCLib/src/xmc1_gpio.c ****  *     - Removed version macros and declaration of GetDriverVersion API
  49:../Libraries/XMCLib/src/xmc1_gpio.c ****  *
  50:../Libraries/XMCLib/src/xmc1_gpio.c ****  * 2017-09-15:
  51:../Libraries/XMCLib/src/xmc1_gpio.c ****  *     - Fix side effects on output level when programming a pin as input after the same pin in ano
  52:../Libraries/XMCLib/src/xmc1_gpio.c ****  *
  53:../Libraries/XMCLib/src/xmc1_gpio.c ****  * 2019-02-19:
  54:../Libraries/XMCLib/src/xmc1_gpio.c ****  *     - Fix initialization of initial output level in case pin is an analog pin and configured as 
  55:../Libraries/XMCLib/src/xmc1_gpio.c ****  *
  56:../Libraries/XMCLib/src/xmc1_gpio.c ****  * @endcond
  57:../Libraries/XMCLib/src/xmc1_gpio.c ****  *
  58:../Libraries/XMCLib/src/xmc1_gpio.c ****  */
  59:../Libraries/XMCLib/src/xmc1_gpio.c **** 
  60:../Libraries/XMCLib/src/xmc1_gpio.c **** #include "xmc_gpio.h"
  61:../Libraries/XMCLib/src/xmc1_gpio.c **** 
  62:../Libraries/XMCLib/src/xmc1_gpio.c **** #if UC_FAMILY == XMC1
  63:../Libraries/XMCLib/src/xmc1_gpio.c **** 
  64:../Libraries/XMCLib/src/xmc1_gpio.c **** /*******************************************************************************
  65:../Libraries/XMCLib/src/xmc1_gpio.c ****  * MACROS
  66:../Libraries/XMCLib/src/xmc1_gpio.c ****  *******************************************************************************/
  67:../Libraries/XMCLib/src/xmc1_gpio.c **** 
  68:../Libraries/XMCLib/src/xmc1_gpio.c **** #define PORT_PHCR_Msk             PORT0_PHCR0_PH0_Msk
  69:../Libraries/XMCLib/src/xmc1_gpio.c **** #define PORT_PHCR_Size            PORT0_PHCR0_PH0_Msk
  70:../Libraries/XMCLib/src/xmc1_gpio.c **** #define PORT_HWSEL_Msk            PORT0_HWSEL_HW0_Msk
  71:../Libraries/XMCLib/src/xmc1_gpio.c **** #define XMC_GPIO_MODE_OE          XMC_GPIO_MODE_OUTPUT_PUSH_PULL
  72:../Libraries/XMCLib/src/xmc1_gpio.c **** 
  73:../Libraries/XMCLib/src/xmc1_gpio.c **** /*******************************************************************************
  74:../Libraries/XMCLib/src/xmc1_gpio.c ****  * API IMPLEMENTATION
  75:../Libraries/XMCLib/src/xmc1_gpio.c ****  *******************************************************************************/
  76:../Libraries/XMCLib/src/xmc1_gpio.c **** 
  77:../Libraries/XMCLib/src/xmc1_gpio.c **** void XMC_GPIO_Init(XMC_GPIO_PORT_t *const port, const uint8_t pin, const XMC_GPIO_CONFIG_t *const c
  78:../Libraries/XMCLib/src/xmc1_gpio.c **** {
  26              	 .loc 1 78 0
  27              	 .cfi_startproc
  28 0000 90B5     	 push {r4,r7,lr}
  29              	.LCFI0:
  30              	 .cfi_def_cfa_offset 12
  31              	 .cfi_offset 4,-12
  32              	 .cfi_offset 7,-8
  33              	 .cfi_offset 14,-4
  34 0002 85B0     	 sub sp,sp,#20
  35              	.LCFI1:
  36              	 .cfi_def_cfa_offset 32
  37 0004 00AF     	 add r7,sp,#0
  38              	.LCFI2:
  39              	 .cfi_def_cfa_register 7
  40 0006 F860     	 str r0,[r7,#12]
  41 0008 7A60     	 str r2,[r7,#4]
  42 000a 0B23     	 mov r3,#11
  43 000c FB18     	 add r3,r7,r3
  44 000e 0A1C     	 add r2,r1,#0
  45 0010 1A70     	 strb r2,[r3]
  79:../Libraries/XMCLib/src/xmc1_gpio.c ****   XMC_ASSERT("XMC_GPIO_Init: Invalid port", XMC_GPIO_CHECK_PORT(port));
  80:../Libraries/XMCLib/src/xmc1_gpio.c ****   XMC_ASSERT("XMC_GPIO_Init: Invalid mode", XMC_GPIO_IsModeValid(config->mode));
  81:../Libraries/XMCLib/src/xmc1_gpio.c ****   XMC_ASSERT("XMC_GPIO_Init: Invalid input hysteresis", XMC_GPIO_CHECK_INPUT_HYSTERESIS(config->inp
  82:../Libraries/XMCLib/src/xmc1_gpio.c **** 
  83:../Libraries/XMCLib/src/xmc1_gpio.c ****   /* Switch to input */
  84:../Libraries/XMCLib/src/xmc1_gpio.c ****   port->IOCR[pin >> 2U] &= ~(uint32_t)((uint32_t)PORT_IOCR_PC_Msk << (PORT_IOCR_PC_Size * (pin & 0x
  46              	 .loc 1 84 0
  47 0012 0B23     	 mov r3,#11
  48 0014 FB18     	 add r3,r7,r3
  49 0016 1B78     	 ldrb r3,[r3]
  50 0018 9B08     	 lsr r3,r3,#2
  51 001a DBB2     	 uxtb r3,r3
  52 001c 181C     	 mov r0,r3
  53 001e 0B23     	 mov r3,#11
  54 0020 FB18     	 add r3,r7,r3
  55 0022 1B78     	 ldrb r3,[r3]
  56 0024 9B08     	 lsr r3,r3,#2
  57 0026 DBB2     	 uxtb r3,r3
  58 0028 1A1C     	 mov r2,r3
  59 002a FB68     	 ldr r3,[r7,#12]
  60 002c 0432     	 add r2,r2,#4
  61 002e 9200     	 lsl r2,r2,#2
  62 0030 D358     	 ldr r3,[r2,r3]
  63 0032 0B22     	 mov r2,#11
  64 0034 BA18     	 add r2,r7,r2
  65 0036 1278     	 ldrb r2,[r2]
  66 0038 0321     	 mov r1,#3
  67 003a 0A40     	 and r2,r1
  68 003c D200     	 lsl r2,r2,#3
  69 003e 111C     	 mov r1,r2
  70 0040 FC22     	 mov r2,#252
  71 0042 8A40     	 lsl r2,r2,r1
  72 0044 D243     	 mvn r2,r2
  73 0046 1A40     	 and r2,r3
  74 0048 111C     	 mov r1,r2
  75 004a FB68     	 ldr r3,[r7,#12]
  76 004c 021D     	 add r2,r0,#4
  77 004e 9200     	 lsl r2,r2,#2
  78 0050 D150     	 str r1,[r2,r3]
  85:../Libraries/XMCLib/src/xmc1_gpio.c **** 
  86:../Libraries/XMCLib/src/xmc1_gpio.c ****   /* HW port control is disabled */
  87:../Libraries/XMCLib/src/xmc1_gpio.c ****   port->HWSEL &= ~(uint32_t)((uint32_t)PORT_HWSEL_Msk << ((uint32_t)pin << 1U));
  79              	 .loc 1 87 0
  80 0052 FB68     	 ldr r3,[r7,#12]
  81 0054 5B6F     	 ldr r3,[r3,#116]
  82 0056 0B22     	 mov r2,#11
  83 0058 BA18     	 add r2,r7,r2
  84 005a 1278     	 ldrb r2,[r2]
  85 005c 5200     	 lsl r2,r2,#1
  86 005e 111C     	 mov r1,r2
  87 0060 0322     	 mov r2,#3
  88 0062 8A40     	 lsl r2,r2,r1
  89 0064 D243     	 mvn r2,r2
  90 0066 1A40     	 and r2,r3
  91 0068 FB68     	 ldr r3,[r7,#12]
  92 006a 5A67     	 str r2,[r3,#116]
  88:../Libraries/XMCLib/src/xmc1_gpio.c **** 
  89:../Libraries/XMCLib/src/xmc1_gpio.c ****   /* Set input hysteresis */
  90:../Libraries/XMCLib/src/xmc1_gpio.c ****   port->PHCR[(uint32_t)pin >> 3U] &= ~(uint32_t)((uint32_t)PORT_PHCR_Msk << ((uint32_t)PORT_PHCR_Si
  93              	 .loc 1 90 0
  94 006c 0B23     	 mov r3,#11
  95 006e FB18     	 add r3,r7,r3
  96 0070 1B78     	 ldrb r3,[r3]
  97 0072 DB08     	 lsr r3,r3,#3
  98 0074 DBB2     	 uxtb r3,r3
  99 0076 181C     	 mov r0,r3
 100 0078 0B23     	 mov r3,#11
 101 007a FB18     	 add r3,r7,r3
 102 007c 1B78     	 ldrb r3,[r3]
 103 007e DB08     	 lsr r3,r3,#3
 104 0080 DBB2     	 uxtb r3,r3
 105 0082 1A1C     	 mov r2,r3
 106 0084 FB68     	 ldr r3,[r7,#12]
 107 0086 1032     	 add r2,r2,#16
 108 0088 9200     	 lsl r2,r2,#2
 109 008a D358     	 ldr r3,[r2,r3]
 110 008c 0B22     	 mov r2,#11
 111 008e BA18     	 add r2,r7,r2
 112 0090 1278     	 ldrb r2,[r2]
 113 0092 0721     	 mov r1,#7
 114 0094 0A40     	 and r2,r1
 115 0096 9200     	 lsl r2,r2,#2
 116 0098 111C     	 mov r1,r2
 117 009a 0422     	 mov r2,#4
 118 009c 8A40     	 lsl r2,r2,r1
 119 009e D243     	 mvn r2,r2
 120 00a0 1A40     	 and r2,r3
 121 00a2 111C     	 mov r1,r2
 122 00a4 FB68     	 ldr r3,[r7,#12]
 123 00a6 021C     	 mov r2,r0
 124 00a8 1032     	 add r2,r2,#16
 125 00aa 9200     	 lsl r2,r2,#2
 126 00ac D150     	 str r1,[r2,r3]
  91:../Libraries/XMCLib/src/xmc1_gpio.c ****   port->PHCR[(uint32_t)pin >> 3U] |= (uint32_t)config->input_hysteresis << ((uint32_t)PORT_PHCR_Siz
 127              	 .loc 1 91 0
 128 00ae 0B23     	 mov r3,#11
 129 00b0 FB18     	 add r3,r7,r3
 130 00b2 1B78     	 ldrb r3,[r3]
 131 00b4 DB08     	 lsr r3,r3,#3
 132 00b6 DBB2     	 uxtb r3,r3
 133 00b8 181C     	 mov r0,r3
 134 00ba 0B23     	 mov r3,#11
 135 00bc FB18     	 add r3,r7,r3
 136 00be 1B78     	 ldrb r3,[r3]
 137 00c0 DB08     	 lsr r3,r3,#3
 138 00c2 DBB2     	 uxtb r3,r3
 139 00c4 1A1C     	 mov r2,r3
 140 00c6 FB68     	 ldr r3,[r7,#12]
 141 00c8 1032     	 add r2,r2,#16
 142 00ca 9200     	 lsl r2,r2,#2
 143 00cc D258     	 ldr r2,[r2,r3]
 144 00ce 7B68     	 ldr r3,[r7,#4]
 145 00d0 5B78     	 ldrb r3,[r3,#1]
 146 00d2 1C1C     	 mov r4,r3
 147 00d4 0B23     	 mov r3,#11
 148 00d6 FB18     	 add r3,r7,r3
 149 00d8 1B78     	 ldrb r3,[r3]
 150 00da 0721     	 mov r1,#7
 151 00dc 0B40     	 and r3,r1
 152 00de 9B00     	 lsl r3,r3,#2
 153 00e0 9C40     	 lsl r4,r4,r3
 154 00e2 231C     	 mov r3,r4
 155 00e4 1A43     	 orr r2,r3
 156 00e6 111C     	 mov r1,r2
 157 00e8 FB68     	 ldr r3,[r7,#12]
 158 00ea 021C     	 mov r2,r0
 159 00ec 1032     	 add r2,r2,#16
 160 00ee 9200     	 lsl r2,r2,#2
 161 00f0 D150     	 str r1,[r2,r3]
  92:../Libraries/XMCLib/src/xmc1_gpio.c **** 
  93:../Libraries/XMCLib/src/xmc1_gpio.c ****   /* Enable digital input */
  94:../Libraries/XMCLib/src/xmc1_gpio.c ****   if (XMC_GPIO_CHECK_ANALOG_PORT(port))
 162              	 .loc 1 94 0
 163 00f2 FB68     	 ldr r3,[r7,#12]
 164 00f4 204A     	 ldr r2,.L4
 165 00f6 9342     	 cmp r3,r2
 166 00f8 0BD1     	 bne .L2
  95:../Libraries/XMCLib/src/xmc1_gpio.c ****   {
  96:../Libraries/XMCLib/src/xmc1_gpio.c ****     port->PDISC &= ~(uint32_t)((uint32_t)0x1U << pin);
 167              	 .loc 1 96 0
 168 00fa FB68     	 ldr r3,[r7,#12]
 169 00fc 1B6E     	 ldr r3,[r3,#96]
 170 00fe 0B22     	 mov r2,#11
 171 0100 BA18     	 add r2,r7,r2
 172 0102 1278     	 ldrb r2,[r2]
 173 0104 0121     	 mov r1,#1
 174 0106 9140     	 lsl r1,r1,r2
 175 0108 0A1C     	 mov r2,r1
 176 010a D243     	 mvn r2,r2
 177 010c 1A40     	 and r2,r3
 178 010e FB68     	 ldr r3,[r7,#12]
 179 0110 1A66     	 str r2,[r3,#96]
 180              	.L2:
  97:../Libraries/XMCLib/src/xmc1_gpio.c ****   }
  98:../Libraries/XMCLib/src/xmc1_gpio.c **** 
  99:../Libraries/XMCLib/src/xmc1_gpio.c ****   if ((config->mode & XMC_GPIO_MODE_OE) != 0)
 181              	 .loc 1 99 0
 182 0112 7B68     	 ldr r3,[r7,#4]
 183 0114 1B78     	 ldrb r3,[r3]
 184 0116 DBB2     	 uxtb r3,r3
 185 0118 5BB2     	 sxtb r3,r3
 186 011a 002B     	 cmp r3,#0
 187 011c 07DA     	 bge .L3
 100:../Libraries/XMCLib/src/xmc1_gpio.c ****   {
 101:../Libraries/XMCLib/src/xmc1_gpio.c ****     /* If output is enabled */
 102:../Libraries/XMCLib/src/xmc1_gpio.c **** 
 103:../Libraries/XMCLib/src/xmc1_gpio.c ****     /* Set output level */
 104:../Libraries/XMCLib/src/xmc1_gpio.c ****     port->OMR = (uint32_t)config->output_level << pin;
 188              	 .loc 1 104 0
 189 011e 7B68     	 ldr r3,[r7,#4]
 190 0120 5A68     	 ldr r2,[r3,#4]
 191 0122 0B23     	 mov r3,#11
 192 0124 FB18     	 add r3,r7,r3
 193 0126 1B78     	 ldrb r3,[r3]
 194 0128 9A40     	 lsl r2,r2,r3
 195 012a FB68     	 ldr r3,[r7,#12]
 196 012c 5A60     	 str r2,[r3,#4]
 197              	.L3:
 105:../Libraries/XMCLib/src/xmc1_gpio.c ****   }
 106:../Libraries/XMCLib/src/xmc1_gpio.c **** 
 107:../Libraries/XMCLib/src/xmc1_gpio.c ****   /* Set mode */
 108:../Libraries/XMCLib/src/xmc1_gpio.c ****   port->IOCR[pin >> 2U] |= (uint32_t)config->mode << (PORT_IOCR_PC_Size * (pin & 0x3U));
 198              	 .loc 1 108 0
 199 012e 0B23     	 mov r3,#11
 200 0130 FB18     	 add r3,r7,r3
 201 0132 1B78     	 ldrb r3,[r3]
 202 0134 9B08     	 lsr r3,r3,#2
 203 0136 DBB2     	 uxtb r3,r3
 204 0138 181C     	 mov r0,r3
 205 013a 0B23     	 mov r3,#11
 206 013c FB18     	 add r3,r7,r3
 207 013e 1B78     	 ldrb r3,[r3]
 208 0140 9B08     	 lsr r3,r3,#2
 209 0142 DBB2     	 uxtb r3,r3
 210 0144 1A1C     	 mov r2,r3
 211 0146 FB68     	 ldr r3,[r7,#12]
 212 0148 0432     	 add r2,r2,#4
 213 014a 9200     	 lsl r2,r2,#2
 214 014c D258     	 ldr r2,[r2,r3]
 215 014e 7B68     	 ldr r3,[r7,#4]
 216 0150 1B78     	 ldrb r3,[r3]
 217 0152 1C1C     	 mov r4,r3
 218 0154 0B23     	 mov r3,#11
 219 0156 FB18     	 add r3,r7,r3
 220 0158 1B78     	 ldrb r3,[r3]
 221 015a 0321     	 mov r1,#3
 222 015c 0B40     	 and r3,r1
 223 015e DB00     	 lsl r3,r3,#3
 224 0160 9C40     	 lsl r4,r4,r3
 225 0162 231C     	 mov r3,r4
 226 0164 1A43     	 orr r2,r3
 227 0166 111C     	 mov r1,r2
 228 0168 FB68     	 ldr r3,[r7,#12]
 229 016a 021D     	 add r2,r0,#4
 230 016c 9200     	 lsl r2,r2,#2
 231 016e D150     	 str r1,[r2,r3]
 109:../Libraries/XMCLib/src/xmc1_gpio.c **** }
 232              	 .loc 1 109 0
 233 0170 BD46     	 mov sp,r7
 234 0172 05B0     	 add sp,sp,#20
 235              	 
 236 0174 90BD     	 pop {r4,r7,pc}
 237              	.L5:
 238 0176 C046     	 .align 2
 239              	.L4:
 240 0178 00020440 	 .word 1074004480
 241              	 .cfi_endproc
 242              	.LFE52:
 244              	 .section .text.XMC_GPIO_SetInputHysteresis,"ax",%progbits
 245              	 .align 2
 246              	 .global XMC_GPIO_SetInputHysteresis
 247              	 .code 16
 248              	 .thumb_func
 250              	XMC_GPIO_SetInputHysteresis:
 251              	.LFB53:
 110:../Libraries/XMCLib/src/xmc1_gpio.c **** 
 111:../Libraries/XMCLib/src/xmc1_gpio.c **** void XMC_GPIO_SetInputHysteresis(XMC_GPIO_PORT_t *const port,
 112:../Libraries/XMCLib/src/xmc1_gpio.c ****                                  const uint8_t pin,
 113:../Libraries/XMCLib/src/xmc1_gpio.c ****                                  const XMC_GPIO_INPUT_HYSTERESIS_t hysteresis)
 114:../Libraries/XMCLib/src/xmc1_gpio.c **** {
 252              	 .loc 1 114 0
 253              	 .cfi_startproc
 254 0000 90B5     	 push {r4,r7,lr}
 255              	.LCFI3:
 256              	 .cfi_def_cfa_offset 12
 257              	 .cfi_offset 4,-12
 258              	 .cfi_offset 7,-8
 259              	 .cfi_offset 14,-4
 260 0002 83B0     	 sub sp,sp,#12
 261              	.LCFI4:
 262              	 .cfi_def_cfa_offset 24
 263 0004 00AF     	 add r7,sp,#0
 264              	.LCFI5:
 265              	 .cfi_def_cfa_register 7
 266 0006 7860     	 str r0,[r7,#4]
 267 0008 081C     	 mov r0,r1
 268 000a 111C     	 mov r1,r2
 269 000c FB1C     	 add r3,r7,#3
 270 000e 021C     	 add r2,r0,#0
 271 0010 1A70     	 strb r2,[r3]
 272 0012 BB1C     	 add r3,r7,#2
 273 0014 0A1C     	 add r2,r1,#0
 274 0016 1A70     	 strb r2,[r3]
 115:../Libraries/XMCLib/src/xmc1_gpio.c ****   XMC_ASSERT("XMC_GPIO_SetInputHysteresis: Invalid port", XMC_GPIO_CHECK_PORT(port));
 116:../Libraries/XMCLib/src/xmc1_gpio.c ****   XMC_ASSERT("XMC_GPIO_SetInputHysteresis: Invalid input hysteresis", XMC_GPIO_CHECK_INPUT_HYSTERES
 117:../Libraries/XMCLib/src/xmc1_gpio.c **** 
 118:../Libraries/XMCLib/src/xmc1_gpio.c ****   port->PHCR[(uint32_t)pin >> 3U] &= ~(uint32_t)((uint32_t)PORT_PHCR_Msk << ((uint32_t)PORT_PHCR_Si
 275              	 .loc 1 118 0
 276 0018 FB1C     	 add r3,r7,#3
 277 001a 1B78     	 ldrb r3,[r3]
 278 001c DB08     	 lsr r3,r3,#3
 279 001e DBB2     	 uxtb r3,r3
 280 0020 181C     	 mov r0,r3
 281 0022 FB1C     	 add r3,r7,#3
 282 0024 1B78     	 ldrb r3,[r3]
 283 0026 DB08     	 lsr r3,r3,#3
 284 0028 DBB2     	 uxtb r3,r3
 285 002a 1A1C     	 mov r2,r3
 286 002c 7B68     	 ldr r3,[r7,#4]
 287 002e 1032     	 add r2,r2,#16
 288 0030 9200     	 lsl r2,r2,#2
 289 0032 D358     	 ldr r3,[r2,r3]
 290 0034 FA1C     	 add r2,r7,#3
 291 0036 1278     	 ldrb r2,[r2]
 292 0038 0721     	 mov r1,#7
 293 003a 0A40     	 and r2,r1
 294 003c 9200     	 lsl r2,r2,#2
 295 003e 111C     	 mov r1,r2
 296 0040 0422     	 mov r2,#4
 297 0042 8A40     	 lsl r2,r2,r1
 298 0044 D243     	 mvn r2,r2
 299 0046 1A40     	 and r2,r3
 300 0048 111C     	 mov r1,r2
 301 004a 7B68     	 ldr r3,[r7,#4]
 302 004c 021C     	 mov r2,r0
 303 004e 1032     	 add r2,r2,#16
 304 0050 9200     	 lsl r2,r2,#2
 305 0052 D150     	 str r1,[r2,r3]
 119:../Libraries/XMCLib/src/xmc1_gpio.c ****   port->PHCR[(uint32_t)pin >> 3U] |= (uint32_t)hysteresis << ((uint32_t)PORT_PHCR_Size * ((uint32_t
 306              	 .loc 1 119 0
 307 0054 FB1C     	 add r3,r7,#3
 308 0056 1B78     	 ldrb r3,[r3]
 309 0058 DB08     	 lsr r3,r3,#3
 310 005a DBB2     	 uxtb r3,r3
 311 005c 1C1C     	 mov r4,r3
 312 005e FB1C     	 add r3,r7,#3
 313 0060 1B78     	 ldrb r3,[r3]
 314 0062 DB08     	 lsr r3,r3,#3
 315 0064 DBB2     	 uxtb r3,r3
 316 0066 1A1C     	 mov r2,r3
 317 0068 7B68     	 ldr r3,[r7,#4]
 318 006a 1032     	 add r2,r2,#16
 319 006c 9200     	 lsl r2,r2,#2
 320 006e D258     	 ldr r2,[r2,r3]
 321 0070 BB1C     	 add r3,r7,#2
 322 0072 1B78     	 ldrb r3,[r3]
 323 0074 F91C     	 add r1,r7,#3
 324 0076 0978     	 ldrb r1,[r1]
 325 0078 0720     	 mov r0,#7
 326 007a 0140     	 and r1,r0
 327 007c 8900     	 lsl r1,r1,#2
 328 007e 8B40     	 lsl r3,r3,r1
 329 0080 1A43     	 orr r2,r3
 330 0082 111C     	 mov r1,r2
 331 0084 7B68     	 ldr r3,[r7,#4]
 332 0086 221C     	 mov r2,r4
 333 0088 1032     	 add r2,r2,#16
 334 008a 9200     	 lsl r2,r2,#2
 335 008c D150     	 str r1,[r2,r3]
 120:../Libraries/XMCLib/src/xmc1_gpio.c **** }
 336              	 .loc 1 120 0
 337 008e BD46     	 mov sp,r7
 338 0090 03B0     	 add sp,sp,#12
 339              	 
 340 0092 90BD     	 pop {r4,r7,pc}
 341              	 .cfi_endproc
 342              	.LFE53:
 344              	 .text
 345              	.Letext0:
 346              	 .file 2 "d:\\downloads\\dave_4-4-2_64bit_2018-02-23\\dave-ide-4.4.2-64bit\\dave-ide-4.4.2-64bit\\eclipse\\arm-gcc-49\\arm-none-eabi\\include\\machine\\_default_types.h"
 347              	 .file 3 "d:\\downloads\\dave_4-4-2_64bit_2018-02-23\\dave-ide-4.4.2-64bit\\dave-ide-4.4.2-64bit\\eclipse\\arm-gcc-49\\arm-none-eabi\\include\\stdint.h"
 348              	 .file 4 "C:/Workspaces/DAVE-4.4.2-64Bit/RoverX/Libraries/XMCLib/inc/xmc_gpio.h"
 349              	 .file 5 "C:/Workspaces/DAVE-4.4.2-64Bit/RoverX/Libraries/XMCLib/inc/xmc1_gpio.h"
 350              	 .file 6 "C:/Workspaces/DAVE-4.4.2-64Bit/RoverX/Libraries/CMSIS/Include/cmsis_gcc.h"