   1              	 .cpu cortex-m0
   2              	 .fpu softvfp
   3              	 .eabi_attribute 20,1
   4              	 .eabi_attribute 21,1
   5              	 .eabi_attribute 23,3
   6              	 .eabi_attribute 24,1
   7              	 .eabi_attribute 25,1
   8              	 .eabi_attribute 26,1
   9              	 .eabi_attribute 30,6
  10              	 .eabi_attribute 34,0
  11              	 .eabi_attribute 18,4
  12              	 .code 16
  13              	 .file "xmc1_eru.c"
  14              	 .text
  15              	.Ltext0:
  16              	 .cfi_sections .debug_frame
  17              	 .section .text.XMC_ERU_Enable,"ax",%progbits
  18              	 .align 2
  19              	 .global XMC_ERU_Enable
  20              	 .code 16
  21              	 .thumb_func
  23              	XMC_ERU_Enable:
  24              	.LFB46:
  25              	 .file 1 "../Libraries/XMCLib/src/xmc1_eru.c"
   1:../Libraries/XMCLib/src/xmc1_eru.c **** /**
   2:../Libraries/XMCLib/src/xmc1_eru.c ****  * @file xmc1_eru.c
   3:../Libraries/XMCLib/src/xmc1_eru.c ****  * @date 2015-02-20
   4:../Libraries/XMCLib/src/xmc1_eru.c ****  *
   5:../Libraries/XMCLib/src/xmc1_eru.c ****  * @cond
   6:../Libraries/XMCLib/src/xmc1_eru.c ****  *****************************************************************************
   7:../Libraries/XMCLib/src/xmc1_eru.c ****  * XMClib v2.2.0 - XMC Peripheral Driver Library
   8:../Libraries/XMCLib/src/xmc1_eru.c ****  *
   9:../Libraries/XMCLib/src/xmc1_eru.c ****  * Copyright (c) 2015-2020, Infineon Technologies AG
  10:../Libraries/XMCLib/src/xmc1_eru.c ****  * All rights reserved.
  11:../Libraries/XMCLib/src/xmc1_eru.c ****  *
  12:../Libraries/XMCLib/src/xmc1_eru.c ****  * Boost Software License - Version 1.0 - August 17th, 2003
  13:../Libraries/XMCLib/src/xmc1_eru.c ****  *
  14:../Libraries/XMCLib/src/xmc1_eru.c ****  * Permission is hereby granted, free of charge, to any person or organization
  15:../Libraries/XMCLib/src/xmc1_eru.c ****  * obtaining a copy of the software and accompanying documentation covered by
  16:../Libraries/XMCLib/src/xmc1_eru.c ****  * this license (the "Software") to use, reproduce, display, distribute,
  17:../Libraries/XMCLib/src/xmc1_eru.c ****  * execute, and transmit the Software, and to prepare derivative works of the
  18:../Libraries/XMCLib/src/xmc1_eru.c ****  * Software, and to permit third-parties to whom the Software is furnished to
  19:../Libraries/XMCLib/src/xmc1_eru.c ****  * do so, all subject to the following:
  20:../Libraries/XMCLib/src/xmc1_eru.c ****  *
  21:../Libraries/XMCLib/src/xmc1_eru.c ****  * The copyright notices in the Software and this entire statement, including
  22:../Libraries/XMCLib/src/xmc1_eru.c ****  * the above license grant, this restriction and the following disclaimer,
  23:../Libraries/XMCLib/src/xmc1_eru.c ****  * must be included in all copies of the Software, in whole or in part, and
  24:../Libraries/XMCLib/src/xmc1_eru.c ****  * all derivative works of the Software, unless such copies or derivative
  25:../Libraries/XMCLib/src/xmc1_eru.c ****  * works are solely in the form of machine-executable object code generated by
  26:../Libraries/XMCLib/src/xmc1_eru.c ****  * a source language processor.
  27:../Libraries/XMCLib/src/xmc1_eru.c ****  *
  28:../Libraries/XMCLib/src/xmc1_eru.c ****  * THE SOFTWARE IS PROVIDED "AS IS", WITHOUT WARRANTY OF ANY KIND, EXPRESS OR
  29:../Libraries/XMCLib/src/xmc1_eru.c ****  * IMPLIED, INCLUDING BUT NOT LIMITED TO THE WARRANTIES OF MERCHANTABILITY,
  30:../Libraries/XMCLib/src/xmc1_eru.c ****  * FITNESS FOR A PARTICULAR PURPOSE, TITLE AND NON-INFRINGEMENT. IN NO EVENT
  31:../Libraries/XMCLib/src/xmc1_eru.c ****  * SHALL THE COPYRIGHT HOLDERS OR ANYONE DISTRIBUTING THE SOFTWARE BE LIABLE
  32:../Libraries/XMCLib/src/xmc1_eru.c ****  * FOR ANY DAMAGES OR OTHER LIABILITY, WHETHER IN CONTRACT, TORT OR OTHERWISE,
  33:../Libraries/XMCLib/src/xmc1_eru.c ****  * ARISING FROM, OUT OF OR IN CONNECTION WITH THE SOFTWARE OR THE USE OR OTHER
  34:../Libraries/XMCLib/src/xmc1_eru.c ****  * DEALINGS IN THE SOFTWARE.
  35:../Libraries/XMCLib/src/xmc1_eru.c ****  *
  36:../Libraries/XMCLib/src/xmc1_eru.c ****  * To improve the quality of the software, users are encouraged to share
  37:../Libraries/XMCLib/src/xmc1_eru.c ****  * modifications, enhancements or bug fixes with Infineon Technologies AG
  38:../Libraries/XMCLib/src/xmc1_eru.c ****  * at XMCSupport@infineon.com.
  39:../Libraries/XMCLib/src/xmc1_eru.c ****  *****************************************************************************
  40:../Libraries/XMCLib/src/xmc1_eru.c ****  *
  41:../Libraries/XMCLib/src/xmc1_eru.c ****  * Change History
  42:../Libraries/XMCLib/src/xmc1_eru.c ****  * --------------
  43:../Libraries/XMCLib/src/xmc1_eru.c ****  *
  44:../Libraries/XMCLib/src/xmc1_eru.c ****  * 2015-02-20:
  45:../Libraries/XMCLib/src/xmc1_eru.c ****  *     - Initial <br>
  46:../Libraries/XMCLib/src/xmc1_eru.c ****  *
  47:../Libraries/XMCLib/src/xmc1_eru.c ****  * @endcond
  48:../Libraries/XMCLib/src/xmc1_eru.c ****  */
  49:../Libraries/XMCLib/src/xmc1_eru.c **** 
  50:../Libraries/XMCLib/src/xmc1_eru.c **** #include "xmc_eru.h"
  51:../Libraries/XMCLib/src/xmc1_eru.c **** 
  52:../Libraries/XMCLib/src/xmc1_eru.c **** #if UC_FAMILY == XMC1
  53:../Libraries/XMCLib/src/xmc1_eru.c **** 
  54:../Libraries/XMCLib/src/xmc1_eru.c **** /**************************************************************************************************
  55:../Libraries/XMCLib/src/xmc1_eru.c ****  * API IMPLEMENTATION
  56:../Libraries/XMCLib/src/xmc1_eru.c ****  **************************************************************************************************
  57:../Libraries/XMCLib/src/xmc1_eru.c **** 
  58:../Libraries/XMCLib/src/xmc1_eru.c **** void XMC_ERU_Enable(XMC_ERU_t *const eru)
  59:../Libraries/XMCLib/src/xmc1_eru.c **** {
  26              	 .loc 1 59 0
  27              	 .cfi_startproc
  28 0000 80B5     	 push {r7,lr}
  29              	.LCFI0:
  30              	 .cfi_def_cfa_offset 8
  31              	 .cfi_offset 7,-8
  32              	 .cfi_offset 14,-4
  33 0002 82B0     	 sub sp,sp,#8
  34              	.LCFI1:
  35              	 .cfi_def_cfa_offset 16
  36 0004 00AF     	 add r7,sp,#0
  37              	.LCFI2:
  38              	 .cfi_def_cfa_register 7
  39 0006 7860     	 str r0,[r7,#4]
  60:../Libraries/XMCLib/src/xmc1_eru.c ****   XMC_UNUSED_ARG(eru);
  61:../Libraries/XMCLib/src/xmc1_eru.c **** }
  40              	 .loc 1 61 0
  41 0008 BD46     	 mov sp,r7
  42 000a 02B0     	 add sp,sp,#8
  43              	 
  44 000c 80BD     	 pop {r7,pc}
  45              	 .cfi_endproc
  46              	.LFE46:
  48 000e C046     	 .section .text.XMC_ERU_Disable,"ax",%progbits
  49              	 .align 2
  50              	 .global XMC_ERU_Disable
  51              	 .code 16
  52              	 .thumb_func
  54              	XMC_ERU_Disable:
  55              	.LFB47:
  62:../Libraries/XMCLib/src/xmc1_eru.c **** 
  63:../Libraries/XMCLib/src/xmc1_eru.c **** void XMC_ERU_Disable(XMC_ERU_t *const eru)
  64:../Libraries/XMCLib/src/xmc1_eru.c **** {
  56              	 .loc 1 64 0
  57              	 .cfi_startproc
  58 0000 80B5     	 push {r7,lr}
  59              	.LCFI3:
  60              	 .cfi_def_cfa_offset 8
  61              	 .cfi_offset 7,-8
  62              	 .cfi_offset 14,-4
  63 0002 82B0     	 sub sp,sp,#8
  64              	.LCFI4:
  65              	 .cfi_def_cfa_offset 16
  66 0004 00AF     	 add r7,sp,#0
  67              	.LCFI5:
  68              	 .cfi_def_cfa_register 7
  69 0006 7860     	 str r0,[r7,#4]
  65:../Libraries/XMCLib/src/xmc1_eru.c ****   XMC_UNUSED_ARG(eru);
  66:../Libraries/XMCLib/src/xmc1_eru.c **** }
  70              	 .loc 1 66 0
  71 0008 BD46     	 mov sp,r7
  72 000a 02B0     	 add sp,sp,#8
  73              	 
  74 000c 80BD     	 pop {r7,pc}
  75              	 .cfi_endproc
  76              	.LFE47:
  78 000e C046     	 .text
  79              	.Letext0:
  80              	 .file 2 "d:\\downloads\\dave_4-4-2_64bit_2018-02-23\\dave-ide-4.4.2-64bit\\dave-ide-4.4.2-64bit\\eclipse\\arm-gcc-49\\arm-none-eabi\\include\\machine\\_default_types.h"
  81              	 .file 3 "d:\\downloads\\dave_4-4-2_64bit_2018-02-23\\dave-ide-4.4.2-64bit\\dave-ide-4.4.2-64bit\\eclipse\\arm-gcc-49\\arm-none-eabi\\include\\stdint.h"
  82              	 .file 4 "C:/Workspaces/DAVE-4.4.2-64Bit/RoverX/Libraries/XMCLib/inc/xmc_eru.h"
  83              	 .file 5 "C:/Workspaces/DAVE-4.4.2-64Bit/RoverX/Libraries/CMSIS/Include/cmsis_gcc.h"