   1              	 .cpu cortex-m0
   2              	 .fpu softvfp
   3              	 .eabi_attribute 20,1
   4              	 .eabi_attribute 21,1
   5              	 .eabi_attribute 23,3
   6              	 .eabi_attribute 24,1
   7              	 .eabi_attribute 25,1
   8              	 .eabi_attribute 26,1
   9              	 .eabi_attribute 30,6
  10              	 .eabi_attribute 34,0
  11              	 .eabi_attribute 18,4
  12              	 .code 16
  13              	 .file "spi_master_conf.c"
  14              	 .text
  15              	.Ltext0:
  16              	 .cfi_sections .debug_frame
  17              	 .section .text.__NVIC_EnableIRQ,"ax",%progbits
  18              	 .align 2
  19              	 .code 16
  20              	 .thumb_func
  22              	__NVIC_EnableIRQ:
  23              	.LFB27:
  24              	 .file 1 "C:/Workspaces/DAVE-4.4.2-64Bit/RoverX/Libraries/CMSIS/Include/core_cm0.h"
   1:C:/Workspaces/DAVE-4.4.2-64Bit/RoverX/Libraries/CMSIS/Include\core_cm0.h **** /**************************************************************************//**
   2:C:/Workspaces/DAVE-4.4.2-64Bit/RoverX/Libraries/CMSIS/Include\core_cm0.h ****  * @file     core_cm0.h
   3:C:/Workspaces/DAVE-4.4.2-64Bit/RoverX/Libraries/CMSIS/Include\core_cm0.h ****  * @brief    CMSIS Cortex-M0 Core Peripheral Access Layer Header File
   4:C:/Workspaces/DAVE-4.4.2-64Bit/RoverX/Libraries/CMSIS/Include\core_cm0.h ****  * @version  V5.0.8
   5:C:/Workspaces/DAVE-4.4.2-64Bit/RoverX/Libraries/CMSIS/Include\core_cm0.h ****  * @date     21. August 2019
   6:C:/Workspaces/DAVE-4.4.2-64Bit/RoverX/Libraries/CMSIS/Include\core_cm0.h ****  ******************************************************************************/
   7:C:/Workspaces/DAVE-4.4.2-64Bit/RoverX/Libraries/CMSIS/Include\core_cm0.h **** /*
   8:C:/Workspaces/DAVE-4.4.2-64Bit/RoverX/Libraries/CMSIS/Include\core_cm0.h ****  * Copyright (c) 2009-2019 Arm Limited. All rights reserved.
   9:C:/Workspaces/DAVE-4.4.2-64Bit/RoverX/Libraries/CMSIS/Include\core_cm0.h ****  *
  10:C:/Workspaces/DAVE-4.4.2-64Bit/RoverX/Libraries/CMSIS/Include\core_cm0.h ****  * SPDX-License-Identifier: Apache-2.0
  11:C:/Workspaces/DAVE-4.4.2-64Bit/RoverX/Libraries/CMSIS/Include\core_cm0.h ****  *
  12:C:/Workspaces/DAVE-4.4.2-64Bit/RoverX/Libraries/CMSIS/Include\core_cm0.h ****  * Licensed under the Apache License, Version 2.0 (the License); you may
  13:C:/Workspaces/DAVE-4.4.2-64Bit/RoverX/Libraries/CMSIS/Include\core_cm0.h ****  * not use this file except in compliance with the License.
  14:C:/Workspaces/DAVE-4.4.2-64Bit/RoverX/Libraries/CMSIS/Include\core_cm0.h ****  * You may obtain a copy of the License at
  15:C:/Workspaces/DAVE-4.4.2-64Bit/RoverX/Libraries/CMSIS/Include\core_cm0.h ****  *
  16:C:/Workspaces/DAVE-4.4.2-64Bit/RoverX/Libraries/CMSIS/Include\core_cm0.h ****  * www.apache.org/licenses/LICENSE-2.0
  17:C:/Workspaces/DAVE-4.4.2-64Bit/RoverX/Libraries/CMSIS/Include\core_cm0.h ****  *
  18:C:/Workspaces/DAVE-4.4.2-64Bit/RoverX/Libraries/CMSIS/Include\core_cm0.h ****  * Unless required by applicable law or agreed to in writing, software
  19:C:/Workspaces/DAVE-4.4.2-64Bit/RoverX/Libraries/CMSIS/Include\core_cm0.h ****  * distributed under the License is distributed on an AS IS BASIS, WITHOUT
  20:C:/Workspaces/DAVE-4.4.2-64Bit/RoverX/Libraries/CMSIS/Include\core_cm0.h ****  * WARRANTIES OR CONDITIONS OF ANY KIND, either express or implied.
  21:C:/Workspaces/DAVE-4.4.2-64Bit/RoverX/Libraries/CMSIS/Include\core_cm0.h ****  * See the License for the specific language governing permissions and
  22:C:/Workspaces/DAVE-4.4.2-64Bit/RoverX/Libraries/CMSIS/Include\core_cm0.h ****  * limitations under the License.
  23:C:/Workspaces/DAVE-4.4.2-64Bit/RoverX/Libraries/CMSIS/Include\core_cm0.h ****  */
  24:C:/Workspaces/DAVE-4.4.2-64Bit/RoverX/Libraries/CMSIS/Include\core_cm0.h **** 
  25:C:/Workspaces/DAVE-4.4.2-64Bit/RoverX/Libraries/CMSIS/Include\core_cm0.h **** #if   defined ( __ICCARM__ )
  26:C:/Workspaces/DAVE-4.4.2-64Bit/RoverX/Libraries/CMSIS/Include\core_cm0.h ****   #pragma system_include         /* treat file as system include file for MISRA check */
  27:C:/Workspaces/DAVE-4.4.2-64Bit/RoverX/Libraries/CMSIS/Include\core_cm0.h **** #elif defined (__clang__)
  28:C:/Workspaces/DAVE-4.4.2-64Bit/RoverX/Libraries/CMSIS/Include\core_cm0.h ****   #pragma clang system_header   /* treat file as system include file */
  29:C:/Workspaces/DAVE-4.4.2-64Bit/RoverX/Libraries/CMSIS/Include\core_cm0.h **** #endif
  30:C:/Workspaces/DAVE-4.4.2-64Bit/RoverX/Libraries/CMSIS/Include\core_cm0.h **** 
  31:C:/Workspaces/DAVE-4.4.2-64Bit/RoverX/Libraries/CMSIS/Include\core_cm0.h **** #ifndef __CORE_CM0_H_GENERIC
  32:C:/Workspaces/DAVE-4.4.2-64Bit/RoverX/Libraries/CMSIS/Include\core_cm0.h **** #define __CORE_CM0_H_GENERIC
  33:C:/Workspaces/DAVE-4.4.2-64Bit/RoverX/Libraries/CMSIS/Include\core_cm0.h **** 
  34:C:/Workspaces/DAVE-4.4.2-64Bit/RoverX/Libraries/CMSIS/Include\core_cm0.h **** #include <stdint.h>
  35:C:/Workspaces/DAVE-4.4.2-64Bit/RoverX/Libraries/CMSIS/Include\core_cm0.h **** 
  36:C:/Workspaces/DAVE-4.4.2-64Bit/RoverX/Libraries/CMSIS/Include\core_cm0.h **** #ifdef __cplusplus
  37:C:/Workspaces/DAVE-4.4.2-64Bit/RoverX/Libraries/CMSIS/Include\core_cm0.h ****  extern "C" {
  38:C:/Workspaces/DAVE-4.4.2-64Bit/RoverX/Libraries/CMSIS/Include\core_cm0.h **** #endif
  39:C:/Workspaces/DAVE-4.4.2-64Bit/RoverX/Libraries/CMSIS/Include\core_cm0.h **** 
  40:C:/Workspaces/DAVE-4.4.2-64Bit/RoverX/Libraries/CMSIS/Include\core_cm0.h **** /**
  41:C:/Workspaces/DAVE-4.4.2-64Bit/RoverX/Libraries/CMSIS/Include\core_cm0.h ****   \page CMSIS_MISRA_Exceptions  MISRA-C:2004 Compliance Exceptions
  42:C:/Workspaces/DAVE-4.4.2-64Bit/RoverX/Libraries/CMSIS/Include\core_cm0.h ****   CMSIS violates the following MISRA-C:2004 rules:
  43:C:/Workspaces/DAVE-4.4.2-64Bit/RoverX/Libraries/CMSIS/Include\core_cm0.h **** 
  44:C:/Workspaces/DAVE-4.4.2-64Bit/RoverX/Libraries/CMSIS/Include\core_cm0.h ****    \li Required Rule 8.5, object/function definition in header file.<br>
  45:C:/Workspaces/DAVE-4.4.2-64Bit/RoverX/Libraries/CMSIS/Include\core_cm0.h ****      Function definitions in header files are used to allow 'inlining'.
  46:C:/Workspaces/DAVE-4.4.2-64Bit/RoverX/Libraries/CMSIS/Include\core_cm0.h **** 
  47:C:/Workspaces/DAVE-4.4.2-64Bit/RoverX/Libraries/CMSIS/Include\core_cm0.h ****    \li Required Rule 18.4, declaration of union type or object of union type: '{...}'.<br>
  48:C:/Workspaces/DAVE-4.4.2-64Bit/RoverX/Libraries/CMSIS/Include\core_cm0.h ****      Unions are used for effective representation of core registers.
  49:C:/Workspaces/DAVE-4.4.2-64Bit/RoverX/Libraries/CMSIS/Include\core_cm0.h **** 
  50:C:/Workspaces/DAVE-4.4.2-64Bit/RoverX/Libraries/CMSIS/Include\core_cm0.h ****    \li Advisory Rule 19.7, Function-like macro defined.<br>
  51:C:/Workspaces/DAVE-4.4.2-64Bit/RoverX/Libraries/CMSIS/Include\core_cm0.h ****      Function-like macros are used to allow more efficient code.
  52:C:/Workspaces/DAVE-4.4.2-64Bit/RoverX/Libraries/CMSIS/Include\core_cm0.h ****  */
  53:C:/Workspaces/DAVE-4.4.2-64Bit/RoverX/Libraries/CMSIS/Include\core_cm0.h **** 
  54:C:/Workspaces/DAVE-4.4.2-64Bit/RoverX/Libraries/CMSIS/Include\core_cm0.h **** 
  55:C:/Workspaces/DAVE-4.4.2-64Bit/RoverX/Libraries/CMSIS/Include\core_cm0.h **** /*******************************************************************************
  56:C:/Workspaces/DAVE-4.4.2-64Bit/RoverX/Libraries/CMSIS/Include\core_cm0.h ****  *                 CMSIS definitions
  57:C:/Workspaces/DAVE-4.4.2-64Bit/RoverX/Libraries/CMSIS/Include\core_cm0.h ****  ******************************************************************************/
  58:C:/Workspaces/DAVE-4.4.2-64Bit/RoverX/Libraries/CMSIS/Include\core_cm0.h **** /**
  59:C:/Workspaces/DAVE-4.4.2-64Bit/RoverX/Libraries/CMSIS/Include\core_cm0.h ****   \ingroup Cortex_M0
  60:C:/Workspaces/DAVE-4.4.2-64Bit/RoverX/Libraries/CMSIS/Include\core_cm0.h ****   @{
  61:C:/Workspaces/DAVE-4.4.2-64Bit/RoverX/Libraries/CMSIS/Include\core_cm0.h ****  */
  62:C:/Workspaces/DAVE-4.4.2-64Bit/RoverX/Libraries/CMSIS/Include\core_cm0.h **** 
  63:C:/Workspaces/DAVE-4.4.2-64Bit/RoverX/Libraries/CMSIS/Include\core_cm0.h **** #include "cmsis_version.h"
  64:C:/Workspaces/DAVE-4.4.2-64Bit/RoverX/Libraries/CMSIS/Include\core_cm0.h ****  
  65:C:/Workspaces/DAVE-4.4.2-64Bit/RoverX/Libraries/CMSIS/Include\core_cm0.h **** /*  CMSIS CM0 definitions */
  66:C:/Workspaces/DAVE-4.4.2-64Bit/RoverX/Libraries/CMSIS/Include\core_cm0.h **** #define __CM0_CMSIS_VERSION_MAIN  (__CM_CMSIS_VERSION_MAIN)              /*!< \deprecated [31:16] C
  67:C:/Workspaces/DAVE-4.4.2-64Bit/RoverX/Libraries/CMSIS/Include\core_cm0.h **** #define __CM0_CMSIS_VERSION_SUB   (__CM_CMSIS_VERSION_SUB)               /*!< \deprecated [15:0]  C
  68:C:/Workspaces/DAVE-4.4.2-64Bit/RoverX/Libraries/CMSIS/Include\core_cm0.h **** #define __CM0_CMSIS_VERSION       ((__CM0_CMSIS_VERSION_MAIN << 16U) | \
  69:C:/Workspaces/DAVE-4.4.2-64Bit/RoverX/Libraries/CMSIS/Include\core_cm0.h ****                                     __CM0_CMSIS_VERSION_SUB           )  /*!< \deprecated CMSIS HAL
  70:C:/Workspaces/DAVE-4.4.2-64Bit/RoverX/Libraries/CMSIS/Include\core_cm0.h **** 
  71:C:/Workspaces/DAVE-4.4.2-64Bit/RoverX/Libraries/CMSIS/Include\core_cm0.h **** #define __CORTEX_M                (0U)                                   /*!< Cortex-M Core */
  72:C:/Workspaces/DAVE-4.4.2-64Bit/RoverX/Libraries/CMSIS/Include\core_cm0.h **** 
  73:C:/Workspaces/DAVE-4.4.2-64Bit/RoverX/Libraries/CMSIS/Include\core_cm0.h **** /** __FPU_USED indicates whether an FPU is used or not.
  74:C:/Workspaces/DAVE-4.4.2-64Bit/RoverX/Libraries/CMSIS/Include\core_cm0.h ****     This core does not support an FPU at all
  75:C:/Workspaces/DAVE-4.4.2-64Bit/RoverX/Libraries/CMSIS/Include\core_cm0.h **** */
  76:C:/Workspaces/DAVE-4.4.2-64Bit/RoverX/Libraries/CMSIS/Include\core_cm0.h **** #define __FPU_USED       0U
  77:C:/Workspaces/DAVE-4.4.2-64Bit/RoverX/Libraries/CMSIS/Include\core_cm0.h **** 
  78:C:/Workspaces/DAVE-4.4.2-64Bit/RoverX/Libraries/CMSIS/Include\core_cm0.h **** #if defined ( __CC_ARM )
  79:C:/Workspaces/DAVE-4.4.2-64Bit/RoverX/Libraries/CMSIS/Include\core_cm0.h ****   #if defined __TARGET_FPU_VFP
  80:C:/Workspaces/DAVE-4.4.2-64Bit/RoverX/Libraries/CMSIS/Include\core_cm0.h ****     #error "Compiler generates FPU instructions for a device without an FPU (check __FPU_PRESENT)"
  81:C:/Workspaces/DAVE-4.4.2-64Bit/RoverX/Libraries/CMSIS/Include\core_cm0.h ****   #endif
  82:C:/Workspaces/DAVE-4.4.2-64Bit/RoverX/Libraries/CMSIS/Include\core_cm0.h **** 
  83:C:/Workspaces/DAVE-4.4.2-64Bit/RoverX/Libraries/CMSIS/Include\core_cm0.h **** #elif defined (__ARMCC_VERSION) && (__ARMCC_VERSION >= 6010050)
  84:C:/Workspaces/DAVE-4.4.2-64Bit/RoverX/Libraries/CMSIS/Include\core_cm0.h ****   #if defined __ARM_FP
  85:C:/Workspaces/DAVE-4.4.2-64Bit/RoverX/Libraries/CMSIS/Include\core_cm0.h ****     #error "Compiler generates FPU instructions for a device without an FPU (check __FPU_PRESENT)"
  86:C:/Workspaces/DAVE-4.4.2-64Bit/RoverX/Libraries/CMSIS/Include\core_cm0.h ****   #endif
  87:C:/Workspaces/DAVE-4.4.2-64Bit/RoverX/Libraries/CMSIS/Include\core_cm0.h **** 
  88:C:/Workspaces/DAVE-4.4.2-64Bit/RoverX/Libraries/CMSIS/Include\core_cm0.h **** #elif defined ( __GNUC__ )
  89:C:/Workspaces/DAVE-4.4.2-64Bit/RoverX/Libraries/CMSIS/Include\core_cm0.h ****   #if defined (__VFP_FP__) && !defined(__SOFTFP__)
  90:C:/Workspaces/DAVE-4.4.2-64Bit/RoverX/Libraries/CMSIS/Include\core_cm0.h ****     #error "Compiler generates FPU instructions for a device without an FPU (check __FPU_PRESENT)"
  91:C:/Workspaces/DAVE-4.4.2-64Bit/RoverX/Libraries/CMSIS/Include\core_cm0.h ****   #endif
  92:C:/Workspaces/DAVE-4.4.2-64Bit/RoverX/Libraries/CMSIS/Include\core_cm0.h **** 
  93:C:/Workspaces/DAVE-4.4.2-64Bit/RoverX/Libraries/CMSIS/Include\core_cm0.h **** #elif defined ( __ICCARM__ )
  94:C:/Workspaces/DAVE-4.4.2-64Bit/RoverX/Libraries/CMSIS/Include\core_cm0.h ****   #if defined __ARMVFP__
  95:C:/Workspaces/DAVE-4.4.2-64Bit/RoverX/Libraries/CMSIS/Include\core_cm0.h ****     #error "Compiler generates FPU instructions for a device without an FPU (check __FPU_PRESENT)"
  96:C:/Workspaces/DAVE-4.4.2-64Bit/RoverX/Libraries/CMSIS/Include\core_cm0.h ****   #endif
  97:C:/Workspaces/DAVE-4.4.2-64Bit/RoverX/Libraries/CMSIS/Include\core_cm0.h **** 
  98:C:/Workspaces/DAVE-4.4.2-64Bit/RoverX/Libraries/CMSIS/Include\core_cm0.h **** #elif defined ( __TI_ARM__ )
  99:C:/Workspaces/DAVE-4.4.2-64Bit/RoverX/Libraries/CMSIS/Include\core_cm0.h ****   #if defined __TI_VFP_SUPPORT__
 100:C:/Workspaces/DAVE-4.4.2-64Bit/RoverX/Libraries/CMSIS/Include\core_cm0.h ****     #error "Compiler generates FPU instructions for a device without an FPU (check __FPU_PRESENT)"
 101:C:/Workspaces/DAVE-4.4.2-64Bit/RoverX/Libraries/CMSIS/Include\core_cm0.h ****   #endif
 102:C:/Workspaces/DAVE-4.4.2-64Bit/RoverX/Libraries/CMSIS/Include\core_cm0.h **** 
 103:C:/Workspaces/DAVE-4.4.2-64Bit/RoverX/Libraries/CMSIS/Include\core_cm0.h **** #elif defined ( __TASKING__ )
 104:C:/Workspaces/DAVE-4.4.2-64Bit/RoverX/Libraries/CMSIS/Include\core_cm0.h ****   #if defined __FPU_VFP__
 105:C:/Workspaces/DAVE-4.4.2-64Bit/RoverX/Libraries/CMSIS/Include\core_cm0.h ****     #error "Compiler generates FPU instructions for a device without an FPU (check __FPU_PRESENT)"
 106:C:/Workspaces/DAVE-4.4.2-64Bit/RoverX/Libraries/CMSIS/Include\core_cm0.h ****   #endif
 107:C:/Workspaces/DAVE-4.4.2-64Bit/RoverX/Libraries/CMSIS/Include\core_cm0.h **** 
 108:C:/Workspaces/DAVE-4.4.2-64Bit/RoverX/Libraries/CMSIS/Include\core_cm0.h **** #elif defined ( __CSMC__ )
 109:C:/Workspaces/DAVE-4.4.2-64Bit/RoverX/Libraries/CMSIS/Include\core_cm0.h ****   #if ( __CSMC__ & 0x400U)
 110:C:/Workspaces/DAVE-4.4.2-64Bit/RoverX/Libraries/CMSIS/Include\core_cm0.h ****     #error "Compiler generates FPU instructions for a device without an FPU (check __FPU_PRESENT)"
 111:C:/Workspaces/DAVE-4.4.2-64Bit/RoverX/Libraries/CMSIS/Include\core_cm0.h ****   #endif
 112:C:/Workspaces/DAVE-4.4.2-64Bit/RoverX/Libraries/CMSIS/Include\core_cm0.h **** 
 113:C:/Workspaces/DAVE-4.4.2-64Bit/RoverX/Libraries/CMSIS/Include\core_cm0.h **** #endif
 114:C:/Workspaces/DAVE-4.4.2-64Bit/RoverX/Libraries/CMSIS/Include\core_cm0.h **** 
 115:C:/Workspaces/DAVE-4.4.2-64Bit/RoverX/Libraries/CMSIS/Include\core_cm0.h **** #include "cmsis_compiler.h"               /* CMSIS compiler specific defines */
 116:C:/Workspaces/DAVE-4.4.2-64Bit/RoverX/Libraries/CMSIS/Include\core_cm0.h **** 
 117:C:/Workspaces/DAVE-4.4.2-64Bit/RoverX/Libraries/CMSIS/Include\core_cm0.h **** 
 118:C:/Workspaces/DAVE-4.4.2-64Bit/RoverX/Libraries/CMSIS/Include\core_cm0.h **** #ifdef __cplusplus
 119:C:/Workspaces/DAVE-4.4.2-64Bit/RoverX/Libraries/CMSIS/Include\core_cm0.h **** }
 120:C:/Workspaces/DAVE-4.4.2-64Bit/RoverX/Libraries/CMSIS/Include\core_cm0.h **** #endif
 121:C:/Workspaces/DAVE-4.4.2-64Bit/RoverX/Libraries/CMSIS/Include\core_cm0.h **** 
 122:C:/Workspaces/DAVE-4.4.2-64Bit/RoverX/Libraries/CMSIS/Include\core_cm0.h **** #endif /* __CORE_CM0_H_GENERIC */
 123:C:/Workspaces/DAVE-4.4.2-64Bit/RoverX/Libraries/CMSIS/Include\core_cm0.h **** 
 124:C:/Workspaces/DAVE-4.4.2-64Bit/RoverX/Libraries/CMSIS/Include\core_cm0.h **** #ifndef __CMSIS_GENERIC
 125:C:/Workspaces/DAVE-4.4.2-64Bit/RoverX/Libraries/CMSIS/Include\core_cm0.h **** 
 126:C:/Workspaces/DAVE-4.4.2-64Bit/RoverX/Libraries/CMSIS/Include\core_cm0.h **** #ifndef __CORE_CM0_H_DEPENDANT
 127:C:/Workspaces/DAVE-4.4.2-64Bit/RoverX/Libraries/CMSIS/Include\core_cm0.h **** #define __CORE_CM0_H_DEPENDANT
 128:C:/Workspaces/DAVE-4.4.2-64Bit/RoverX/Libraries/CMSIS/Include\core_cm0.h **** 
 129:C:/Workspaces/DAVE-4.4.2-64Bit/RoverX/Libraries/CMSIS/Include\core_cm0.h **** #ifdef __cplusplus
 130:C:/Workspaces/DAVE-4.4.2-64Bit/RoverX/Libraries/CMSIS/Include\core_cm0.h ****  extern "C" {
 131:C:/Workspaces/DAVE-4.4.2-64Bit/RoverX/Libraries/CMSIS/Include\core_cm0.h **** #endif
 132:C:/Workspaces/DAVE-4.4.2-64Bit/RoverX/Libraries/CMSIS/Include\core_cm0.h **** 
 133:C:/Workspaces/DAVE-4.4.2-64Bit/RoverX/Libraries/CMSIS/Include\core_cm0.h **** /* check device defines and use defaults */
 134:C:/Workspaces/DAVE-4.4.2-64Bit/RoverX/Libraries/CMSIS/Include\core_cm0.h **** #if defined __CHECK_DEVICE_DEFINES
 135:C:/Workspaces/DAVE-4.4.2-64Bit/RoverX/Libraries/CMSIS/Include\core_cm0.h ****   #ifndef __CM0_REV
 136:C:/Workspaces/DAVE-4.4.2-64Bit/RoverX/Libraries/CMSIS/Include\core_cm0.h ****     #define __CM0_REV               0x0000U
 137:C:/Workspaces/DAVE-4.4.2-64Bit/RoverX/Libraries/CMSIS/Include\core_cm0.h ****     #warning "__CM0_REV not defined in device header file; using default!"
 138:C:/Workspaces/DAVE-4.4.2-64Bit/RoverX/Libraries/CMSIS/Include\core_cm0.h ****   #endif
 139:C:/Workspaces/DAVE-4.4.2-64Bit/RoverX/Libraries/CMSIS/Include\core_cm0.h **** 
 140:C:/Workspaces/DAVE-4.4.2-64Bit/RoverX/Libraries/CMSIS/Include\core_cm0.h ****   #ifndef __NVIC_PRIO_BITS
 141:C:/Workspaces/DAVE-4.4.2-64Bit/RoverX/Libraries/CMSIS/Include\core_cm0.h ****     #define __NVIC_PRIO_BITS          2U
 142:C:/Workspaces/DAVE-4.4.2-64Bit/RoverX/Libraries/CMSIS/Include\core_cm0.h ****     #warning "__NVIC_PRIO_BITS not defined in device header file; using default!"
 143:C:/Workspaces/DAVE-4.4.2-64Bit/RoverX/Libraries/CMSIS/Include\core_cm0.h ****   #endif
 144:C:/Workspaces/DAVE-4.4.2-64Bit/RoverX/Libraries/CMSIS/Include\core_cm0.h **** 
 145:C:/Workspaces/DAVE-4.4.2-64Bit/RoverX/Libraries/CMSIS/Include\core_cm0.h ****   #ifndef __Vendor_SysTickConfig
 146:C:/Workspaces/DAVE-4.4.2-64Bit/RoverX/Libraries/CMSIS/Include\core_cm0.h ****     #define __Vendor_SysTickConfig    0U
 147:C:/Workspaces/DAVE-4.4.2-64Bit/RoverX/Libraries/CMSIS/Include\core_cm0.h ****     #warning "__Vendor_SysTickConfig not defined in device header file; using default!"
 148:C:/Workspaces/DAVE-4.4.2-64Bit/RoverX/Libraries/CMSIS/Include\core_cm0.h ****   #endif
 149:C:/Workspaces/DAVE-4.4.2-64Bit/RoverX/Libraries/CMSIS/Include\core_cm0.h **** #endif
 150:C:/Workspaces/DAVE-4.4.2-64Bit/RoverX/Libraries/CMSIS/Include\core_cm0.h **** 
 151:C:/Workspaces/DAVE-4.4.2-64Bit/RoverX/Libraries/CMSIS/Include\core_cm0.h **** /* IO definitions (access restrictions to peripheral registers) */
 152:C:/Workspaces/DAVE-4.4.2-64Bit/RoverX/Libraries/CMSIS/Include\core_cm0.h **** /**
 153:C:/Workspaces/DAVE-4.4.2-64Bit/RoverX/Libraries/CMSIS/Include\core_cm0.h ****     \defgroup CMSIS_glob_defs CMSIS Global Defines
 154:C:/Workspaces/DAVE-4.4.2-64Bit/RoverX/Libraries/CMSIS/Include\core_cm0.h **** 
 155:C:/Workspaces/DAVE-4.4.2-64Bit/RoverX/Libraries/CMSIS/Include\core_cm0.h ****     <strong>IO Type Qualifiers</strong> are used
 156:C:/Workspaces/DAVE-4.4.2-64Bit/RoverX/Libraries/CMSIS/Include\core_cm0.h ****     \li to specify the access to peripheral variables.
 157:C:/Workspaces/DAVE-4.4.2-64Bit/RoverX/Libraries/CMSIS/Include\core_cm0.h ****     \li for automatic generation of peripheral register debug information.
 158:C:/Workspaces/DAVE-4.4.2-64Bit/RoverX/Libraries/CMSIS/Include\core_cm0.h **** */
 159:C:/Workspaces/DAVE-4.4.2-64Bit/RoverX/Libraries/CMSIS/Include\core_cm0.h **** #ifdef __cplusplus
 160:C:/Workspaces/DAVE-4.4.2-64Bit/RoverX/Libraries/CMSIS/Include\core_cm0.h ****   #define   __I     volatile             /*!< Defines 'read only' permissions */
 161:C:/Workspaces/DAVE-4.4.2-64Bit/RoverX/Libraries/CMSIS/Include\core_cm0.h **** #else
 162:C:/Workspaces/DAVE-4.4.2-64Bit/RoverX/Libraries/CMSIS/Include\core_cm0.h ****   #define   __I     volatile const       /*!< Defines 'read only' permissions */
 163:C:/Workspaces/DAVE-4.4.2-64Bit/RoverX/Libraries/CMSIS/Include\core_cm0.h **** #endif
 164:C:/Workspaces/DAVE-4.4.2-64Bit/RoverX/Libraries/CMSIS/Include\core_cm0.h **** #define     __O     volatile             /*!< Defines 'write only' permissions */
 165:C:/Workspaces/DAVE-4.4.2-64Bit/RoverX/Libraries/CMSIS/Include\core_cm0.h **** #define     __IO    volatile             /*!< Defines 'read / write' permissions */
 166:C:/Workspaces/DAVE-4.4.2-64Bit/RoverX/Libraries/CMSIS/Include\core_cm0.h **** 
 167:C:/Workspaces/DAVE-4.4.2-64Bit/RoverX/Libraries/CMSIS/Include\core_cm0.h **** /* following defines should be used for structure members */
 168:C:/Workspaces/DAVE-4.4.2-64Bit/RoverX/Libraries/CMSIS/Include\core_cm0.h **** #define     __IM     volatile const      /*! Defines 'read only' structure member permissions */
 169:C:/Workspaces/DAVE-4.4.2-64Bit/RoverX/Libraries/CMSIS/Include\core_cm0.h **** #define     __OM     volatile            /*! Defines 'write only' structure member permissions */
 170:C:/Workspaces/DAVE-4.4.2-64Bit/RoverX/Libraries/CMSIS/Include\core_cm0.h **** #define     __IOM    volatile            /*! Defines 'read / write' structure member permissions */
 171:C:/Workspaces/DAVE-4.4.2-64Bit/RoverX/Libraries/CMSIS/Include\core_cm0.h **** 
 172:C:/Workspaces/DAVE-4.4.2-64Bit/RoverX/Libraries/CMSIS/Include\core_cm0.h **** /*@} end of group Cortex_M0 */
 173:C:/Workspaces/DAVE-4.4.2-64Bit/RoverX/Libraries/CMSIS/Include\core_cm0.h **** 
 174:C:/Workspaces/DAVE-4.4.2-64Bit/RoverX/Libraries/CMSIS/Include\core_cm0.h **** 
 175:C:/Workspaces/DAVE-4.4.2-64Bit/RoverX/Libraries/CMSIS/Include\core_cm0.h **** 
 176:C:/Workspaces/DAVE-4.4.2-64Bit/RoverX/Libraries/CMSIS/Include\core_cm0.h **** /*******************************************************************************
 177:C:/Workspaces/DAVE-4.4.2-64Bit/RoverX/Libraries/CMSIS/Include\core_cm0.h ****  *                 Register Abstraction
 178:C:/Workspaces/DAVE-4.4.2-64Bit/RoverX/Libraries/CMSIS/Include\core_cm0.h ****   Core Register contain:
 179:C:/Workspaces/DAVE-4.4.2-64Bit/RoverX/Libraries/CMSIS/Include\core_cm0.h ****   - Core Register
 180:C:/Workspaces/DAVE-4.4.2-64Bit/RoverX/Libraries/CMSIS/Include\core_cm0.h ****   - Core NVIC Register
 181:C:/Workspaces/DAVE-4.4.2-64Bit/RoverX/Libraries/CMSIS/Include\core_cm0.h ****   - Core SCB Register
 182:C:/Workspaces/DAVE-4.4.2-64Bit/RoverX/Libraries/CMSIS/Include\core_cm0.h ****   - Core SysTick Register
 183:C:/Workspaces/DAVE-4.4.2-64Bit/RoverX/Libraries/CMSIS/Include\core_cm0.h ****  ******************************************************************************/
 184:C:/Workspaces/DAVE-4.4.2-64Bit/RoverX/Libraries/CMSIS/Include\core_cm0.h **** /**
 185:C:/Workspaces/DAVE-4.4.2-64Bit/RoverX/Libraries/CMSIS/Include\core_cm0.h ****   \defgroup CMSIS_core_register Defines and Type Definitions
 186:C:/Workspaces/DAVE-4.4.2-64Bit/RoverX/Libraries/CMSIS/Include\core_cm0.h ****   \brief Type definitions and defines for Cortex-M processor based devices.
 187:C:/Workspaces/DAVE-4.4.2-64Bit/RoverX/Libraries/CMSIS/Include\core_cm0.h **** */
 188:C:/Workspaces/DAVE-4.4.2-64Bit/RoverX/Libraries/CMSIS/Include\core_cm0.h **** 
 189:C:/Workspaces/DAVE-4.4.2-64Bit/RoverX/Libraries/CMSIS/Include\core_cm0.h **** /**
 190:C:/Workspaces/DAVE-4.4.2-64Bit/RoverX/Libraries/CMSIS/Include\core_cm0.h ****   \ingroup    CMSIS_core_register
 191:C:/Workspaces/DAVE-4.4.2-64Bit/RoverX/Libraries/CMSIS/Include\core_cm0.h ****   \defgroup   CMSIS_CORE  Status and Control Registers
 192:C:/Workspaces/DAVE-4.4.2-64Bit/RoverX/Libraries/CMSIS/Include\core_cm0.h ****   \brief      Core Register type definitions.
 193:C:/Workspaces/DAVE-4.4.2-64Bit/RoverX/Libraries/CMSIS/Include\core_cm0.h ****   @{
 194:C:/Workspaces/DAVE-4.4.2-64Bit/RoverX/Libraries/CMSIS/Include\core_cm0.h ****  */
 195:C:/Workspaces/DAVE-4.4.2-64Bit/RoverX/Libraries/CMSIS/Include\core_cm0.h **** 
 196:C:/Workspaces/DAVE-4.4.2-64Bit/RoverX/Libraries/CMSIS/Include\core_cm0.h **** /**
 197:C:/Workspaces/DAVE-4.4.2-64Bit/RoverX/Libraries/CMSIS/Include\core_cm0.h ****   \brief  Union type to access the Application Program Status Register (APSR).
 198:C:/Workspaces/DAVE-4.4.2-64Bit/RoverX/Libraries/CMSIS/Include\core_cm0.h ****  */
 199:C:/Workspaces/DAVE-4.4.2-64Bit/RoverX/Libraries/CMSIS/Include\core_cm0.h **** typedef union
 200:C:/Workspaces/DAVE-4.4.2-64Bit/RoverX/Libraries/CMSIS/Include\core_cm0.h **** {
 201:C:/Workspaces/DAVE-4.4.2-64Bit/RoverX/Libraries/CMSIS/Include\core_cm0.h ****   struct
 202:C:/Workspaces/DAVE-4.4.2-64Bit/RoverX/Libraries/CMSIS/Include\core_cm0.h ****   {
 203:C:/Workspaces/DAVE-4.4.2-64Bit/RoverX/Libraries/CMSIS/Include\core_cm0.h ****     uint32_t _reserved0:28;              /*!< bit:  0..27  Reserved */
 204:C:/Workspaces/DAVE-4.4.2-64Bit/RoverX/Libraries/CMSIS/Include\core_cm0.h ****     uint32_t V:1;                        /*!< bit:     28  Overflow condition code flag */
 205:C:/Workspaces/DAVE-4.4.2-64Bit/RoverX/Libraries/CMSIS/Include\core_cm0.h ****     uint32_t C:1;                        /*!< bit:     29  Carry condition code flag */
 206:C:/Workspaces/DAVE-4.4.2-64Bit/RoverX/Libraries/CMSIS/Include\core_cm0.h ****     uint32_t Z:1;                        /*!< bit:     30  Zero condition code flag */
 207:C:/Workspaces/DAVE-4.4.2-64Bit/RoverX/Libraries/CMSIS/Include\core_cm0.h ****     uint32_t N:1;                        /*!< bit:     31  Negative condition code flag */
 208:C:/Workspaces/DAVE-4.4.2-64Bit/RoverX/Libraries/CMSIS/Include\core_cm0.h ****   } b;                                   /*!< Structure used for bit  access */
 209:C:/Workspaces/DAVE-4.4.2-64Bit/RoverX/Libraries/CMSIS/Include\core_cm0.h ****   uint32_t w;                            /*!< Type      used for word access */
 210:C:/Workspaces/DAVE-4.4.2-64Bit/RoverX/Libraries/CMSIS/Include\core_cm0.h **** } APSR_Type;
 211:C:/Workspaces/DAVE-4.4.2-64Bit/RoverX/Libraries/CMSIS/Include\core_cm0.h **** 
 212:C:/Workspaces/DAVE-4.4.2-64Bit/RoverX/Libraries/CMSIS/Include\core_cm0.h **** /* APSR Register Definitions */
 213:C:/Workspaces/DAVE-4.4.2-64Bit/RoverX/Libraries/CMSIS/Include\core_cm0.h **** #define APSR_N_Pos                         31U                                            /*!< APSR
 214:C:/Workspaces/DAVE-4.4.2-64Bit/RoverX/Libraries/CMSIS/Include\core_cm0.h **** #define APSR_N_Msk                         (1UL << APSR_N_Pos)                            /*!< APSR
 215:C:/Workspaces/DAVE-4.4.2-64Bit/RoverX/Libraries/CMSIS/Include\core_cm0.h **** 
 216:C:/Workspaces/DAVE-4.4.2-64Bit/RoverX/Libraries/CMSIS/Include\core_cm0.h **** #define APSR_Z_Pos                         30U                                            /*!< APSR
 217:C:/Workspaces/DAVE-4.4.2-64Bit/RoverX/Libraries/CMSIS/Include\core_cm0.h **** #define APSR_Z_Msk                         (1UL << APSR_Z_Pos)                            /*!< APSR
 218:C:/Workspaces/DAVE-4.4.2-64Bit/RoverX/Libraries/CMSIS/Include\core_cm0.h **** 
 219:C:/Workspaces/DAVE-4.4.2-64Bit/RoverX/Libraries/CMSIS/Include\core_cm0.h **** #define APSR_C_Pos                         29U                                            /*!< APSR
 220:C:/Workspaces/DAVE-4.4.2-64Bit/RoverX/Libraries/CMSIS/Include\core_cm0.h **** #define APSR_C_Msk                         (1UL << APSR_C_Pos)                            /*!< APSR
 221:C:/Workspaces/DAVE-4.4.2-64Bit/RoverX/Libraries/CMSIS/Include\core_cm0.h **** 
 222:C:/Workspaces/DAVE-4.4.2-64Bit/RoverX/Libraries/CMSIS/Include\core_cm0.h **** #define APSR_V_Pos                         28U                                            /*!< APSR
 223:C:/Workspaces/DAVE-4.4.2-64Bit/RoverX/Libraries/CMSIS/Include\core_cm0.h **** #define APSR_V_Msk                         (1UL << APSR_V_Pos)                            /*!< APSR
 224:C:/Workspaces/DAVE-4.4.2-64Bit/RoverX/Libraries/CMSIS/Include\core_cm0.h **** 
 225:C:/Workspaces/DAVE-4.4.2-64Bit/RoverX/Libraries/CMSIS/Include\core_cm0.h **** 
 226:C:/Workspaces/DAVE-4.4.2-64Bit/RoverX/Libraries/CMSIS/Include\core_cm0.h **** /**
 227:C:/Workspaces/DAVE-4.4.2-64Bit/RoverX/Libraries/CMSIS/Include\core_cm0.h ****   \brief  Union type to access the Interrupt Program Status Register (IPSR).
 228:C:/Workspaces/DAVE-4.4.2-64Bit/RoverX/Libraries/CMSIS/Include\core_cm0.h ****  */
 229:C:/Workspaces/DAVE-4.4.2-64Bit/RoverX/Libraries/CMSIS/Include\core_cm0.h **** typedef union
 230:C:/Workspaces/DAVE-4.4.2-64Bit/RoverX/Libraries/CMSIS/Include\core_cm0.h **** {
 231:C:/Workspaces/DAVE-4.4.2-64Bit/RoverX/Libraries/CMSIS/Include\core_cm0.h ****   struct
 232:C:/Workspaces/DAVE-4.4.2-64Bit/RoverX/Libraries/CMSIS/Include\core_cm0.h ****   {
 233:C:/Workspaces/DAVE-4.4.2-64Bit/RoverX/Libraries/CMSIS/Include\core_cm0.h ****     uint32_t ISR:9;                      /*!< bit:  0.. 8  Exception number */
 234:C:/Workspaces/DAVE-4.4.2-64Bit/RoverX/Libraries/CMSIS/Include\core_cm0.h ****     uint32_t _reserved0:23;              /*!< bit:  9..31  Reserved */
 235:C:/Workspaces/DAVE-4.4.2-64Bit/RoverX/Libraries/CMSIS/Include\core_cm0.h ****   } b;                                   /*!< Structure used for bit  access */
 236:C:/Workspaces/DAVE-4.4.2-64Bit/RoverX/Libraries/CMSIS/Include\core_cm0.h ****   uint32_t w;                            /*!< Type      used for word access */
 237:C:/Workspaces/DAVE-4.4.2-64Bit/RoverX/Libraries/CMSIS/Include\core_cm0.h **** } IPSR_Type;
 238:C:/Workspaces/DAVE-4.4.2-64Bit/RoverX/Libraries/CMSIS/Include\core_cm0.h **** 
 239:C:/Workspaces/DAVE-4.4.2-64Bit/RoverX/Libraries/CMSIS/Include\core_cm0.h **** /* IPSR Register Definitions */
 240:C:/Workspaces/DAVE-4.4.2-64Bit/RoverX/Libraries/CMSIS/Include\core_cm0.h **** #define IPSR_ISR_Pos                        0U                                            /*!< IPSR
 241:C:/Workspaces/DAVE-4.4.2-64Bit/RoverX/Libraries/CMSIS/Include\core_cm0.h **** #define IPSR_ISR_Msk                       (0x1FFUL /*<< IPSR_ISR_Pos*/)                  /*!< IPSR
 242:C:/Workspaces/DAVE-4.4.2-64Bit/RoverX/Libraries/CMSIS/Include\core_cm0.h **** 
 243:C:/Workspaces/DAVE-4.4.2-64Bit/RoverX/Libraries/CMSIS/Include\core_cm0.h **** 
 244:C:/Workspaces/DAVE-4.4.2-64Bit/RoverX/Libraries/CMSIS/Include\core_cm0.h **** /**
 245:C:/Workspaces/DAVE-4.4.2-64Bit/RoverX/Libraries/CMSIS/Include\core_cm0.h ****   \brief  Union type to access the Special-Purpose Program Status Registers (xPSR).
 246:C:/Workspaces/DAVE-4.4.2-64Bit/RoverX/Libraries/CMSIS/Include\core_cm0.h ****  */
 247:C:/Workspaces/DAVE-4.4.2-64Bit/RoverX/Libraries/CMSIS/Include\core_cm0.h **** typedef union
 248:C:/Workspaces/DAVE-4.4.2-64Bit/RoverX/Libraries/CMSIS/Include\core_cm0.h **** {
 249:C:/Workspaces/DAVE-4.4.2-64Bit/RoverX/Libraries/CMSIS/Include\core_cm0.h ****   struct
 250:C:/Workspaces/DAVE-4.4.2-64Bit/RoverX/Libraries/CMSIS/Include\core_cm0.h ****   {
 251:C:/Workspaces/DAVE-4.4.2-64Bit/RoverX/Libraries/CMSIS/Include\core_cm0.h ****     uint32_t ISR:9;                      /*!< bit:  0.. 8  Exception number */
 252:C:/Workspaces/DAVE-4.4.2-64Bit/RoverX/Libraries/CMSIS/Include\core_cm0.h ****     uint32_t _reserved0:15;              /*!< bit:  9..23  Reserved */
 253:C:/Workspaces/DAVE-4.4.2-64Bit/RoverX/Libraries/CMSIS/Include\core_cm0.h ****     uint32_t T:1;                        /*!< bit:     24  Thumb bit        (read 0) */
 254:C:/Workspaces/DAVE-4.4.2-64Bit/RoverX/Libraries/CMSIS/Include\core_cm0.h ****     uint32_t _reserved1:3;               /*!< bit: 25..27  Reserved */
 255:C:/Workspaces/DAVE-4.4.2-64Bit/RoverX/Libraries/CMSIS/Include\core_cm0.h ****     uint32_t V:1;                        /*!< bit:     28  Overflow condition code flag */
 256:C:/Workspaces/DAVE-4.4.2-64Bit/RoverX/Libraries/CMSIS/Include\core_cm0.h ****     uint32_t C:1;                        /*!< bit:     29  Carry condition code flag */
 257:C:/Workspaces/DAVE-4.4.2-64Bit/RoverX/Libraries/CMSIS/Include\core_cm0.h ****     uint32_t Z:1;                        /*!< bit:     30  Zero condition code flag */
 258:C:/Workspaces/DAVE-4.4.2-64Bit/RoverX/Libraries/CMSIS/Include\core_cm0.h ****     uint32_t N:1;                        /*!< bit:     31  Negative condition code flag */
 259:C:/Workspaces/DAVE-4.4.2-64Bit/RoverX/Libraries/CMSIS/Include\core_cm0.h ****   } b;                                   /*!< Structure used for bit  access */
 260:C:/Workspaces/DAVE-4.4.2-64Bit/RoverX/Libraries/CMSIS/Include\core_cm0.h ****   uint32_t w;                            /*!< Type      used for word access */
 261:C:/Workspaces/DAVE-4.4.2-64Bit/RoverX/Libraries/CMSIS/Include\core_cm0.h **** } xPSR_Type;
 262:C:/Workspaces/DAVE-4.4.2-64Bit/RoverX/Libraries/CMSIS/Include\core_cm0.h **** 
 263:C:/Workspaces/DAVE-4.4.2-64Bit/RoverX/Libraries/CMSIS/Include\core_cm0.h **** /* xPSR Register Definitions */
 264:C:/Workspaces/DAVE-4.4.2-64Bit/RoverX/Libraries/CMSIS/Include\core_cm0.h **** #define xPSR_N_Pos                         31U                                            /*!< xPSR
 265:C:/Workspaces/DAVE-4.4.2-64Bit/RoverX/Libraries/CMSIS/Include\core_cm0.h **** #define xPSR_N_Msk                         (1UL << xPSR_N_Pos)                            /*!< xPSR
 266:C:/Workspaces/DAVE-4.4.2-64Bit/RoverX/Libraries/CMSIS/Include\core_cm0.h **** 
 267:C:/Workspaces/DAVE-4.4.2-64Bit/RoverX/Libraries/CMSIS/Include\core_cm0.h **** #define xPSR_Z_Pos                         30U                                            /*!< xPSR
 268:C:/Workspaces/DAVE-4.4.2-64Bit/RoverX/Libraries/CMSIS/Include\core_cm0.h **** #define xPSR_Z_Msk                         (1UL << xPSR_Z_Pos)                            /*!< xPSR
 269:C:/Workspaces/DAVE-4.4.2-64Bit/RoverX/Libraries/CMSIS/Include\core_cm0.h **** 
 270:C:/Workspaces/DAVE-4.4.2-64Bit/RoverX/Libraries/CMSIS/Include\core_cm0.h **** #define xPSR_C_Pos                         29U                                            /*!< xPSR
 271:C:/Workspaces/DAVE-4.4.2-64Bit/RoverX/Libraries/CMSIS/Include\core_cm0.h **** #define xPSR_C_Msk                         (1UL << xPSR_C_Pos)                            /*!< xPSR
 272:C:/Workspaces/DAVE-4.4.2-64Bit/RoverX/Libraries/CMSIS/Include\core_cm0.h **** 
 273:C:/Workspaces/DAVE-4.4.2-64Bit/RoverX/Libraries/CMSIS/Include\core_cm0.h **** #define xPSR_V_Pos                         28U                                            /*!< xPSR
 274:C:/Workspaces/DAVE-4.4.2-64Bit/RoverX/Libraries/CMSIS/Include\core_cm0.h **** #define xPSR_V_Msk                         (1UL << xPSR_V_Pos)                            /*!< xPSR
 275:C:/Workspaces/DAVE-4.4.2-64Bit/RoverX/Libraries/CMSIS/Include\core_cm0.h **** 
 276:C:/Workspaces/DAVE-4.4.2-64Bit/RoverX/Libraries/CMSIS/Include\core_cm0.h **** #define xPSR_T_Pos                         24U                                            /*!< xPSR
 277:C:/Workspaces/DAVE-4.4.2-64Bit/RoverX/Libraries/CMSIS/Include\core_cm0.h **** #define xPSR_T_Msk                         (1UL << xPSR_T_Pos)                            /*!< xPSR
 278:C:/Workspaces/DAVE-4.4.2-64Bit/RoverX/Libraries/CMSIS/Include\core_cm0.h **** 
 279:C:/Workspaces/DAVE-4.4.2-64Bit/RoverX/Libraries/CMSIS/Include\core_cm0.h **** #define xPSR_ISR_Pos                        0U                                            /*!< xPSR
 280:C:/Workspaces/DAVE-4.4.2-64Bit/RoverX/Libraries/CMSIS/Include\core_cm0.h **** #define xPSR_ISR_Msk                       (0x1FFUL /*<< xPSR_ISR_Pos*/)                  /*!< xPSR
 281:C:/Workspaces/DAVE-4.4.2-64Bit/RoverX/Libraries/CMSIS/Include\core_cm0.h **** 
 282:C:/Workspaces/DAVE-4.4.2-64Bit/RoverX/Libraries/CMSIS/Include\core_cm0.h **** 
 283:C:/Workspaces/DAVE-4.4.2-64Bit/RoverX/Libraries/CMSIS/Include\core_cm0.h **** /**
 284:C:/Workspaces/DAVE-4.4.2-64Bit/RoverX/Libraries/CMSIS/Include\core_cm0.h ****   \brief  Union type to access the Control Registers (CONTROL).
 285:C:/Workspaces/DAVE-4.4.2-64Bit/RoverX/Libraries/CMSIS/Include\core_cm0.h ****  */
 286:C:/Workspaces/DAVE-4.4.2-64Bit/RoverX/Libraries/CMSIS/Include\core_cm0.h **** typedef union
 287:C:/Workspaces/DAVE-4.4.2-64Bit/RoverX/Libraries/CMSIS/Include\core_cm0.h **** {
 288:C:/Workspaces/DAVE-4.4.2-64Bit/RoverX/Libraries/CMSIS/Include\core_cm0.h ****   struct
 289:C:/Workspaces/DAVE-4.4.2-64Bit/RoverX/Libraries/CMSIS/Include\core_cm0.h ****   {
 290:C:/Workspaces/DAVE-4.4.2-64Bit/RoverX/Libraries/CMSIS/Include\core_cm0.h ****     uint32_t _reserved0:1;               /*!< bit:      0  Reserved */
 291:C:/Workspaces/DAVE-4.4.2-64Bit/RoverX/Libraries/CMSIS/Include\core_cm0.h ****     uint32_t SPSEL:1;                    /*!< bit:      1  Stack to be used */
 292:C:/Workspaces/DAVE-4.4.2-64Bit/RoverX/Libraries/CMSIS/Include\core_cm0.h ****     uint32_t _reserved1:30;              /*!< bit:  2..31  Reserved */
 293:C:/Workspaces/DAVE-4.4.2-64Bit/RoverX/Libraries/CMSIS/Include\core_cm0.h ****   } b;                                   /*!< Structure used for bit  access */
 294:C:/Workspaces/DAVE-4.4.2-64Bit/RoverX/Libraries/CMSIS/Include\core_cm0.h ****   uint32_t w;                            /*!< Type      used for word access */
 295:C:/Workspaces/DAVE-4.4.2-64Bit/RoverX/Libraries/CMSIS/Include\core_cm0.h **** } CONTROL_Type;
 296:C:/Workspaces/DAVE-4.4.2-64Bit/RoverX/Libraries/CMSIS/Include\core_cm0.h **** 
 297:C:/Workspaces/DAVE-4.4.2-64Bit/RoverX/Libraries/CMSIS/Include\core_cm0.h **** /* CONTROL Register Definitions */
 298:C:/Workspaces/DAVE-4.4.2-64Bit/RoverX/Libraries/CMSIS/Include\core_cm0.h **** #define CONTROL_SPSEL_Pos                   1U                                            /*!< CONT
 299:C:/Workspaces/DAVE-4.4.2-64Bit/RoverX/Libraries/CMSIS/Include\core_cm0.h **** #define CONTROL_SPSEL_Msk                  (1UL << CONTROL_SPSEL_Pos)                     /*!< CONT
 300:C:/Workspaces/DAVE-4.4.2-64Bit/RoverX/Libraries/CMSIS/Include\core_cm0.h **** 
 301:C:/Workspaces/DAVE-4.4.2-64Bit/RoverX/Libraries/CMSIS/Include\core_cm0.h **** /*@} end of group CMSIS_CORE */
 302:C:/Workspaces/DAVE-4.4.2-64Bit/RoverX/Libraries/CMSIS/Include\core_cm0.h **** 
 303:C:/Workspaces/DAVE-4.4.2-64Bit/RoverX/Libraries/CMSIS/Include\core_cm0.h **** 
 304:C:/Workspaces/DAVE-4.4.2-64Bit/RoverX/Libraries/CMSIS/Include\core_cm0.h **** /**
 305:C:/Workspaces/DAVE-4.4.2-64Bit/RoverX/Libraries/CMSIS/Include\core_cm0.h ****   \ingroup    CMSIS_core_register
 306:C:/Workspaces/DAVE-4.4.2-64Bit/RoverX/Libraries/CMSIS/Include\core_cm0.h ****   \defgroup   CMSIS_NVIC  Nested Vectored Interrupt Controller (NVIC)
 307:C:/Workspaces/DAVE-4.4.2-64Bit/RoverX/Libraries/CMSIS/Include\core_cm0.h ****   \brief      Type definitions for the NVIC Registers
 308:C:/Workspaces/DAVE-4.4.2-64Bit/RoverX/Libraries/CMSIS/Include\core_cm0.h ****   @{
 309:C:/Workspaces/DAVE-4.4.2-64Bit/RoverX/Libraries/CMSIS/Include\core_cm0.h ****  */
 310:C:/Workspaces/DAVE-4.4.2-64Bit/RoverX/Libraries/CMSIS/Include\core_cm0.h **** 
 311:C:/Workspaces/DAVE-4.4.2-64Bit/RoverX/Libraries/CMSIS/Include\core_cm0.h **** /**
 312:C:/Workspaces/DAVE-4.4.2-64Bit/RoverX/Libraries/CMSIS/Include\core_cm0.h ****   \brief  Structure type to access the Nested Vectored Interrupt Controller (NVIC).
 313:C:/Workspaces/DAVE-4.4.2-64Bit/RoverX/Libraries/CMSIS/Include\core_cm0.h ****  */
 314:C:/Workspaces/DAVE-4.4.2-64Bit/RoverX/Libraries/CMSIS/Include\core_cm0.h **** typedef struct
 315:C:/Workspaces/DAVE-4.4.2-64Bit/RoverX/Libraries/CMSIS/Include\core_cm0.h **** {
 316:C:/Workspaces/DAVE-4.4.2-64Bit/RoverX/Libraries/CMSIS/Include\core_cm0.h ****   __IOM uint32_t ISER[1U];               /*!< Offset: 0x000 (R/W)  Interrupt Set Enable Register */
 317:C:/Workspaces/DAVE-4.4.2-64Bit/RoverX/Libraries/CMSIS/Include\core_cm0.h ****         uint32_t RESERVED0[31U];
 318:C:/Workspaces/DAVE-4.4.2-64Bit/RoverX/Libraries/CMSIS/Include\core_cm0.h ****   __IOM uint32_t ICER[1U];               /*!< Offset: 0x080 (R/W)  Interrupt Clear Enable Register 
 319:C:/Workspaces/DAVE-4.4.2-64Bit/RoverX/Libraries/CMSIS/Include\core_cm0.h ****         uint32_t RESERVED1[31U];
 320:C:/Workspaces/DAVE-4.4.2-64Bit/RoverX/Libraries/CMSIS/Include\core_cm0.h ****   __IOM uint32_t ISPR[1U];               /*!< Offset: 0x100 (R/W)  Interrupt Set Pending Register *
 321:C:/Workspaces/DAVE-4.4.2-64Bit/RoverX/Libraries/CMSIS/Include\core_cm0.h ****         uint32_t RESERVED2[31U];
 322:C:/Workspaces/DAVE-4.4.2-64Bit/RoverX/Libraries/CMSIS/Include\core_cm0.h ****   __IOM uint32_t ICPR[1U];               /*!< Offset: 0x180 (R/W)  Interrupt Clear Pending Register
 323:C:/Workspaces/DAVE-4.4.2-64Bit/RoverX/Libraries/CMSIS/Include\core_cm0.h ****         uint32_t RESERVED3[31U];
 324:C:/Workspaces/DAVE-4.4.2-64Bit/RoverX/Libraries/CMSIS/Include\core_cm0.h ****         uint32_t RESERVED4[64U];
 325:C:/Workspaces/DAVE-4.4.2-64Bit/RoverX/Libraries/CMSIS/Include\core_cm0.h ****   __IOM uint32_t IP[8U];                 /*!< Offset: 0x300 (R/W)  Interrupt Priority Register */
 326:C:/Workspaces/DAVE-4.4.2-64Bit/RoverX/Libraries/CMSIS/Include\core_cm0.h **** }  NVIC_Type;
 327:C:/Workspaces/DAVE-4.4.2-64Bit/RoverX/Libraries/CMSIS/Include\core_cm0.h **** 
 328:C:/Workspaces/DAVE-4.4.2-64Bit/RoverX/Libraries/CMSIS/Include\core_cm0.h **** /*@} end of group CMSIS_NVIC */
 329:C:/Workspaces/DAVE-4.4.2-64Bit/RoverX/Libraries/CMSIS/Include\core_cm0.h **** 
 330:C:/Workspaces/DAVE-4.4.2-64Bit/RoverX/Libraries/CMSIS/Include\core_cm0.h **** 
 331:C:/Workspaces/DAVE-4.4.2-64Bit/RoverX/Libraries/CMSIS/Include\core_cm0.h **** /**
 332:C:/Workspaces/DAVE-4.4.2-64Bit/RoverX/Libraries/CMSIS/Include\core_cm0.h ****   \ingroup  CMSIS_core_register
 333:C:/Workspaces/DAVE-4.4.2-64Bit/RoverX/Libraries/CMSIS/Include\core_cm0.h ****   \defgroup CMSIS_SCB     System Control Block (SCB)
 334:C:/Workspaces/DAVE-4.4.2-64Bit/RoverX/Libraries/CMSIS/Include\core_cm0.h ****   \brief    Type definitions for the System Control Block Registers
 335:C:/Workspaces/DAVE-4.4.2-64Bit/RoverX/Libraries/CMSIS/Include\core_cm0.h ****   @{
 336:C:/Workspaces/DAVE-4.4.2-64Bit/RoverX/Libraries/CMSIS/Include\core_cm0.h ****  */
 337:C:/Workspaces/DAVE-4.4.2-64Bit/RoverX/Libraries/CMSIS/Include\core_cm0.h **** 
 338:C:/Workspaces/DAVE-4.4.2-64Bit/RoverX/Libraries/CMSIS/Include\core_cm0.h **** /**
 339:C:/Workspaces/DAVE-4.4.2-64Bit/RoverX/Libraries/CMSIS/Include\core_cm0.h ****   \brief  Structure type to access the System Control Block (SCB).
 340:C:/Workspaces/DAVE-4.4.2-64Bit/RoverX/Libraries/CMSIS/Include\core_cm0.h ****  */
 341:C:/Workspaces/DAVE-4.4.2-64Bit/RoverX/Libraries/CMSIS/Include\core_cm0.h **** typedef struct
 342:C:/Workspaces/DAVE-4.4.2-64Bit/RoverX/Libraries/CMSIS/Include\core_cm0.h **** {
 343:C:/Workspaces/DAVE-4.4.2-64Bit/RoverX/Libraries/CMSIS/Include\core_cm0.h ****   __IM  uint32_t CPUID;                  /*!< Offset: 0x000 (R/ )  CPUID Base Register */
 344:C:/Workspaces/DAVE-4.4.2-64Bit/RoverX/Libraries/CMSIS/Include\core_cm0.h ****   __IOM uint32_t ICSR;                   /*!< Offset: 0x004 (R/W)  Interrupt Control and State Regi
 345:C:/Workspaces/DAVE-4.4.2-64Bit/RoverX/Libraries/CMSIS/Include\core_cm0.h ****         uint32_t RESERVED0;
 346:C:/Workspaces/DAVE-4.4.2-64Bit/RoverX/Libraries/CMSIS/Include\core_cm0.h ****   __IOM uint32_t AIRCR;                  /*!< Offset: 0x00C (R/W)  Application Interrupt and Reset 
 347:C:/Workspaces/DAVE-4.4.2-64Bit/RoverX/Libraries/CMSIS/Include\core_cm0.h ****   __IOM uint32_t SCR;                    /*!< Offset: 0x010 (R/W)  System Control Register */
 348:C:/Workspaces/DAVE-4.4.2-64Bit/RoverX/Libraries/CMSIS/Include\core_cm0.h ****   __IOM uint32_t CCR;                    /*!< Offset: 0x014 (R/W)  Configuration Control Register *
 349:C:/Workspaces/DAVE-4.4.2-64Bit/RoverX/Libraries/CMSIS/Include\core_cm0.h ****         uint32_t RESERVED1;
 350:C:/Workspaces/DAVE-4.4.2-64Bit/RoverX/Libraries/CMSIS/Include\core_cm0.h ****   __IOM uint32_t SHP[2U];                /*!< Offset: 0x01C (R/W)  System Handlers Priority Registe
 351:C:/Workspaces/DAVE-4.4.2-64Bit/RoverX/Libraries/CMSIS/Include\core_cm0.h ****   __IOM uint32_t SHCSR;                  /*!< Offset: 0x024 (R/W)  System Handler Control and State
 352:C:/Workspaces/DAVE-4.4.2-64Bit/RoverX/Libraries/CMSIS/Include\core_cm0.h **** } SCB_Type;
 353:C:/Workspaces/DAVE-4.4.2-64Bit/RoverX/Libraries/CMSIS/Include\core_cm0.h **** 
 354:C:/Workspaces/DAVE-4.4.2-64Bit/RoverX/Libraries/CMSIS/Include\core_cm0.h **** /* SCB CPUID Register Definitions */
 355:C:/Workspaces/DAVE-4.4.2-64Bit/RoverX/Libraries/CMSIS/Include\core_cm0.h **** #define SCB_CPUID_IMPLEMENTER_Pos          24U                                            /*!< SCB 
 356:C:/Workspaces/DAVE-4.4.2-64Bit/RoverX/Libraries/CMSIS/Include\core_cm0.h **** #define SCB_CPUID_IMPLEMENTER_Msk          (0xFFUL << SCB_CPUID_IMPLEMENTER_Pos)          /*!< SCB 
 357:C:/Workspaces/DAVE-4.4.2-64Bit/RoverX/Libraries/CMSIS/Include\core_cm0.h **** 
 358:C:/Workspaces/DAVE-4.4.2-64Bit/RoverX/Libraries/CMSIS/Include\core_cm0.h **** #define SCB_CPUID_VARIANT_Pos              20U                                            /*!< SCB 
 359:C:/Workspaces/DAVE-4.4.2-64Bit/RoverX/Libraries/CMSIS/Include\core_cm0.h **** #define SCB_CPUID_VARIANT_Msk              (0xFUL << SCB_CPUID_VARIANT_Pos)               /*!< SCB 
 360:C:/Workspaces/DAVE-4.4.2-64Bit/RoverX/Libraries/CMSIS/Include\core_cm0.h **** 
 361:C:/Workspaces/DAVE-4.4.2-64Bit/RoverX/Libraries/CMSIS/Include\core_cm0.h **** #define SCB_CPUID_ARCHITECTURE_Pos         16U                                            /*!< SCB 
 362:C:/Workspaces/DAVE-4.4.2-64Bit/RoverX/Libraries/CMSIS/Include\core_cm0.h **** #define SCB_CPUID_ARCHITECTURE_Msk         (0xFUL << SCB_CPUID_ARCHITECTURE_Pos)          /*!< SCB 
 363:C:/Workspaces/DAVE-4.4.2-64Bit/RoverX/Libraries/CMSIS/Include\core_cm0.h **** 
 364:C:/Workspaces/DAVE-4.4.2-64Bit/RoverX/Libraries/CMSIS/Include\core_cm0.h **** #define SCB_CPUID_PARTNO_Pos                4U                                            /*!< SCB 
 365:C:/Workspaces/DAVE-4.4.2-64Bit/RoverX/Libraries/CMSIS/Include\core_cm0.h **** #define SCB_CPUID_PARTNO_Msk               (0xFFFUL << SCB_CPUID_PARTNO_Pos)              /*!< SCB 
 366:C:/Workspaces/DAVE-4.4.2-64Bit/RoverX/Libraries/CMSIS/Include\core_cm0.h **** 
 367:C:/Workspaces/DAVE-4.4.2-64Bit/RoverX/Libraries/CMSIS/Include\core_cm0.h **** #define SCB_CPUID_REVISION_Pos              0U                                            /*!< SCB 
 368:C:/Workspaces/DAVE-4.4.2-64Bit/RoverX/Libraries/CMSIS/Include\core_cm0.h **** #define SCB_CPUID_REVISION_Msk             (0xFUL /*<< SCB_CPUID_REVISION_Pos*/)          /*!< SCB 
 369:C:/Workspaces/DAVE-4.4.2-64Bit/RoverX/Libraries/CMSIS/Include\core_cm0.h **** 
 370:C:/Workspaces/DAVE-4.4.2-64Bit/RoverX/Libraries/CMSIS/Include\core_cm0.h **** /* SCB Interrupt Control State Register Definitions */
 371:C:/Workspaces/DAVE-4.4.2-64Bit/RoverX/Libraries/CMSIS/Include\core_cm0.h **** #define SCB_ICSR_NMIPENDSET_Pos            31U                                            /*!< SCB 
 372:C:/Workspaces/DAVE-4.4.2-64Bit/RoverX/Libraries/CMSIS/Include\core_cm0.h **** #define SCB_ICSR_NMIPENDSET_Msk            (1UL << SCB_ICSR_NMIPENDSET_Pos)               /*!< SCB 
 373:C:/Workspaces/DAVE-4.4.2-64Bit/RoverX/Libraries/CMSIS/Include\core_cm0.h **** 
 374:C:/Workspaces/DAVE-4.4.2-64Bit/RoverX/Libraries/CMSIS/Include\core_cm0.h **** #define SCB_ICSR_PENDSVSET_Pos             28U                                            /*!< SCB 
 375:C:/Workspaces/DAVE-4.4.2-64Bit/RoverX/Libraries/CMSIS/Include\core_cm0.h **** #define SCB_ICSR_PENDSVSET_Msk             (1UL << SCB_ICSR_PENDSVSET_Pos)                /*!< SCB 
 376:C:/Workspaces/DAVE-4.4.2-64Bit/RoverX/Libraries/CMSIS/Include\core_cm0.h **** 
 377:C:/Workspaces/DAVE-4.4.2-64Bit/RoverX/Libraries/CMSIS/Include\core_cm0.h **** #define SCB_ICSR_PENDSVCLR_Pos             27U                                            /*!< SCB 
 378:C:/Workspaces/DAVE-4.4.2-64Bit/RoverX/Libraries/CMSIS/Include\core_cm0.h **** #define SCB_ICSR_PENDSVCLR_Msk             (1UL << SCB_ICSR_PENDSVCLR_Pos)                /*!< SCB 
 379:C:/Workspaces/DAVE-4.4.2-64Bit/RoverX/Libraries/CMSIS/Include\core_cm0.h **** 
 380:C:/Workspaces/DAVE-4.4.2-64Bit/RoverX/Libraries/CMSIS/Include\core_cm0.h **** #define SCB_ICSR_PENDSTSET_Pos             26U                                            /*!< SCB 
 381:C:/Workspaces/DAVE-4.4.2-64Bit/RoverX/Libraries/CMSIS/Include\core_cm0.h **** #define SCB_ICSR_PENDSTSET_Msk             (1UL << SCB_ICSR_PENDSTSET_Pos)                /*!< SCB 
 382:C:/Workspaces/DAVE-4.4.2-64Bit/RoverX/Libraries/CMSIS/Include\core_cm0.h **** 
 383:C:/Workspaces/DAVE-4.4.2-64Bit/RoverX/Libraries/CMSIS/Include\core_cm0.h **** #define SCB_ICSR_PENDSTCLR_Pos             25U                                            /*!< SCB 
 384:C:/Workspaces/DAVE-4.4.2-64Bit/RoverX/Libraries/CMSIS/Include\core_cm0.h **** #define SCB_ICSR_PENDSTCLR_Msk             (1UL << SCB_ICSR_PENDSTCLR_Pos)                /*!< SCB 
 385:C:/Workspaces/DAVE-4.4.2-64Bit/RoverX/Libraries/CMSIS/Include\core_cm0.h **** 
 386:C:/Workspaces/DAVE-4.4.2-64Bit/RoverX/Libraries/CMSIS/Include\core_cm0.h **** #define SCB_ICSR_ISRPREEMPT_Pos            23U                                            /*!< SCB 
 387:C:/Workspaces/DAVE-4.4.2-64Bit/RoverX/Libraries/CMSIS/Include\core_cm0.h **** #define SCB_ICSR_ISRPREEMPT_Msk            (1UL << SCB_ICSR_ISRPREEMPT_Pos)               /*!< SCB 
 388:C:/Workspaces/DAVE-4.4.2-64Bit/RoverX/Libraries/CMSIS/Include\core_cm0.h **** 
 389:C:/Workspaces/DAVE-4.4.2-64Bit/RoverX/Libraries/CMSIS/Include\core_cm0.h **** #define SCB_ICSR_ISRPENDING_Pos            22U                                            /*!< SCB 
 390:C:/Workspaces/DAVE-4.4.2-64Bit/RoverX/Libraries/CMSIS/Include\core_cm0.h **** #define SCB_ICSR_ISRPENDING_Msk            (1UL << SCB_ICSR_ISRPENDING_Pos)               /*!< SCB 
 391:C:/Workspaces/DAVE-4.4.2-64Bit/RoverX/Libraries/CMSIS/Include\core_cm0.h **** 
 392:C:/Workspaces/DAVE-4.4.2-64Bit/RoverX/Libraries/CMSIS/Include\core_cm0.h **** #define SCB_ICSR_VECTPENDING_Pos           12U                                            /*!< SCB 
 393:C:/Workspaces/DAVE-4.4.2-64Bit/RoverX/Libraries/CMSIS/Include\core_cm0.h **** #define SCB_ICSR_VECTPENDING_Msk           (0x1FFUL << SCB_ICSR_VECTPENDING_Pos)          /*!< SCB 
 394:C:/Workspaces/DAVE-4.4.2-64Bit/RoverX/Libraries/CMSIS/Include\core_cm0.h **** 
 395:C:/Workspaces/DAVE-4.4.2-64Bit/RoverX/Libraries/CMSIS/Include\core_cm0.h **** #define SCB_ICSR_VECTACTIVE_Pos             0U                                            /*!< SCB 
 396:C:/Workspaces/DAVE-4.4.2-64Bit/RoverX/Libraries/CMSIS/Include\core_cm0.h **** #define SCB_ICSR_VECTACTIVE_Msk            (0x1FFUL /*<< SCB_ICSR_VECTACTIVE_Pos*/)       /*!< SCB 
 397:C:/Workspaces/DAVE-4.4.2-64Bit/RoverX/Libraries/CMSIS/Include\core_cm0.h **** 
 398:C:/Workspaces/DAVE-4.4.2-64Bit/RoverX/Libraries/CMSIS/Include\core_cm0.h **** /* SCB Application Interrupt and Reset Control Register Definitions */
 399:C:/Workspaces/DAVE-4.4.2-64Bit/RoverX/Libraries/CMSIS/Include\core_cm0.h **** #define SCB_AIRCR_VECTKEY_Pos              16U                                            /*!< SCB 
 400:C:/Workspaces/DAVE-4.4.2-64Bit/RoverX/Libraries/CMSIS/Include\core_cm0.h **** #define SCB_AIRCR_VECTKEY_Msk              (0xFFFFUL << SCB_AIRCR_VECTKEY_Pos)            /*!< SCB 
 401:C:/Workspaces/DAVE-4.4.2-64Bit/RoverX/Libraries/CMSIS/Include\core_cm0.h **** 
 402:C:/Workspaces/DAVE-4.4.2-64Bit/RoverX/Libraries/CMSIS/Include\core_cm0.h **** #define SCB_AIRCR_VECTKEYSTAT_Pos          16U                                            /*!< SCB 
 403:C:/Workspaces/DAVE-4.4.2-64Bit/RoverX/Libraries/CMSIS/Include\core_cm0.h **** #define SCB_AIRCR_VECTKEYSTAT_Msk          (0xFFFFUL << SCB_AIRCR_VECTKEYSTAT_Pos)        /*!< SCB 
 404:C:/Workspaces/DAVE-4.4.2-64Bit/RoverX/Libraries/CMSIS/Include\core_cm0.h **** 
 405:C:/Workspaces/DAVE-4.4.2-64Bit/RoverX/Libraries/CMSIS/Include\core_cm0.h **** #define SCB_AIRCR_ENDIANESS_Pos            15U                                            /*!< SCB 
 406:C:/Workspaces/DAVE-4.4.2-64Bit/RoverX/Libraries/CMSIS/Include\core_cm0.h **** #define SCB_AIRCR_ENDIANESS_Msk            (1UL << SCB_AIRCR_ENDIANESS_Pos)               /*!< SCB 
 407:C:/Workspaces/DAVE-4.4.2-64Bit/RoverX/Libraries/CMSIS/Include\core_cm0.h **** 
 408:C:/Workspaces/DAVE-4.4.2-64Bit/RoverX/Libraries/CMSIS/Include\core_cm0.h **** #define SCB_AIRCR_SYSRESETREQ_Pos           2U                                            /*!< SCB 
 409:C:/Workspaces/DAVE-4.4.2-64Bit/RoverX/Libraries/CMSIS/Include\core_cm0.h **** #define SCB_AIRCR_SYSRESETREQ_Msk          (1UL << SCB_AIRCR_SYSRESETREQ_Pos)             /*!< SCB 
 410:C:/Workspaces/DAVE-4.4.2-64Bit/RoverX/Libraries/CMSIS/Include\core_cm0.h **** 
 411:C:/Workspaces/DAVE-4.4.2-64Bit/RoverX/Libraries/CMSIS/Include\core_cm0.h **** #define SCB_AIRCR_VECTCLRACTIVE_Pos         1U                                            /*!< SCB 
 412:C:/Workspaces/DAVE-4.4.2-64Bit/RoverX/Libraries/CMSIS/Include\core_cm0.h **** #define SCB_AIRCR_VECTCLRACTIVE_Msk        (1UL << SCB_AIRCR_VECTCLRACTIVE_Pos)           /*!< SCB 
 413:C:/Workspaces/DAVE-4.4.2-64Bit/RoverX/Libraries/CMSIS/Include\core_cm0.h **** 
 414:C:/Workspaces/DAVE-4.4.2-64Bit/RoverX/Libraries/CMSIS/Include\core_cm0.h **** /* SCB System Control Register Definitions */
 415:C:/Workspaces/DAVE-4.4.2-64Bit/RoverX/Libraries/CMSIS/Include\core_cm0.h **** #define SCB_SCR_SEVONPEND_Pos               4U                                            /*!< SCB 
 416:C:/Workspaces/DAVE-4.4.2-64Bit/RoverX/Libraries/CMSIS/Include\core_cm0.h **** #define SCB_SCR_SEVONPEND_Msk              (1UL << SCB_SCR_SEVONPEND_Pos)                 /*!< SCB 
 417:C:/Workspaces/DAVE-4.4.2-64Bit/RoverX/Libraries/CMSIS/Include\core_cm0.h **** 
 418:C:/Workspaces/DAVE-4.4.2-64Bit/RoverX/Libraries/CMSIS/Include\core_cm0.h **** #define SCB_SCR_SLEEPDEEP_Pos               2U                                            /*!< SCB 
 419:C:/Workspaces/DAVE-4.4.2-64Bit/RoverX/Libraries/CMSIS/Include\core_cm0.h **** #define SCB_SCR_SLEEPDEEP_Msk              (1UL << SCB_SCR_SLEEPDEEP_Pos)                 /*!< SCB 
 420:C:/Workspaces/DAVE-4.4.2-64Bit/RoverX/Libraries/CMSIS/Include\core_cm0.h **** 
 421:C:/Workspaces/DAVE-4.4.2-64Bit/RoverX/Libraries/CMSIS/Include\core_cm0.h **** #define SCB_SCR_SLEEPONEXIT_Pos             1U                                            /*!< SCB 
 422:C:/Workspaces/DAVE-4.4.2-64Bit/RoverX/Libraries/CMSIS/Include\core_cm0.h **** #define SCB_SCR_SLEEPONEXIT_Msk            (1UL << SCB_SCR_SLEEPONEXIT_Pos)               /*!< SCB 
 423:C:/Workspaces/DAVE-4.4.2-64Bit/RoverX/Libraries/CMSIS/Include\core_cm0.h **** 
 424:C:/Workspaces/DAVE-4.4.2-64Bit/RoverX/Libraries/CMSIS/Include\core_cm0.h **** /* SCB Configuration Control Register Definitions */
 425:C:/Workspaces/DAVE-4.4.2-64Bit/RoverX/Libraries/CMSIS/Include\core_cm0.h **** #define SCB_CCR_STKALIGN_Pos                9U                                            /*!< SCB 
 426:C:/Workspaces/DAVE-4.4.2-64Bit/RoverX/Libraries/CMSIS/Include\core_cm0.h **** #define SCB_CCR_STKALIGN_Msk               (1UL << SCB_CCR_STKALIGN_Pos)                  /*!< SCB 
 427:C:/Workspaces/DAVE-4.4.2-64Bit/RoverX/Libraries/CMSIS/Include\core_cm0.h **** 
 428:C:/Workspaces/DAVE-4.4.2-64Bit/RoverX/Libraries/CMSIS/Include\core_cm0.h **** #define SCB_CCR_UNALIGN_TRP_Pos             3U                                            /*!< SCB 
 429:C:/Workspaces/DAVE-4.4.2-64Bit/RoverX/Libraries/CMSIS/Include\core_cm0.h **** #define SCB_CCR_UNALIGN_TRP_Msk            (1UL << SCB_CCR_UNALIGN_TRP_Pos)               /*!< SCB 
 430:C:/Workspaces/DAVE-4.4.2-64Bit/RoverX/Libraries/CMSIS/Include\core_cm0.h **** 
 431:C:/Workspaces/DAVE-4.4.2-64Bit/RoverX/Libraries/CMSIS/Include\core_cm0.h **** /* SCB System Handler Control and State Register Definitions */
 432:C:/Workspaces/DAVE-4.4.2-64Bit/RoverX/Libraries/CMSIS/Include\core_cm0.h **** #define SCB_SHCSR_SVCALLPENDED_Pos         15U                                            /*!< SCB 
 433:C:/Workspaces/DAVE-4.4.2-64Bit/RoverX/Libraries/CMSIS/Include\core_cm0.h **** #define SCB_SHCSR_SVCALLPENDED_Msk         (1UL << SCB_SHCSR_SVCALLPENDED_Pos)            /*!< SCB 
 434:C:/Workspaces/DAVE-4.4.2-64Bit/RoverX/Libraries/CMSIS/Include\core_cm0.h **** 
 435:C:/Workspaces/DAVE-4.4.2-64Bit/RoverX/Libraries/CMSIS/Include\core_cm0.h **** /*@} end of group CMSIS_SCB */
 436:C:/Workspaces/DAVE-4.4.2-64Bit/RoverX/Libraries/CMSIS/Include\core_cm0.h **** 
 437:C:/Workspaces/DAVE-4.4.2-64Bit/RoverX/Libraries/CMSIS/Include\core_cm0.h **** 
 438:C:/Workspaces/DAVE-4.4.2-64Bit/RoverX/Libraries/CMSIS/Include\core_cm0.h **** /**
 439:C:/Workspaces/DAVE-4.4.2-64Bit/RoverX/Libraries/CMSIS/Include\core_cm0.h ****   \ingroup  CMSIS_core_register
 440:C:/Workspaces/DAVE-4.4.2-64Bit/RoverX/Libraries/CMSIS/Include\core_cm0.h ****   \defgroup CMSIS_SysTick     System Tick Timer (SysTick)
 441:C:/Workspaces/DAVE-4.4.2-64Bit/RoverX/Libraries/CMSIS/Include\core_cm0.h ****   \brief    Type definitions for the System Timer Registers.
 442:C:/Workspaces/DAVE-4.4.2-64Bit/RoverX/Libraries/CMSIS/Include\core_cm0.h ****   @{
 443:C:/Workspaces/DAVE-4.4.2-64Bit/RoverX/Libraries/CMSIS/Include\core_cm0.h ****  */
 444:C:/Workspaces/DAVE-4.4.2-64Bit/RoverX/Libraries/CMSIS/Include\core_cm0.h **** 
 445:C:/Workspaces/DAVE-4.4.2-64Bit/RoverX/Libraries/CMSIS/Include\core_cm0.h **** /**
 446:C:/Workspaces/DAVE-4.4.2-64Bit/RoverX/Libraries/CMSIS/Include\core_cm0.h ****   \brief  Structure type to access the System Timer (SysTick).
 447:C:/Workspaces/DAVE-4.4.2-64Bit/RoverX/Libraries/CMSIS/Include\core_cm0.h ****  */
 448:C:/Workspaces/DAVE-4.4.2-64Bit/RoverX/Libraries/CMSIS/Include\core_cm0.h **** typedef struct
 449:C:/Workspaces/DAVE-4.4.2-64Bit/RoverX/Libraries/CMSIS/Include\core_cm0.h **** {
 450:C:/Workspaces/DAVE-4.4.2-64Bit/RoverX/Libraries/CMSIS/Include\core_cm0.h ****   __IOM uint32_t CTRL;                   /*!< Offset: 0x000 (R/W)  SysTick Control and Status Regis
 451:C:/Workspaces/DAVE-4.4.2-64Bit/RoverX/Libraries/CMSIS/Include\core_cm0.h ****   __IOM uint32_t LOAD;                   /*!< Offset: 0x004 (R/W)  SysTick Reload Value Register */
 452:C:/Workspaces/DAVE-4.4.2-64Bit/RoverX/Libraries/CMSIS/Include\core_cm0.h ****   __IOM uint32_t VAL;                    /*!< Offset: 0x008 (R/W)  SysTick Current Value Register *
 453:C:/Workspaces/DAVE-4.4.2-64Bit/RoverX/Libraries/CMSIS/Include\core_cm0.h ****   __IM  uint32_t CALIB;                  /*!< Offset: 0x00C (R/ )  SysTick Calibration Register */
 454:C:/Workspaces/DAVE-4.4.2-64Bit/RoverX/Libraries/CMSIS/Include\core_cm0.h **** } SysTick_Type;
 455:C:/Workspaces/DAVE-4.4.2-64Bit/RoverX/Libraries/CMSIS/Include\core_cm0.h **** 
 456:C:/Workspaces/DAVE-4.4.2-64Bit/RoverX/Libraries/CMSIS/Include\core_cm0.h **** /* SysTick Control / Status Register Definitions */
 457:C:/Workspaces/DAVE-4.4.2-64Bit/RoverX/Libraries/CMSIS/Include\core_cm0.h **** #define SysTick_CTRL_COUNTFLAG_Pos         16U                                            /*!< SysT
 458:C:/Workspaces/DAVE-4.4.2-64Bit/RoverX/Libraries/CMSIS/Include\core_cm0.h **** #define SysTick_CTRL_COUNTFLAG_Msk         (1UL << SysTick_CTRL_COUNTFLAG_Pos)            /*!< SysT
 459:C:/Workspaces/DAVE-4.4.2-64Bit/RoverX/Libraries/CMSIS/Include\core_cm0.h **** 
 460:C:/Workspaces/DAVE-4.4.2-64Bit/RoverX/Libraries/CMSIS/Include\core_cm0.h **** #define SysTick_CTRL_CLKSOURCE_Pos          2U                                            /*!< SysT
 461:C:/Workspaces/DAVE-4.4.2-64Bit/RoverX/Libraries/CMSIS/Include\core_cm0.h **** #define SysTick_CTRL_CLKSOURCE_Msk         (1UL << SysTick_CTRL_CLKSOURCE_Pos)            /*!< SysT
 462:C:/Workspaces/DAVE-4.4.2-64Bit/RoverX/Libraries/CMSIS/Include\core_cm0.h **** 
 463:C:/Workspaces/DAVE-4.4.2-64Bit/RoverX/Libraries/CMSIS/Include\core_cm0.h **** #define SysTick_CTRL_TICKINT_Pos            1U                                            /*!< SysT
 464:C:/Workspaces/DAVE-4.4.2-64Bit/RoverX/Libraries/CMSIS/Include\core_cm0.h **** #define SysTick_CTRL_TICKINT_Msk           (1UL << SysTick_CTRL_TICKINT_Pos)              /*!< SysT
 465:C:/Workspaces/DAVE-4.4.2-64Bit/RoverX/Libraries/CMSIS/Include\core_cm0.h **** 
 466:C:/Workspaces/DAVE-4.4.2-64Bit/RoverX/Libraries/CMSIS/Include\core_cm0.h **** #define SysTick_CTRL_ENABLE_Pos             0U                                            /*!< SysT
 467:C:/Workspaces/DAVE-4.4.2-64Bit/RoverX/Libraries/CMSIS/Include\core_cm0.h **** #define SysTick_CTRL_ENABLE_Msk            (1UL /*<< SysTick_CTRL_ENABLE_Pos*/)           /*!< SysT
 468:C:/Workspaces/DAVE-4.4.2-64Bit/RoverX/Libraries/CMSIS/Include\core_cm0.h **** 
 469:C:/Workspaces/DAVE-4.4.2-64Bit/RoverX/Libraries/CMSIS/Include\core_cm0.h **** /* SysTick Reload Register Definitions */
 470:C:/Workspaces/DAVE-4.4.2-64Bit/RoverX/Libraries/CMSIS/Include\core_cm0.h **** #define SysTick_LOAD_RELOAD_Pos             0U                                            /*!< SysT
 471:C:/Workspaces/DAVE-4.4.2-64Bit/RoverX/Libraries/CMSIS/Include\core_cm0.h **** #define SysTick_LOAD_RELOAD_Msk            (0xFFFFFFUL /*<< SysTick_LOAD_RELOAD_Pos*/)    /*!< SysT
 472:C:/Workspaces/DAVE-4.4.2-64Bit/RoverX/Libraries/CMSIS/Include\core_cm0.h **** 
 473:C:/Workspaces/DAVE-4.4.2-64Bit/RoverX/Libraries/CMSIS/Include\core_cm0.h **** /* SysTick Current Register Definitions */
 474:C:/Workspaces/DAVE-4.4.2-64Bit/RoverX/Libraries/CMSIS/Include\core_cm0.h **** #define SysTick_VAL_CURRENT_Pos             0U                                            /*!< SysT
 475:C:/Workspaces/DAVE-4.4.2-64Bit/RoverX/Libraries/CMSIS/Include\core_cm0.h **** #define SysTick_VAL_CURRENT_Msk            (0xFFFFFFUL /*<< SysTick_VAL_CURRENT_Pos*/)    /*!< SysT
 476:C:/Workspaces/DAVE-4.4.2-64Bit/RoverX/Libraries/CMSIS/Include\core_cm0.h **** 
 477:C:/Workspaces/DAVE-4.4.2-64Bit/RoverX/Libraries/CMSIS/Include\core_cm0.h **** /* SysTick Calibration Register Definitions */
 478:C:/Workspaces/DAVE-4.4.2-64Bit/RoverX/Libraries/CMSIS/Include\core_cm0.h **** #define SysTick_CALIB_NOREF_Pos            31U                                            /*!< SysT
 479:C:/Workspaces/DAVE-4.4.2-64Bit/RoverX/Libraries/CMSIS/Include\core_cm0.h **** #define SysTick_CALIB_NOREF_Msk            (1UL << SysTick_CALIB_NOREF_Pos)               /*!< SysT
 480:C:/Workspaces/DAVE-4.4.2-64Bit/RoverX/Libraries/CMSIS/Include\core_cm0.h **** 
 481:C:/Workspaces/DAVE-4.4.2-64Bit/RoverX/Libraries/CMSIS/Include\core_cm0.h **** #define SysTick_CALIB_SKEW_Pos             30U                                            /*!< SysT
 482:C:/Workspaces/DAVE-4.4.2-64Bit/RoverX/Libraries/CMSIS/Include\core_cm0.h **** #define SysTick_CALIB_SKEW_Msk             (1UL << SysTick_CALIB_SKEW_Pos)                /*!< SysT
 483:C:/Workspaces/DAVE-4.4.2-64Bit/RoverX/Libraries/CMSIS/Include\core_cm0.h **** 
 484:C:/Workspaces/DAVE-4.4.2-64Bit/RoverX/Libraries/CMSIS/Include\core_cm0.h **** #define SysTick_CALIB_TENMS_Pos             0U                                            /*!< SysT
 485:C:/Workspaces/DAVE-4.4.2-64Bit/RoverX/Libraries/CMSIS/Include\core_cm0.h **** #define SysTick_CALIB_TENMS_Msk            (0xFFFFFFUL /*<< SysTick_CALIB_TENMS_Pos*/)    /*!< SysT
 486:C:/Workspaces/DAVE-4.4.2-64Bit/RoverX/Libraries/CMSIS/Include\core_cm0.h **** 
 487:C:/Workspaces/DAVE-4.4.2-64Bit/RoverX/Libraries/CMSIS/Include\core_cm0.h **** /*@} end of group CMSIS_SysTick */
 488:C:/Workspaces/DAVE-4.4.2-64Bit/RoverX/Libraries/CMSIS/Include\core_cm0.h **** 
 489:C:/Workspaces/DAVE-4.4.2-64Bit/RoverX/Libraries/CMSIS/Include\core_cm0.h **** 
 490:C:/Workspaces/DAVE-4.4.2-64Bit/RoverX/Libraries/CMSIS/Include\core_cm0.h **** /**
 491:C:/Workspaces/DAVE-4.4.2-64Bit/RoverX/Libraries/CMSIS/Include\core_cm0.h ****   \ingroup  CMSIS_core_register
 492:C:/Workspaces/DAVE-4.4.2-64Bit/RoverX/Libraries/CMSIS/Include\core_cm0.h ****   \defgroup CMSIS_CoreDebug       Core Debug Registers (CoreDebug)
 493:C:/Workspaces/DAVE-4.4.2-64Bit/RoverX/Libraries/CMSIS/Include\core_cm0.h ****   \brief    Cortex-M0 Core Debug Registers (DCB registers, SHCSR, and DFSR) are only accessible ove
 494:C:/Workspaces/DAVE-4.4.2-64Bit/RoverX/Libraries/CMSIS/Include\core_cm0.h ****             Therefore they are not covered by the Cortex-M0 header file.
 495:C:/Workspaces/DAVE-4.4.2-64Bit/RoverX/Libraries/CMSIS/Include\core_cm0.h ****   @{
 496:C:/Workspaces/DAVE-4.4.2-64Bit/RoverX/Libraries/CMSIS/Include\core_cm0.h ****  */
 497:C:/Workspaces/DAVE-4.4.2-64Bit/RoverX/Libraries/CMSIS/Include\core_cm0.h **** /*@} end of group CMSIS_CoreDebug */
 498:C:/Workspaces/DAVE-4.4.2-64Bit/RoverX/Libraries/CMSIS/Include\core_cm0.h **** 
 499:C:/Workspaces/DAVE-4.4.2-64Bit/RoverX/Libraries/CMSIS/Include\core_cm0.h **** 
 500:C:/Workspaces/DAVE-4.4.2-64Bit/RoverX/Libraries/CMSIS/Include\core_cm0.h **** /**
 501:C:/Workspaces/DAVE-4.4.2-64Bit/RoverX/Libraries/CMSIS/Include\core_cm0.h ****   \ingroup    CMSIS_core_register
 502:C:/Workspaces/DAVE-4.4.2-64Bit/RoverX/Libraries/CMSIS/Include\core_cm0.h ****   \defgroup   CMSIS_core_bitfield     Core register bit field macros
 503:C:/Workspaces/DAVE-4.4.2-64Bit/RoverX/Libraries/CMSIS/Include\core_cm0.h ****   \brief      Macros for use with bit field definitions (xxx_Pos, xxx_Msk).
 504:C:/Workspaces/DAVE-4.4.2-64Bit/RoverX/Libraries/CMSIS/Include\core_cm0.h ****   @{
 505:C:/Workspaces/DAVE-4.4.2-64Bit/RoverX/Libraries/CMSIS/Include\core_cm0.h ****  */
 506:C:/Workspaces/DAVE-4.4.2-64Bit/RoverX/Libraries/CMSIS/Include\core_cm0.h **** 
 507:C:/Workspaces/DAVE-4.4.2-64Bit/RoverX/Libraries/CMSIS/Include\core_cm0.h **** /**
 508:C:/Workspaces/DAVE-4.4.2-64Bit/RoverX/Libraries/CMSIS/Include\core_cm0.h ****   \brief   Mask and shift a bit field value for use in a register bit range.
 509:C:/Workspaces/DAVE-4.4.2-64Bit/RoverX/Libraries/CMSIS/Include\core_cm0.h ****   \param[in] field  Name of the register bit field.
 510:C:/Workspaces/DAVE-4.4.2-64Bit/RoverX/Libraries/CMSIS/Include\core_cm0.h ****   \param[in] value  Value of the bit field. This parameter is interpreted as an uint32_t type.
 511:C:/Workspaces/DAVE-4.4.2-64Bit/RoverX/Libraries/CMSIS/Include\core_cm0.h ****   \return           Masked and shifted value.
 512:C:/Workspaces/DAVE-4.4.2-64Bit/RoverX/Libraries/CMSIS/Include\core_cm0.h **** */
 513:C:/Workspaces/DAVE-4.4.2-64Bit/RoverX/Libraries/CMSIS/Include\core_cm0.h **** #define _VAL2FLD(field, value)    (((uint32_t)(value) << field ## _Pos) & field ## _Msk)
 514:C:/Workspaces/DAVE-4.4.2-64Bit/RoverX/Libraries/CMSIS/Include\core_cm0.h **** 
 515:C:/Workspaces/DAVE-4.4.2-64Bit/RoverX/Libraries/CMSIS/Include\core_cm0.h **** /**
 516:C:/Workspaces/DAVE-4.4.2-64Bit/RoverX/Libraries/CMSIS/Include\core_cm0.h ****   \brief     Mask and shift a register value to extract a bit filed value.
 517:C:/Workspaces/DAVE-4.4.2-64Bit/RoverX/Libraries/CMSIS/Include\core_cm0.h ****   \param[in] field  Name of the register bit field.
 518:C:/Workspaces/DAVE-4.4.2-64Bit/RoverX/Libraries/CMSIS/Include\core_cm0.h ****   \param[in] value  Value of register. This parameter is interpreted as an uint32_t type.
 519:C:/Workspaces/DAVE-4.4.2-64Bit/RoverX/Libraries/CMSIS/Include\core_cm0.h ****   \return           Masked and shifted bit field value.
 520:C:/Workspaces/DAVE-4.4.2-64Bit/RoverX/Libraries/CMSIS/Include\core_cm0.h **** */
 521:C:/Workspaces/DAVE-4.4.2-64Bit/RoverX/Libraries/CMSIS/Include\core_cm0.h **** #define _FLD2VAL(field, value)    (((uint32_t)(value) & field ## _Msk) >> field ## _Pos)
 522:C:/Workspaces/DAVE-4.4.2-64Bit/RoverX/Libraries/CMSIS/Include\core_cm0.h **** 
 523:C:/Workspaces/DAVE-4.4.2-64Bit/RoverX/Libraries/CMSIS/Include\core_cm0.h **** /*@} end of group CMSIS_core_bitfield */
 524:C:/Workspaces/DAVE-4.4.2-64Bit/RoverX/Libraries/CMSIS/Include\core_cm0.h **** 
 525:C:/Workspaces/DAVE-4.4.2-64Bit/RoverX/Libraries/CMSIS/Include\core_cm0.h **** 
 526:C:/Workspaces/DAVE-4.4.2-64Bit/RoverX/Libraries/CMSIS/Include\core_cm0.h **** /**
 527:C:/Workspaces/DAVE-4.4.2-64Bit/RoverX/Libraries/CMSIS/Include\core_cm0.h ****   \ingroup    CMSIS_core_register
 528:C:/Workspaces/DAVE-4.4.2-64Bit/RoverX/Libraries/CMSIS/Include\core_cm0.h ****   \defgroup   CMSIS_core_base     Core Definitions
 529:C:/Workspaces/DAVE-4.4.2-64Bit/RoverX/Libraries/CMSIS/Include\core_cm0.h ****   \brief      Definitions for base addresses, unions, and structures.
 530:C:/Workspaces/DAVE-4.4.2-64Bit/RoverX/Libraries/CMSIS/Include\core_cm0.h ****   @{
 531:C:/Workspaces/DAVE-4.4.2-64Bit/RoverX/Libraries/CMSIS/Include\core_cm0.h ****  */
 532:C:/Workspaces/DAVE-4.4.2-64Bit/RoverX/Libraries/CMSIS/Include\core_cm0.h **** 
 533:C:/Workspaces/DAVE-4.4.2-64Bit/RoverX/Libraries/CMSIS/Include\core_cm0.h **** /* Memory mapping of Core Hardware */
 534:C:/Workspaces/DAVE-4.4.2-64Bit/RoverX/Libraries/CMSIS/Include\core_cm0.h **** #define SCS_BASE            (0xE000E000UL)                            /*!< System Control Space Bas
 535:C:/Workspaces/DAVE-4.4.2-64Bit/RoverX/Libraries/CMSIS/Include\core_cm0.h **** #define SysTick_BASE        (SCS_BASE +  0x0010UL)                    /*!< SysTick Base Address */
 536:C:/Workspaces/DAVE-4.4.2-64Bit/RoverX/Libraries/CMSIS/Include\core_cm0.h **** #define NVIC_BASE           (SCS_BASE +  0x0100UL)                    /*!< NVIC Base Address */
 537:C:/Workspaces/DAVE-4.4.2-64Bit/RoverX/Libraries/CMSIS/Include\core_cm0.h **** #define SCB_BASE            (SCS_BASE +  0x0D00UL)                    /*!< System Control Block Bas
 538:C:/Workspaces/DAVE-4.4.2-64Bit/RoverX/Libraries/CMSIS/Include\core_cm0.h **** 
 539:C:/Workspaces/DAVE-4.4.2-64Bit/RoverX/Libraries/CMSIS/Include\core_cm0.h **** #define SCB                 ((SCB_Type       *)     SCB_BASE      )   /*!< SCB configuration struct
 540:C:/Workspaces/DAVE-4.4.2-64Bit/RoverX/Libraries/CMSIS/Include\core_cm0.h **** #define SysTick             ((SysTick_Type   *)     SysTick_BASE  )   /*!< SysTick configuration st
 541:C:/Workspaces/DAVE-4.4.2-64Bit/RoverX/Libraries/CMSIS/Include\core_cm0.h **** #define NVIC                ((NVIC_Type      *)     NVIC_BASE     )   /*!< NVIC configuration struc
 542:C:/Workspaces/DAVE-4.4.2-64Bit/RoverX/Libraries/CMSIS/Include\core_cm0.h **** 
 543:C:/Workspaces/DAVE-4.4.2-64Bit/RoverX/Libraries/CMSIS/Include\core_cm0.h **** 
 544:C:/Workspaces/DAVE-4.4.2-64Bit/RoverX/Libraries/CMSIS/Include\core_cm0.h **** /*@} */
 545:C:/Workspaces/DAVE-4.4.2-64Bit/RoverX/Libraries/CMSIS/Include\core_cm0.h **** 
 546:C:/Workspaces/DAVE-4.4.2-64Bit/RoverX/Libraries/CMSIS/Include\core_cm0.h **** 
 547:C:/Workspaces/DAVE-4.4.2-64Bit/RoverX/Libraries/CMSIS/Include\core_cm0.h **** 
 548:C:/Workspaces/DAVE-4.4.2-64Bit/RoverX/Libraries/CMSIS/Include\core_cm0.h **** /*******************************************************************************
 549:C:/Workspaces/DAVE-4.4.2-64Bit/RoverX/Libraries/CMSIS/Include\core_cm0.h ****  *                Hardware Abstraction Layer
 550:C:/Workspaces/DAVE-4.4.2-64Bit/RoverX/Libraries/CMSIS/Include\core_cm0.h ****   Core Function Interface contains:
 551:C:/Workspaces/DAVE-4.4.2-64Bit/RoverX/Libraries/CMSIS/Include\core_cm0.h ****   - Core NVIC Functions
 552:C:/Workspaces/DAVE-4.4.2-64Bit/RoverX/Libraries/CMSIS/Include\core_cm0.h ****   - Core SysTick Functions
 553:C:/Workspaces/DAVE-4.4.2-64Bit/RoverX/Libraries/CMSIS/Include\core_cm0.h ****   - Core Register Access Functions
 554:C:/Workspaces/DAVE-4.4.2-64Bit/RoverX/Libraries/CMSIS/Include\core_cm0.h ****  ******************************************************************************/
 555:C:/Workspaces/DAVE-4.4.2-64Bit/RoverX/Libraries/CMSIS/Include\core_cm0.h **** /**
 556:C:/Workspaces/DAVE-4.4.2-64Bit/RoverX/Libraries/CMSIS/Include\core_cm0.h ****   \defgroup CMSIS_Core_FunctionInterface Functions and Instructions Reference
 557:C:/Workspaces/DAVE-4.4.2-64Bit/RoverX/Libraries/CMSIS/Include\core_cm0.h **** */
 558:C:/Workspaces/DAVE-4.4.2-64Bit/RoverX/Libraries/CMSIS/Include\core_cm0.h **** 
 559:C:/Workspaces/DAVE-4.4.2-64Bit/RoverX/Libraries/CMSIS/Include\core_cm0.h **** 
 560:C:/Workspaces/DAVE-4.4.2-64Bit/RoverX/Libraries/CMSIS/Include\core_cm0.h **** 
 561:C:/Workspaces/DAVE-4.4.2-64Bit/RoverX/Libraries/CMSIS/Include\core_cm0.h **** /* ##########################   NVIC functions  #################################### */
 562:C:/Workspaces/DAVE-4.4.2-64Bit/RoverX/Libraries/CMSIS/Include\core_cm0.h **** /**
 563:C:/Workspaces/DAVE-4.4.2-64Bit/RoverX/Libraries/CMSIS/Include\core_cm0.h ****   \ingroup  CMSIS_Core_FunctionInterface
 564:C:/Workspaces/DAVE-4.4.2-64Bit/RoverX/Libraries/CMSIS/Include\core_cm0.h ****   \defgroup CMSIS_Core_NVICFunctions NVIC Functions
 565:C:/Workspaces/DAVE-4.4.2-64Bit/RoverX/Libraries/CMSIS/Include\core_cm0.h ****   \brief    Functions that manage interrupts and exceptions via the NVIC.
 566:C:/Workspaces/DAVE-4.4.2-64Bit/RoverX/Libraries/CMSIS/Include\core_cm0.h ****   @{
 567:C:/Workspaces/DAVE-4.4.2-64Bit/RoverX/Libraries/CMSIS/Include\core_cm0.h ****  */
 568:C:/Workspaces/DAVE-4.4.2-64Bit/RoverX/Libraries/CMSIS/Include\core_cm0.h **** 
 569:C:/Workspaces/DAVE-4.4.2-64Bit/RoverX/Libraries/CMSIS/Include\core_cm0.h **** #ifdef CMSIS_NVIC_VIRTUAL
 570:C:/Workspaces/DAVE-4.4.2-64Bit/RoverX/Libraries/CMSIS/Include\core_cm0.h ****   #ifndef CMSIS_NVIC_VIRTUAL_HEADER_FILE
 571:C:/Workspaces/DAVE-4.4.2-64Bit/RoverX/Libraries/CMSIS/Include\core_cm0.h ****     #define CMSIS_NVIC_VIRTUAL_HEADER_FILE "cmsis_nvic_virtual.h"
 572:C:/Workspaces/DAVE-4.4.2-64Bit/RoverX/Libraries/CMSIS/Include\core_cm0.h ****   #endif
 573:C:/Workspaces/DAVE-4.4.2-64Bit/RoverX/Libraries/CMSIS/Include\core_cm0.h ****   #include CMSIS_NVIC_VIRTUAL_HEADER_FILE
 574:C:/Workspaces/DAVE-4.4.2-64Bit/RoverX/Libraries/CMSIS/Include\core_cm0.h **** #else
 575:C:/Workspaces/DAVE-4.4.2-64Bit/RoverX/Libraries/CMSIS/Include\core_cm0.h ****   #define NVIC_SetPriorityGrouping    __NVIC_SetPriorityGrouping
 576:C:/Workspaces/DAVE-4.4.2-64Bit/RoverX/Libraries/CMSIS/Include\core_cm0.h ****   #define NVIC_GetPriorityGrouping    __NVIC_GetPriorityGrouping
 577:C:/Workspaces/DAVE-4.4.2-64Bit/RoverX/Libraries/CMSIS/Include\core_cm0.h ****   #define NVIC_EnableIRQ              __NVIC_EnableIRQ
 578:C:/Workspaces/DAVE-4.4.2-64Bit/RoverX/Libraries/CMSIS/Include\core_cm0.h ****   #define NVIC_GetEnableIRQ           __NVIC_GetEnableIRQ
 579:C:/Workspaces/DAVE-4.4.2-64Bit/RoverX/Libraries/CMSIS/Include\core_cm0.h ****   #define NVIC_DisableIRQ             __NVIC_DisableIRQ
 580:C:/Workspaces/DAVE-4.4.2-64Bit/RoverX/Libraries/CMSIS/Include\core_cm0.h ****   #define NVIC_GetPendingIRQ          __NVIC_GetPendingIRQ
 581:C:/Workspaces/DAVE-4.4.2-64Bit/RoverX/Libraries/CMSIS/Include\core_cm0.h ****   #define NVIC_SetPendingIRQ          __NVIC_SetPendingIRQ
 582:C:/Workspaces/DAVE-4.4.2-64Bit/RoverX/Libraries/CMSIS/Include\core_cm0.h ****   #define NVIC_ClearPendingIRQ        __NVIC_ClearPendingIRQ
 583:C:/Workspaces/DAVE-4.4.2-64Bit/RoverX/Libraries/CMSIS/Include\core_cm0.h **** /*#define NVIC_GetActive              __NVIC_GetActive             not available for Cortex-M0 */
 584:C:/Workspaces/DAVE-4.4.2-64Bit/RoverX/Libraries/CMSIS/Include\core_cm0.h ****   #define NVIC_SetPriority            __NVIC_SetPriority
 585:C:/Workspaces/DAVE-4.4.2-64Bit/RoverX/Libraries/CMSIS/Include\core_cm0.h ****   #define NVIC_GetPriority            __NVIC_GetPriority
 586:C:/Workspaces/DAVE-4.4.2-64Bit/RoverX/Libraries/CMSIS/Include\core_cm0.h ****   #define NVIC_SystemReset            __NVIC_SystemReset
 587:C:/Workspaces/DAVE-4.4.2-64Bit/RoverX/Libraries/CMSIS/Include\core_cm0.h **** #endif /* CMSIS_NVIC_VIRTUAL */
 588:C:/Workspaces/DAVE-4.4.2-64Bit/RoverX/Libraries/CMSIS/Include\core_cm0.h **** 
 589:C:/Workspaces/DAVE-4.4.2-64Bit/RoverX/Libraries/CMSIS/Include\core_cm0.h **** #ifdef CMSIS_VECTAB_VIRTUAL
 590:C:/Workspaces/DAVE-4.4.2-64Bit/RoverX/Libraries/CMSIS/Include\core_cm0.h ****   #ifndef CMSIS_VECTAB_VIRTUAL_HEADER_FILE
 591:C:/Workspaces/DAVE-4.4.2-64Bit/RoverX/Libraries/CMSIS/Include\core_cm0.h ****     #define CMSIS_VECTAB_VIRTUAL_HEADER_FILE "cmsis_vectab_virtual.h"
 592:C:/Workspaces/DAVE-4.4.2-64Bit/RoverX/Libraries/CMSIS/Include\core_cm0.h ****   #endif
 593:C:/Workspaces/DAVE-4.4.2-64Bit/RoverX/Libraries/CMSIS/Include\core_cm0.h ****   #include CMSIS_VECTAB_VIRTUAL_HEADER_FILE
 594:C:/Workspaces/DAVE-4.4.2-64Bit/RoverX/Libraries/CMSIS/Include\core_cm0.h **** #else
 595:C:/Workspaces/DAVE-4.4.2-64Bit/RoverX/Libraries/CMSIS/Include\core_cm0.h ****   #define NVIC_SetVector              __NVIC_SetVector
 596:C:/Workspaces/DAVE-4.4.2-64Bit/RoverX/Libraries/CMSIS/Include\core_cm0.h ****   #define NVIC_GetVector              __NVIC_GetVector
 597:C:/Workspaces/DAVE-4.4.2-64Bit/RoverX/Libraries/CMSIS/Include\core_cm0.h **** #endif  /* (CMSIS_VECTAB_VIRTUAL) */
 598:C:/Workspaces/DAVE-4.4.2-64Bit/RoverX/Libraries/CMSIS/Include\core_cm0.h **** 
 599:C:/Workspaces/DAVE-4.4.2-64Bit/RoverX/Libraries/CMSIS/Include\core_cm0.h **** #define NVIC_USER_IRQ_OFFSET          16
 600:C:/Workspaces/DAVE-4.4.2-64Bit/RoverX/Libraries/CMSIS/Include\core_cm0.h **** 
 601:C:/Workspaces/DAVE-4.4.2-64Bit/RoverX/Libraries/CMSIS/Include\core_cm0.h **** 
 602:C:/Workspaces/DAVE-4.4.2-64Bit/RoverX/Libraries/CMSIS/Include\core_cm0.h **** /* The following EXC_RETURN values are saved the LR on exception entry */
 603:C:/Workspaces/DAVE-4.4.2-64Bit/RoverX/Libraries/CMSIS/Include\core_cm0.h **** #define EXC_RETURN_HANDLER         (0xFFFFFFF1UL)     /* return to Handler mode, uses MSP after ret
 604:C:/Workspaces/DAVE-4.4.2-64Bit/RoverX/Libraries/CMSIS/Include\core_cm0.h **** #define EXC_RETURN_THREAD_MSP      (0xFFFFFFF9UL)     /* return to Thread mode, uses MSP after retu
 605:C:/Workspaces/DAVE-4.4.2-64Bit/RoverX/Libraries/CMSIS/Include\core_cm0.h **** #define EXC_RETURN_THREAD_PSP      (0xFFFFFFFDUL)     /* return to Thread mode, uses PSP after retu
 606:C:/Workspaces/DAVE-4.4.2-64Bit/RoverX/Libraries/CMSIS/Include\core_cm0.h **** 
 607:C:/Workspaces/DAVE-4.4.2-64Bit/RoverX/Libraries/CMSIS/Include\core_cm0.h **** 
 608:C:/Workspaces/DAVE-4.4.2-64Bit/RoverX/Libraries/CMSIS/Include\core_cm0.h **** /* Interrupt Priorities are WORD accessible only under Armv6-M                  */
 609:C:/Workspaces/DAVE-4.4.2-64Bit/RoverX/Libraries/CMSIS/Include\core_cm0.h **** /* The following MACROS handle generation of the register offset and byte masks */
 610:C:/Workspaces/DAVE-4.4.2-64Bit/RoverX/Libraries/CMSIS/Include\core_cm0.h **** #define _BIT_SHIFT(IRQn)         (  ((((uint32_t)(int32_t)(IRQn))         )      &  0x03UL) * 8UL)
 611:C:/Workspaces/DAVE-4.4.2-64Bit/RoverX/Libraries/CMSIS/Include\core_cm0.h **** #define _SHP_IDX(IRQn)           ( (((((uint32_t)(int32_t)(IRQn)) & 0x0FUL)-8UL) >>    2UL)      )
 612:C:/Workspaces/DAVE-4.4.2-64Bit/RoverX/Libraries/CMSIS/Include\core_cm0.h **** #define _IP_IDX(IRQn)            (   (((uint32_t)(int32_t)(IRQn))                >>    2UL)      )
 613:C:/Workspaces/DAVE-4.4.2-64Bit/RoverX/Libraries/CMSIS/Include\core_cm0.h **** 
 614:C:/Workspaces/DAVE-4.4.2-64Bit/RoverX/Libraries/CMSIS/Include\core_cm0.h **** #define __NVIC_SetPriorityGrouping(X) (void)(X)
 615:C:/Workspaces/DAVE-4.4.2-64Bit/RoverX/Libraries/CMSIS/Include\core_cm0.h **** #define __NVIC_GetPriorityGrouping()  (0U)
 616:C:/Workspaces/DAVE-4.4.2-64Bit/RoverX/Libraries/CMSIS/Include\core_cm0.h **** 
 617:C:/Workspaces/DAVE-4.4.2-64Bit/RoverX/Libraries/CMSIS/Include\core_cm0.h **** /**
 618:C:/Workspaces/DAVE-4.4.2-64Bit/RoverX/Libraries/CMSIS/Include\core_cm0.h ****   \brief   Enable Interrupt
 619:C:/Workspaces/DAVE-4.4.2-64Bit/RoverX/Libraries/CMSIS/Include\core_cm0.h ****   \details Enables a device specific interrupt in the NVIC interrupt controller.
 620:C:/Workspaces/DAVE-4.4.2-64Bit/RoverX/Libraries/CMSIS/Include\core_cm0.h ****   \param [in]      IRQn  Device specific interrupt number.
 621:C:/Workspaces/DAVE-4.4.2-64Bit/RoverX/Libraries/CMSIS/Include\core_cm0.h ****   \note    IRQn must not be negative.
 622:C:/Workspaces/DAVE-4.4.2-64Bit/RoverX/Libraries/CMSIS/Include\core_cm0.h ****  */
 623:C:/Workspaces/DAVE-4.4.2-64Bit/RoverX/Libraries/CMSIS/Include\core_cm0.h **** __STATIC_INLINE void __NVIC_EnableIRQ(IRQn_Type IRQn)
 624:C:/Workspaces/DAVE-4.4.2-64Bit/RoverX/Libraries/CMSIS/Include\core_cm0.h **** {
  25              	 .loc 1 624 0
  26              	 .cfi_startproc
  27 0000 80B5     	 push {r7,lr}
  28              	.LCFI0:
  29              	 .cfi_def_cfa_offset 8
  30              	 .cfi_offset 7,-8
  31              	 .cfi_offset 14,-4
  32 0002 82B0     	 sub sp,sp,#8
  33              	.LCFI1:
  34              	 .cfi_def_cfa_offset 16
  35 0004 00AF     	 add r7,sp,#0
  36              	.LCFI2:
  37              	 .cfi_def_cfa_register 7
  38 0006 021C     	 mov r2,r0
  39 0008 FB1D     	 add r3,r7,#7
  40 000a 1A70     	 strb r2,[r3]
 625:C:/Workspaces/DAVE-4.4.2-64Bit/RoverX/Libraries/CMSIS/Include\core_cm0.h ****   if ((int32_t)(IRQn) >= 0)
  41              	 .loc 1 625 0
  42 000c FB1D     	 add r3,r7,#7
  43 000e 1B78     	 ldrb r3,[r3]
  44 0010 7F2B     	 cmp r3,#127
  45 0012 09D8     	 bhi .L1
 626:C:/Workspaces/DAVE-4.4.2-64Bit/RoverX/Libraries/CMSIS/Include\core_cm0.h ****   {
 627:C:/Workspaces/DAVE-4.4.2-64Bit/RoverX/Libraries/CMSIS/Include\core_cm0.h ****     __COMPILER_BARRIER();
  46              	 .loc 1 627 0
 628:C:/Workspaces/DAVE-4.4.2-64Bit/RoverX/Libraries/CMSIS/Include\core_cm0.h ****     NVIC->ISER[0U] = (uint32_t)(1UL << (((uint32_t)IRQn) & 0x1FUL));
  47              	 .loc 1 628 0
  48 0014 064B     	 ldr r3,.L3
  49 0016 FA1D     	 add r2,r7,#7
  50 0018 1278     	 ldrb r2,[r2]
  51 001a 111C     	 mov r1,r2
  52 001c 1F22     	 mov r2,#31
  53 001e 0A40     	 and r2,r1
  54 0020 0121     	 mov r1,#1
  55 0022 9140     	 lsl r1,r1,r2
  56 0024 0A1C     	 mov r2,r1
  57 0026 1A60     	 str r2,[r3]
 629:C:/Workspaces/DAVE-4.4.2-64Bit/RoverX/Libraries/CMSIS/Include\core_cm0.h ****     __COMPILER_BARRIER();
  58              	 .loc 1 629 0
  59              	.L1:
 630:C:/Workspaces/DAVE-4.4.2-64Bit/RoverX/Libraries/CMSIS/Include\core_cm0.h ****   }
 631:C:/Workspaces/DAVE-4.4.2-64Bit/RoverX/Libraries/CMSIS/Include\core_cm0.h **** }
  60              	 .loc 1 631 0
  61 0028 BD46     	 mov sp,r7
  62 002a 02B0     	 add sp,sp,#8
  63              	 
  64 002c 80BD     	 pop {r7,pc}
  65              	.L4:
  66 002e C046     	 .align 2
  67              	.L3:
  68 0030 00E100E0 	 .word -536813312
  69              	 .cfi_endproc
  70              	.LFE27:
  72              	 .section .text.__NVIC_SetPriority,"ax",%progbits
  73              	 .align 2
  74              	 .code 16
  75              	 .thumb_func
  77              	__NVIC_SetPriority:
  78              	.LFB33:
 632:C:/Workspaces/DAVE-4.4.2-64Bit/RoverX/Libraries/CMSIS/Include\core_cm0.h **** 
 633:C:/Workspaces/DAVE-4.4.2-64Bit/RoverX/Libraries/CMSIS/Include\core_cm0.h **** 
 634:C:/Workspaces/DAVE-4.4.2-64Bit/RoverX/Libraries/CMSIS/Include\core_cm0.h **** /**
 635:C:/Workspaces/DAVE-4.4.2-64Bit/RoverX/Libraries/CMSIS/Include\core_cm0.h ****   \brief   Get Interrupt Enable status
 636:C:/Workspaces/DAVE-4.4.2-64Bit/RoverX/Libraries/CMSIS/Include\core_cm0.h ****   \details Returns a device specific interrupt enable status from the NVIC interrupt controller.
 637:C:/Workspaces/DAVE-4.4.2-64Bit/RoverX/Libraries/CMSIS/Include\core_cm0.h ****   \param [in]      IRQn  Device specific interrupt number.
 638:C:/Workspaces/DAVE-4.4.2-64Bit/RoverX/Libraries/CMSIS/Include\core_cm0.h ****   \return             0  Interrupt is not enabled.
 639:C:/Workspaces/DAVE-4.4.2-64Bit/RoverX/Libraries/CMSIS/Include\core_cm0.h ****   \return             1  Interrupt is enabled.
 640:C:/Workspaces/DAVE-4.4.2-64Bit/RoverX/Libraries/CMSIS/Include\core_cm0.h ****   \note    IRQn must not be negative.
 641:C:/Workspaces/DAVE-4.4.2-64Bit/RoverX/Libraries/CMSIS/Include\core_cm0.h ****  */
 642:C:/Workspaces/DAVE-4.4.2-64Bit/RoverX/Libraries/CMSIS/Include\core_cm0.h **** __STATIC_INLINE uint32_t __NVIC_GetEnableIRQ(IRQn_Type IRQn)
 643:C:/Workspaces/DAVE-4.4.2-64Bit/RoverX/Libraries/CMSIS/Include\core_cm0.h **** {
 644:C:/Workspaces/DAVE-4.4.2-64Bit/RoverX/Libraries/CMSIS/Include\core_cm0.h ****   if ((int32_t)(IRQn) >= 0)
 645:C:/Workspaces/DAVE-4.4.2-64Bit/RoverX/Libraries/CMSIS/Include\core_cm0.h ****   {
 646:C:/Workspaces/DAVE-4.4.2-64Bit/RoverX/Libraries/CMSIS/Include\core_cm0.h ****     return((uint32_t)(((NVIC->ISER[0U] & (1UL << (((uint32_t)IRQn) & 0x1FUL))) != 0UL) ? 1UL : 0UL)
 647:C:/Workspaces/DAVE-4.4.2-64Bit/RoverX/Libraries/CMSIS/Include\core_cm0.h ****   }
 648:C:/Workspaces/DAVE-4.4.2-64Bit/RoverX/Libraries/CMSIS/Include\core_cm0.h ****   else
 649:C:/Workspaces/DAVE-4.4.2-64Bit/RoverX/Libraries/CMSIS/Include\core_cm0.h ****   {
 650:C:/Workspaces/DAVE-4.4.2-64Bit/RoverX/Libraries/CMSIS/Include\core_cm0.h ****     return(0U);
 651:C:/Workspaces/DAVE-4.4.2-64Bit/RoverX/Libraries/CMSIS/Include\core_cm0.h ****   }
 652:C:/Workspaces/DAVE-4.4.2-64Bit/RoverX/Libraries/CMSIS/Include\core_cm0.h **** }
 653:C:/Workspaces/DAVE-4.4.2-64Bit/RoverX/Libraries/CMSIS/Include\core_cm0.h **** 
 654:C:/Workspaces/DAVE-4.4.2-64Bit/RoverX/Libraries/CMSIS/Include\core_cm0.h **** 
 655:C:/Workspaces/DAVE-4.4.2-64Bit/RoverX/Libraries/CMSIS/Include\core_cm0.h **** /**
 656:C:/Workspaces/DAVE-4.4.2-64Bit/RoverX/Libraries/CMSIS/Include\core_cm0.h ****   \brief   Disable Interrupt
 657:C:/Workspaces/DAVE-4.4.2-64Bit/RoverX/Libraries/CMSIS/Include\core_cm0.h ****   \details Disables a device specific interrupt in the NVIC interrupt controller.
 658:C:/Workspaces/DAVE-4.4.2-64Bit/RoverX/Libraries/CMSIS/Include\core_cm0.h ****   \param [in]      IRQn  Device specific interrupt number.
 659:C:/Workspaces/DAVE-4.4.2-64Bit/RoverX/Libraries/CMSIS/Include\core_cm0.h ****   \note    IRQn must not be negative.
 660:C:/Workspaces/DAVE-4.4.2-64Bit/RoverX/Libraries/CMSIS/Include\core_cm0.h ****  */
 661:C:/Workspaces/DAVE-4.4.2-64Bit/RoverX/Libraries/CMSIS/Include\core_cm0.h **** __STATIC_INLINE void __NVIC_DisableIRQ(IRQn_Type IRQn)
 662:C:/Workspaces/DAVE-4.4.2-64Bit/RoverX/Libraries/CMSIS/Include\core_cm0.h **** {
 663:C:/Workspaces/DAVE-4.4.2-64Bit/RoverX/Libraries/CMSIS/Include\core_cm0.h ****   if ((int32_t)(IRQn) >= 0)
 664:C:/Workspaces/DAVE-4.4.2-64Bit/RoverX/Libraries/CMSIS/Include\core_cm0.h ****   {
 665:C:/Workspaces/DAVE-4.4.2-64Bit/RoverX/Libraries/CMSIS/Include\core_cm0.h ****     NVIC->ICER[0U] = (uint32_t)(1UL << (((uint32_t)IRQn) & 0x1FUL));
 666:C:/Workspaces/DAVE-4.4.2-64Bit/RoverX/Libraries/CMSIS/Include\core_cm0.h ****     __DSB();
 667:C:/Workspaces/DAVE-4.4.2-64Bit/RoverX/Libraries/CMSIS/Include\core_cm0.h ****     __ISB();
 668:C:/Workspaces/DAVE-4.4.2-64Bit/RoverX/Libraries/CMSIS/Include\core_cm0.h ****   }
 669:C:/Workspaces/DAVE-4.4.2-64Bit/RoverX/Libraries/CMSIS/Include\core_cm0.h **** }
 670:C:/Workspaces/DAVE-4.4.2-64Bit/RoverX/Libraries/CMSIS/Include\core_cm0.h **** 
 671:C:/Workspaces/DAVE-4.4.2-64Bit/RoverX/Libraries/CMSIS/Include\core_cm0.h **** 
 672:C:/Workspaces/DAVE-4.4.2-64Bit/RoverX/Libraries/CMSIS/Include\core_cm0.h **** /**
 673:C:/Workspaces/DAVE-4.4.2-64Bit/RoverX/Libraries/CMSIS/Include\core_cm0.h ****   \brief   Get Pending Interrupt
 674:C:/Workspaces/DAVE-4.4.2-64Bit/RoverX/Libraries/CMSIS/Include\core_cm0.h ****   \details Reads the NVIC pending register and returns the pending bit for the specified device spe
 675:C:/Workspaces/DAVE-4.4.2-64Bit/RoverX/Libraries/CMSIS/Include\core_cm0.h ****   \param [in]      IRQn  Device specific interrupt number.
 676:C:/Workspaces/DAVE-4.4.2-64Bit/RoverX/Libraries/CMSIS/Include\core_cm0.h ****   \return             0  Interrupt status is not pending.
 677:C:/Workspaces/DAVE-4.4.2-64Bit/RoverX/Libraries/CMSIS/Include\core_cm0.h ****   \return             1  Interrupt status is pending.
 678:C:/Workspaces/DAVE-4.4.2-64Bit/RoverX/Libraries/CMSIS/Include\core_cm0.h ****   \note    IRQn must not be negative.
 679:C:/Workspaces/DAVE-4.4.2-64Bit/RoverX/Libraries/CMSIS/Include\core_cm0.h ****  */
 680:C:/Workspaces/DAVE-4.4.2-64Bit/RoverX/Libraries/CMSIS/Include\core_cm0.h **** __STATIC_INLINE uint32_t __NVIC_GetPendingIRQ(IRQn_Type IRQn)
 681:C:/Workspaces/DAVE-4.4.2-64Bit/RoverX/Libraries/CMSIS/Include\core_cm0.h **** {
 682:C:/Workspaces/DAVE-4.4.2-64Bit/RoverX/Libraries/CMSIS/Include\core_cm0.h ****   if ((int32_t)(IRQn) >= 0)
 683:C:/Workspaces/DAVE-4.4.2-64Bit/RoverX/Libraries/CMSIS/Include\core_cm0.h ****   {
 684:C:/Workspaces/DAVE-4.4.2-64Bit/RoverX/Libraries/CMSIS/Include\core_cm0.h ****     return((uint32_t)(((NVIC->ISPR[0U] & (1UL << (((uint32_t)IRQn) & 0x1FUL))) != 0UL) ? 1UL : 0UL)
 685:C:/Workspaces/DAVE-4.4.2-64Bit/RoverX/Libraries/CMSIS/Include\core_cm0.h ****   }
 686:C:/Workspaces/DAVE-4.4.2-64Bit/RoverX/Libraries/CMSIS/Include\core_cm0.h ****   else
 687:C:/Workspaces/DAVE-4.4.2-64Bit/RoverX/Libraries/CMSIS/Include\core_cm0.h ****   {
 688:C:/Workspaces/DAVE-4.4.2-64Bit/RoverX/Libraries/CMSIS/Include\core_cm0.h ****     return(0U);
 689:C:/Workspaces/DAVE-4.4.2-64Bit/RoverX/Libraries/CMSIS/Include\core_cm0.h ****   }
 690:C:/Workspaces/DAVE-4.4.2-64Bit/RoverX/Libraries/CMSIS/Include\core_cm0.h **** }
 691:C:/Workspaces/DAVE-4.4.2-64Bit/RoverX/Libraries/CMSIS/Include\core_cm0.h **** 
 692:C:/Workspaces/DAVE-4.4.2-64Bit/RoverX/Libraries/CMSIS/Include\core_cm0.h **** 
 693:C:/Workspaces/DAVE-4.4.2-64Bit/RoverX/Libraries/CMSIS/Include\core_cm0.h **** /**
 694:C:/Workspaces/DAVE-4.4.2-64Bit/RoverX/Libraries/CMSIS/Include\core_cm0.h ****   \brief   Set Pending Interrupt
 695:C:/Workspaces/DAVE-4.4.2-64Bit/RoverX/Libraries/CMSIS/Include\core_cm0.h ****   \details Sets the pending bit of a device specific interrupt in the NVIC pending register.
 696:C:/Workspaces/DAVE-4.4.2-64Bit/RoverX/Libraries/CMSIS/Include\core_cm0.h ****   \param [in]      IRQn  Device specific interrupt number.
 697:C:/Workspaces/DAVE-4.4.2-64Bit/RoverX/Libraries/CMSIS/Include\core_cm0.h ****   \note    IRQn must not be negative.
 698:C:/Workspaces/DAVE-4.4.2-64Bit/RoverX/Libraries/CMSIS/Include\core_cm0.h ****  */
 699:C:/Workspaces/DAVE-4.4.2-64Bit/RoverX/Libraries/CMSIS/Include\core_cm0.h **** __STATIC_INLINE void __NVIC_SetPendingIRQ(IRQn_Type IRQn)
 700:C:/Workspaces/DAVE-4.4.2-64Bit/RoverX/Libraries/CMSIS/Include\core_cm0.h **** {
 701:C:/Workspaces/DAVE-4.4.2-64Bit/RoverX/Libraries/CMSIS/Include\core_cm0.h ****   if ((int32_t)(IRQn) >= 0)
 702:C:/Workspaces/DAVE-4.4.2-64Bit/RoverX/Libraries/CMSIS/Include\core_cm0.h ****   {
 703:C:/Workspaces/DAVE-4.4.2-64Bit/RoverX/Libraries/CMSIS/Include\core_cm0.h ****     NVIC->ISPR[0U] = (uint32_t)(1UL << (((uint32_t)IRQn) & 0x1FUL));
 704:C:/Workspaces/DAVE-4.4.2-64Bit/RoverX/Libraries/CMSIS/Include\core_cm0.h ****   }
 705:C:/Workspaces/DAVE-4.4.2-64Bit/RoverX/Libraries/CMSIS/Include\core_cm0.h **** }
 706:C:/Workspaces/DAVE-4.4.2-64Bit/RoverX/Libraries/CMSIS/Include\core_cm0.h **** 
 707:C:/Workspaces/DAVE-4.4.2-64Bit/RoverX/Libraries/CMSIS/Include\core_cm0.h **** 
 708:C:/Workspaces/DAVE-4.4.2-64Bit/RoverX/Libraries/CMSIS/Include\core_cm0.h **** /**
 709:C:/Workspaces/DAVE-4.4.2-64Bit/RoverX/Libraries/CMSIS/Include\core_cm0.h ****   \brief   Clear Pending Interrupt
 710:C:/Workspaces/DAVE-4.4.2-64Bit/RoverX/Libraries/CMSIS/Include\core_cm0.h ****   \details Clears the pending bit of a device specific interrupt in the NVIC pending register.
 711:C:/Workspaces/DAVE-4.4.2-64Bit/RoverX/Libraries/CMSIS/Include\core_cm0.h ****   \param [in]      IRQn  Device specific interrupt number.
 712:C:/Workspaces/DAVE-4.4.2-64Bit/RoverX/Libraries/CMSIS/Include\core_cm0.h ****   \note    IRQn must not be negative.
 713:C:/Workspaces/DAVE-4.4.2-64Bit/RoverX/Libraries/CMSIS/Include\core_cm0.h ****  */
 714:C:/Workspaces/DAVE-4.4.2-64Bit/RoverX/Libraries/CMSIS/Include\core_cm0.h **** __STATIC_INLINE void __NVIC_ClearPendingIRQ(IRQn_Type IRQn)
 715:C:/Workspaces/DAVE-4.4.2-64Bit/RoverX/Libraries/CMSIS/Include\core_cm0.h **** {
 716:C:/Workspaces/DAVE-4.4.2-64Bit/RoverX/Libraries/CMSIS/Include\core_cm0.h ****   if ((int32_t)(IRQn) >= 0)
 717:C:/Workspaces/DAVE-4.4.2-64Bit/RoverX/Libraries/CMSIS/Include\core_cm0.h ****   {
 718:C:/Workspaces/DAVE-4.4.2-64Bit/RoverX/Libraries/CMSIS/Include\core_cm0.h ****     NVIC->ICPR[0U] = (uint32_t)(1UL << (((uint32_t)IRQn) & 0x1FUL));
 719:C:/Workspaces/DAVE-4.4.2-64Bit/RoverX/Libraries/CMSIS/Include\core_cm0.h ****   }
 720:C:/Workspaces/DAVE-4.4.2-64Bit/RoverX/Libraries/CMSIS/Include\core_cm0.h **** }
 721:C:/Workspaces/DAVE-4.4.2-64Bit/RoverX/Libraries/CMSIS/Include\core_cm0.h **** 
 722:C:/Workspaces/DAVE-4.4.2-64Bit/RoverX/Libraries/CMSIS/Include\core_cm0.h **** 
 723:C:/Workspaces/DAVE-4.4.2-64Bit/RoverX/Libraries/CMSIS/Include\core_cm0.h **** /**
 724:C:/Workspaces/DAVE-4.4.2-64Bit/RoverX/Libraries/CMSIS/Include\core_cm0.h ****   \brief   Set Interrupt Priority
 725:C:/Workspaces/DAVE-4.4.2-64Bit/RoverX/Libraries/CMSIS/Include\core_cm0.h ****   \details Sets the priority of a device specific interrupt or a processor exception.
 726:C:/Workspaces/DAVE-4.4.2-64Bit/RoverX/Libraries/CMSIS/Include\core_cm0.h ****            The interrupt number can be positive to specify a device specific interrupt,
 727:C:/Workspaces/DAVE-4.4.2-64Bit/RoverX/Libraries/CMSIS/Include\core_cm0.h ****            or negative to specify a processor exception.
 728:C:/Workspaces/DAVE-4.4.2-64Bit/RoverX/Libraries/CMSIS/Include\core_cm0.h ****   \param [in]      IRQn  Interrupt number.
 729:C:/Workspaces/DAVE-4.4.2-64Bit/RoverX/Libraries/CMSIS/Include\core_cm0.h ****   \param [in]  priority  Priority to set.
 730:C:/Workspaces/DAVE-4.4.2-64Bit/RoverX/Libraries/CMSIS/Include\core_cm0.h ****   \note    The priority cannot be set for every processor exception.
 731:C:/Workspaces/DAVE-4.4.2-64Bit/RoverX/Libraries/CMSIS/Include\core_cm0.h ****  */
 732:C:/Workspaces/DAVE-4.4.2-64Bit/RoverX/Libraries/CMSIS/Include\core_cm0.h **** __STATIC_INLINE void __NVIC_SetPriority(IRQn_Type IRQn, uint32_t priority)
 733:C:/Workspaces/DAVE-4.4.2-64Bit/RoverX/Libraries/CMSIS/Include\core_cm0.h **** {
  79              	 .loc 1 733 0
  80              	 .cfi_startproc
  81 0000 B0B5     	 push {r4,r5,r7,lr}
  82              	.LCFI3:
  83              	 .cfi_def_cfa_offset 16
  84              	 .cfi_offset 4,-16
  85              	 .cfi_offset 5,-12
  86              	 .cfi_offset 7,-8
  87              	 .cfi_offset 14,-4
  88 0002 82B0     	 sub sp,sp,#8
  89              	.LCFI4:
  90              	 .cfi_def_cfa_offset 24
  91 0004 00AF     	 add r7,sp,#0
  92              	.LCFI5:
  93              	 .cfi_def_cfa_register 7
  94 0006 021C     	 mov r2,r0
  95 0008 3960     	 str r1,[r7]
  96 000a FB1D     	 add r3,r7,#7
  97 000c 1A70     	 strb r2,[r3]
 734:C:/Workspaces/DAVE-4.4.2-64Bit/RoverX/Libraries/CMSIS/Include\core_cm0.h ****   if ((int32_t)(IRQn) >= 0)
  98              	 .loc 1 734 0
  99 000e FB1D     	 add r3,r7,#7
 100 0010 1B78     	 ldrb r3,[r3]
 101 0012 7F2B     	 cmp r3,#127
 102 0014 27D8     	 bhi .L6
 735:C:/Workspaces/DAVE-4.4.2-64Bit/RoverX/Libraries/CMSIS/Include\core_cm0.h ****   {
 736:C:/Workspaces/DAVE-4.4.2-64Bit/RoverX/Libraries/CMSIS/Include\core_cm0.h ****     NVIC->IP[_IP_IDX(IRQn)]  = ((uint32_t)(NVIC->IP[_IP_IDX(IRQn)]  & ~(0xFFUL << _BIT_SHIFT(IRQn))
 103              	 .loc 1 736 0
 104 0016 2D4C     	 ldr r4,.L8
 105 0018 FB1D     	 add r3,r7,#7
 106 001a 1B78     	 ldrb r3,[r3]
 107 001c 5BB2     	 sxtb r3,r3
 108 001e 9B08     	 lsr r3,r3,#2
 109 0020 2A49     	 ldr r1,.L8
 110 0022 FA1D     	 add r2,r7,#7
 111 0024 1278     	 ldrb r2,[r2]
 112 0026 52B2     	 sxtb r2,r2
 113 0028 9208     	 lsr r2,r2,#2
 114 002a C032     	 add r2,r2,#192
 115 002c 9200     	 lsl r2,r2,#2
 116 002e 5258     	 ldr r2,[r2,r1]
 117 0030 F91D     	 add r1,r7,#7
 118 0032 0978     	 ldrb r1,[r1]
 119 0034 081C     	 mov r0,r1
 120 0036 0321     	 mov r1,#3
 121 0038 0140     	 and r1,r0
 122 003a C900     	 lsl r1,r1,#3
 123 003c 081C     	 mov r0,r1
 124 003e FF21     	 mov r1,#255
 125 0040 8140     	 lsl r1,r1,r0
 126 0042 C943     	 mvn r1,r1
 127 0044 1140     	 and r1,r2
 737:C:/Workspaces/DAVE-4.4.2-64Bit/RoverX/Libraries/CMSIS/Include\core_cm0.h ****        (((priority << (8U - __NVIC_PRIO_BITS)) & (uint32_t)0xFFUL) << _BIT_SHIFT(IRQn)));
 128              	 .loc 1 737 0
 129 0046 3A68     	 ldr r2,[r7]
 130 0048 9201     	 lsl r2,r2,#6
 131 004a FF20     	 mov r0,#255
 132 004c 0240     	 and r2,r0
 133 004e F81D     	 add r0,r7,#7
 134 0050 0078     	 ldrb r0,[r0]
 135 0052 051C     	 mov r5,r0
 136 0054 0320     	 mov r0,#3
 137 0056 2840     	 and r0,r5
 138 0058 C000     	 lsl r0,r0,#3
 139 005a 8240     	 lsl r2,r2,r0
 736:C:/Workspaces/DAVE-4.4.2-64Bit/RoverX/Libraries/CMSIS/Include\core_cm0.h ****        (((priority << (8U - __NVIC_PRIO_BITS)) & (uint32_t)0xFFUL) << _BIT_SHIFT(IRQn)));
 140              	 .loc 1 736 0
 141 005c 0A43     	 orr r2,r1
 142 005e C033     	 add r3,r3,#192
 143 0060 9B00     	 lsl r3,r3,#2
 144 0062 1A51     	 str r2,[r3,r4]
 145 0064 2EE0     	 b .L5
 146              	.L6:
 738:C:/Workspaces/DAVE-4.4.2-64Bit/RoverX/Libraries/CMSIS/Include\core_cm0.h ****   }
 739:C:/Workspaces/DAVE-4.4.2-64Bit/RoverX/Libraries/CMSIS/Include\core_cm0.h ****   else
 740:C:/Workspaces/DAVE-4.4.2-64Bit/RoverX/Libraries/CMSIS/Include\core_cm0.h ****   {
 741:C:/Workspaces/DAVE-4.4.2-64Bit/RoverX/Libraries/CMSIS/Include\core_cm0.h ****     SCB->SHP[_SHP_IDX(IRQn)] = ((uint32_t)(SCB->SHP[_SHP_IDX(IRQn)] & ~(0xFFUL << _BIT_SHIFT(IRQn))
 147              	 .loc 1 741 0
 148 0066 1A4C     	 ldr r4,.L8+4
 149 0068 FB1D     	 add r3,r7,#7
 150 006a 1B78     	 ldrb r3,[r3]
 151 006c 1A1C     	 mov r2,r3
 152 006e 0F23     	 mov r3,#15
 153 0070 1340     	 and r3,r2
 154 0072 083B     	 sub r3,r3,#8
 155 0074 9908     	 lsr r1,r3,#2
 156 0076 164A     	 ldr r2,.L8+4
 157 0078 FB1D     	 add r3,r7,#7
 158 007a 1B78     	 ldrb r3,[r3]
 159 007c 181C     	 mov r0,r3
 160 007e 0F23     	 mov r3,#15
 161 0080 0340     	 and r3,r0
 162 0082 083B     	 sub r3,r3,#8
 163 0084 9B08     	 lsr r3,r3,#2
 164 0086 0633     	 add r3,r3,#6
 165 0088 9B00     	 lsl r3,r3,#2
 166 008a D318     	 add r3,r2,r3
 167 008c 5B68     	 ldr r3,[r3,#4]
 168 008e FA1D     	 add r2,r7,#7
 169 0090 1278     	 ldrb r2,[r2]
 170 0092 101C     	 mov r0,r2
 171 0094 0322     	 mov r2,#3
 172 0096 0240     	 and r2,r0
 173 0098 D200     	 lsl r2,r2,#3
 174 009a 101C     	 mov r0,r2
 175 009c FF22     	 mov r2,#255
 176 009e 8240     	 lsl r2,r2,r0
 177 00a0 D243     	 mvn r2,r2
 178 00a2 1A40     	 and r2,r3
 742:C:/Workspaces/DAVE-4.4.2-64Bit/RoverX/Libraries/CMSIS/Include\core_cm0.h ****        (((priority << (8U - __NVIC_PRIO_BITS)) & (uint32_t)0xFFUL) << _BIT_SHIFT(IRQn)));
 179              	 .loc 1 742 0
 180 00a4 3B68     	 ldr r3,[r7]
 181 00a6 9B01     	 lsl r3,r3,#6
 182 00a8 FF20     	 mov r0,#255
 183 00aa 0340     	 and r3,r0
 184 00ac F81D     	 add r0,r7,#7
 185 00ae 0078     	 ldrb r0,[r0]
 186 00b0 051C     	 mov r5,r0
 187 00b2 0320     	 mov r0,#3
 188 00b4 2840     	 and r0,r5
 189 00b6 C000     	 lsl r0,r0,#3
 190 00b8 8340     	 lsl r3,r3,r0
 741:C:/Workspaces/DAVE-4.4.2-64Bit/RoverX/Libraries/CMSIS/Include\core_cm0.h ****        (((priority << (8U - __NVIC_PRIO_BITS)) & (uint32_t)0xFFUL) << _BIT_SHIFT(IRQn)));
 191              	 .loc 1 741 0
 192 00ba 1A43     	 orr r2,r3
 193 00bc 8B1D     	 add r3,r1,#6
 194 00be 9B00     	 lsl r3,r3,#2
 195 00c0 E318     	 add r3,r4,r3
 196 00c2 5A60     	 str r2,[r3,#4]
 197              	.L5:
 743:C:/Workspaces/DAVE-4.4.2-64Bit/RoverX/Libraries/CMSIS/Include\core_cm0.h ****   }
 744:C:/Workspaces/DAVE-4.4.2-64Bit/RoverX/Libraries/CMSIS/Include\core_cm0.h **** }
 198              	 .loc 1 744 0
 199 00c4 BD46     	 mov sp,r7
 200 00c6 02B0     	 add sp,sp,#8
 201              	 
 202 00c8 B0BD     	 pop {r4,r5,r7,pc}
 203              	.L9:
 204 00ca C046     	 .align 2
 205              	.L8:
 206 00cc 00E100E0 	 .word -536813312
 207 00d0 00ED00E0 	 .word -536810240
 208              	 .cfi_endproc
 209              	.LFE33:
 211              	 .section .text.XMC_USIC_CH_SetInputSource,"ax",%progbits
 212              	 .align 2
 213              	 .code 16
 214              	 .thumb_func
 216              	XMC_USIC_CH_SetInputSource:
 217              	.LFB74:
 218              	 .file 2 "C:/Workspaces/DAVE-4.4.2-64Bit/RoverX/Libraries/XMCLib/inc/xmc_usic.h"
   1:C:/Workspaces/DAVE-4.4.2-64Bit/RoverX/Libraries/XMCLib/inc\xmc_usic.h **** /**
   2:C:/Workspaces/DAVE-4.4.2-64Bit/RoverX/Libraries/XMCLib/inc\xmc_usic.h ****  * @file xmc_usic.h
   3:C:/Workspaces/DAVE-4.4.2-64Bit/RoverX/Libraries/XMCLib/inc\xmc_usic.h ****  * @date 2020-12-05
   4:C:/Workspaces/DAVE-4.4.2-64Bit/RoverX/Libraries/XMCLib/inc\xmc_usic.h ****  *
   5:C:/Workspaces/DAVE-4.4.2-64Bit/RoverX/Libraries/XMCLib/inc\xmc_usic.h ****  * @cond
   6:C:/Workspaces/DAVE-4.4.2-64Bit/RoverX/Libraries/XMCLib/inc\xmc_usic.h ****  *****************************************************************************
   7:C:/Workspaces/DAVE-4.4.2-64Bit/RoverX/Libraries/XMCLib/inc\xmc_usic.h ****  * XMClib v2.2.0 - XMC Peripheral Driver Library
   8:C:/Workspaces/DAVE-4.4.2-64Bit/RoverX/Libraries/XMCLib/inc\xmc_usic.h ****  *
   9:C:/Workspaces/DAVE-4.4.2-64Bit/RoverX/Libraries/XMCLib/inc\xmc_usic.h ****  * Copyright (c) 2015-2020, Infineon Technologies AG
  10:C:/Workspaces/DAVE-4.4.2-64Bit/RoverX/Libraries/XMCLib/inc\xmc_usic.h ****  * All rights reserved.
  11:C:/Workspaces/DAVE-4.4.2-64Bit/RoverX/Libraries/XMCLib/inc\xmc_usic.h ****  *
  12:C:/Workspaces/DAVE-4.4.2-64Bit/RoverX/Libraries/XMCLib/inc\xmc_usic.h ****  * Boost Software License - Version 1.0 - August 17th, 2003
  13:C:/Workspaces/DAVE-4.4.2-64Bit/RoverX/Libraries/XMCLib/inc\xmc_usic.h ****  *
  14:C:/Workspaces/DAVE-4.4.2-64Bit/RoverX/Libraries/XMCLib/inc\xmc_usic.h ****  * Permission is hereby granted, free of charge, to any person or organization
  15:C:/Workspaces/DAVE-4.4.2-64Bit/RoverX/Libraries/XMCLib/inc\xmc_usic.h ****  * obtaining a copy of the software and accompanying documentation covered by
  16:C:/Workspaces/DAVE-4.4.2-64Bit/RoverX/Libraries/XMCLib/inc\xmc_usic.h ****  * this license (the "Software") to use, reproduce, display, distribute,
  17:C:/Workspaces/DAVE-4.4.2-64Bit/RoverX/Libraries/XMCLib/inc\xmc_usic.h ****  * execute, and transmit the Software, and to prepare derivative works of the
  18:C:/Workspaces/DAVE-4.4.2-64Bit/RoverX/Libraries/XMCLib/inc\xmc_usic.h ****  * Software, and to permit third-parties to whom the Software is furnished to
  19:C:/Workspaces/DAVE-4.4.2-64Bit/RoverX/Libraries/XMCLib/inc\xmc_usic.h ****  * do so, all subject to the following:
  20:C:/Workspaces/DAVE-4.4.2-64Bit/RoverX/Libraries/XMCLib/inc\xmc_usic.h ****  *
  21:C:/Workspaces/DAVE-4.4.2-64Bit/RoverX/Libraries/XMCLib/inc\xmc_usic.h ****  * The copyright notices in the Software and this entire statement, including
  22:C:/Workspaces/DAVE-4.4.2-64Bit/RoverX/Libraries/XMCLib/inc\xmc_usic.h ****  * the above license grant, this restriction and the following disclaimer,
  23:C:/Workspaces/DAVE-4.4.2-64Bit/RoverX/Libraries/XMCLib/inc\xmc_usic.h ****  * must be included in all copies of the Software, in whole or in part, and
  24:C:/Workspaces/DAVE-4.4.2-64Bit/RoverX/Libraries/XMCLib/inc\xmc_usic.h ****  * all derivative works of the Software, unless such copies or derivative
  25:C:/Workspaces/DAVE-4.4.2-64Bit/RoverX/Libraries/XMCLib/inc\xmc_usic.h ****  * works are solely in the form of machine-executable object code generated by
  26:C:/Workspaces/DAVE-4.4.2-64Bit/RoverX/Libraries/XMCLib/inc\xmc_usic.h ****  * a source language processor.
  27:C:/Workspaces/DAVE-4.4.2-64Bit/RoverX/Libraries/XMCLib/inc\xmc_usic.h ****  *
  28:C:/Workspaces/DAVE-4.4.2-64Bit/RoverX/Libraries/XMCLib/inc\xmc_usic.h ****  * THE SOFTWARE IS PROVIDED "AS IS", WITHOUT WARRANTY OF ANY KIND, EXPRESS OR
  29:C:/Workspaces/DAVE-4.4.2-64Bit/RoverX/Libraries/XMCLib/inc\xmc_usic.h ****  * IMPLIED, INCLUDING BUT NOT LIMITED TO THE WARRANTIES OF MERCHANTABILITY,
  30:C:/Workspaces/DAVE-4.4.2-64Bit/RoverX/Libraries/XMCLib/inc\xmc_usic.h ****  * FITNESS FOR A PARTICULAR PURPOSE, TITLE AND NON-INFRINGEMENT. IN NO EVENT
  31:C:/Workspaces/DAVE-4.4.2-64Bit/RoverX/Libraries/XMCLib/inc\xmc_usic.h ****  * SHALL THE COPYRIGHT HOLDERS OR ANYONE DISTRIBUTING THE SOFTWARE BE LIABLE
  32:C:/Workspaces/DAVE-4.4.2-64Bit/RoverX/Libraries/XMCLib/inc\xmc_usic.h ****  * FOR ANY DAMAGES OR OTHER LIABILITY, WHETHER IN CONTRACT, TORT OR OTHERWISE,
  33:C:/Workspaces/DAVE-4.4.2-64Bit/RoverX/Libraries/XMCLib/inc\xmc_usic.h ****  * ARISING FROM, OUT OF OR IN CONNECTION WITH THE SOFTWARE OR THE USE OR OTHER
  34:C:/Workspaces/DAVE-4.4.2-64Bit/RoverX/Libraries/XMCLib/inc\xmc_usic.h ****  * DEALINGS IN THE SOFTWARE.
  35:C:/Workspaces/DAVE-4.4.2-64Bit/RoverX/Libraries/XMCLib/inc\xmc_usic.h ****  *
  36:C:/Workspaces/DAVE-4.4.2-64Bit/RoverX/Libraries/XMCLib/inc\xmc_usic.h ****  * To improve the quality of the software, users are encouraged to share
  37:C:/Workspaces/DAVE-4.4.2-64Bit/RoverX/Libraries/XMCLib/inc\xmc_usic.h ****  * modifications, enhancements or bug fixes with Infineon Technologies AG
  38:C:/Workspaces/DAVE-4.4.2-64Bit/RoverX/Libraries/XMCLib/inc\xmc_usic.h ****  * at XMCSupport@infineon.com.
  39:C:/Workspaces/DAVE-4.4.2-64Bit/RoverX/Libraries/XMCLib/inc\xmc_usic.h ****  *****************************************************************************
  40:C:/Workspaces/DAVE-4.4.2-64Bit/RoverX/Libraries/XMCLib/inc\xmc_usic.h ****  *
  41:C:/Workspaces/DAVE-4.4.2-64Bit/RoverX/Libraries/XMCLib/inc\xmc_usic.h ****  * Change History
  42:C:/Workspaces/DAVE-4.4.2-64Bit/RoverX/Libraries/XMCLib/inc\xmc_usic.h ****  * --------------
  43:C:/Workspaces/DAVE-4.4.2-64Bit/RoverX/Libraries/XMCLib/inc\xmc_usic.h ****  *
  44:C:/Workspaces/DAVE-4.4.2-64Bit/RoverX/Libraries/XMCLib/inc\xmc_usic.h ****  * 2015-02-20:
  45:C:/Workspaces/DAVE-4.4.2-64Bit/RoverX/Libraries/XMCLib/inc\xmc_usic.h ****  *     - Initial draft<br>
  46:C:/Workspaces/DAVE-4.4.2-64Bit/RoverX/Libraries/XMCLib/inc\xmc_usic.h ****  *     - Documentation improved <br>
  47:C:/Workspaces/DAVE-4.4.2-64Bit/RoverX/Libraries/XMCLib/inc\xmc_usic.h ****  *
  48:C:/Workspaces/DAVE-4.4.2-64Bit/RoverX/Libraries/XMCLib/inc\xmc_usic.h ****  * 2015-05-08:
  49:C:/Workspaces/DAVE-4.4.2-64Bit/RoverX/Libraries/XMCLib/inc\xmc_usic.h ****  *     - Added XMC_USIC_CH_SetInputTriggerCombinationMode() and XMC_USIC_CH_SetTransmitBufferStatus
  50:C:/Workspaces/DAVE-4.4.2-64Bit/RoverX/Libraries/XMCLib/inc\xmc_usic.h ****  *
  51:C:/Workspaces/DAVE-4.4.2-64Bit/RoverX/Libraries/XMCLib/inc\xmc_usic.h ****  * 2015-06-20:
  52:C:/Workspaces/DAVE-4.4.2-64Bit/RoverX/Libraries/XMCLib/inc\xmc_usic.h ****  *     - Removed version macros and declaration of GetDriverVersion API
  53:C:/Workspaces/DAVE-4.4.2-64Bit/RoverX/Libraries/XMCLib/inc\xmc_usic.h ****  *
  54:C:/Workspaces/DAVE-4.4.2-64Bit/RoverX/Libraries/XMCLib/inc\xmc_usic.h ****  * 2015-08-17:
  55:C:/Workspaces/DAVE-4.4.2-64Bit/RoverX/Libraries/XMCLib/inc\xmc_usic.h ****  *     - Bug fixed in XMC_USIC_CH_SetTransmitBufferStatus API. OR operator removed.
  56:C:/Workspaces/DAVE-4.4.2-64Bit/RoverX/Libraries/XMCLib/inc\xmc_usic.h ****  *
  57:C:/Workspaces/DAVE-4.4.2-64Bit/RoverX/Libraries/XMCLib/inc\xmc_usic.h ****  * 2015-08-24:
  58:C:/Workspaces/DAVE-4.4.2-64Bit/RoverX/Libraries/XMCLib/inc\xmc_usic.h ****  *     - Added APIs for enabling/disabling delay compensation XMC_USIC_CH_DisableDelayCompensation(
  59:C:/Workspaces/DAVE-4.4.2-64Bit/RoverX/Libraries/XMCLib/inc\xmc_usic.h ****  *       XMC_USIC_CH_DisableDelayCompensation()
  60:C:/Workspaces/DAVE-4.4.2-64Bit/RoverX/Libraries/XMCLib/inc\xmc_usic.h ****  *
  61:C:/Workspaces/DAVE-4.4.2-64Bit/RoverX/Libraries/XMCLib/inc\xmc_usic.h ****  * 2015-08-25:
  62:C:/Workspaces/DAVE-4.4.2-64Bit/RoverX/Libraries/XMCLib/inc\xmc_usic.h ****  *     - Added APIs for defining if the data shift unit input is derived
  63:C:/Workspaces/DAVE-4.4.2-64Bit/RoverX/Libraries/XMCLib/inc\xmc_usic.h ****  *       from the input data path DXn or from the selected protocol pre-processors: XMC_USIC_CH_Con
  64:C:/Workspaces/DAVE-4.4.2-64Bit/RoverX/Libraries/XMCLib/inc\xmc_usic.h ****  *       and XMC_USIC_CH_ConnectInputDataShiftToDataInput()
  65:C:/Workspaces/DAVE-4.4.2-64Bit/RoverX/Libraries/XMCLib/inc\xmc_usic.h ****  *
  66:C:/Workspaces/DAVE-4.4.2-64Bit/RoverX/Libraries/XMCLib/inc\xmc_usic.h ****  * 2015-08-27:
  67:C:/Workspaces/DAVE-4.4.2-64Bit/RoverX/Libraries/XMCLib/inc\xmc_usic.h ****  *     - Fixed bug in XMC_USIC_CH_BRG_CLOCK_SOURCE_DX1T value.
  68:C:/Workspaces/DAVE-4.4.2-64Bit/RoverX/Libraries/XMCLib/inc\xmc_usic.h ****  *     - Added APIs for direct TBUF access: XMC_USIC_CH_WriteToTBUF() and XMC_USIC_CH_WriteToTBUFTC
  69:C:/Workspaces/DAVE-4.4.2-64Bit/RoverX/Libraries/XMCLib/inc\xmc_usic.h ****  *     - Added APIs for external input for BRG configuration:XMC_USIC_CH_ConfigExternalInputSignalT
  70:C:/Workspaces/DAVE-4.4.2-64Bit/RoverX/Libraries/XMCLib/inc\xmc_usic.h ****  *
  71:C:/Workspaces/DAVE-4.4.2-64Bit/RoverX/Libraries/XMCLib/inc\xmc_usic.h ****  * 2015-08-28:
  72:C:/Workspaces/DAVE-4.4.2-64Bit/RoverX/Libraries/XMCLib/inc\xmc_usic.h ****  *     - Added API for enabling the transfer trigger unit to set bit TCSR.TE if the trigger signal 
  73:C:/Workspaces/DAVE-4.4.2-64Bit/RoverX/Libraries/XMCLib/inc\xmc_usic.h ****  *       Clear to Send (CTS) signal: XMC_USIC_CH_EnableTBUFDataValidTrigger() and XMC_USIC_CH_Disab
  74:C:/Workspaces/DAVE-4.4.2-64Bit/RoverX/Libraries/XMCLib/inc\xmc_usic.h ****  *
  75:C:/Workspaces/DAVE-4.4.2-64Bit/RoverX/Libraries/XMCLib/inc\xmc_usic.h ****  * 2016-03-09:
  76:C:/Workspaces/DAVE-4.4.2-64Bit/RoverX/Libraries/XMCLib/inc\xmc_usic.h ****  *     - Optimization of write only registers
  77:C:/Workspaces/DAVE-4.4.2-64Bit/RoverX/Libraries/XMCLib/inc\xmc_usic.h ****  *
  78:C:/Workspaces/DAVE-4.4.2-64Bit/RoverX/Libraries/XMCLib/inc\xmc_usic.h ****  * 2016-04-10:
  79:C:/Workspaces/DAVE-4.4.2-64Bit/RoverX/Libraries/XMCLib/inc\xmc_usic.h ****  *     - Added an API to put the data into FIFO when hardware port control is enabled: XMC_USIC_CH_
  80:C:/Workspaces/DAVE-4.4.2-64Bit/RoverX/Libraries/XMCLib/inc\xmc_usic.h ****  *
  81:C:/Workspaces/DAVE-4.4.2-64Bit/RoverX/Libraries/XMCLib/inc\xmc_usic.h ****  * 2017-02-10:
  82:C:/Workspaces/DAVE-4.4.2-64Bit/RoverX/Libraries/XMCLib/inc\xmc_usic.h ****  *     - Added XMC_USIC_CH_SetShiftDirection() to allow selection of shift direction of the data wo
  83:C:/Workspaces/DAVE-4.4.2-64Bit/RoverX/Libraries/XMCLib/inc\xmc_usic.h ****  *     - Added XMC_USIC_CH_GetCaptureTimerValue() and XMC_USIC_CH_SetFractionalDivider()
  84:C:/Workspaces/DAVE-4.4.2-64Bit/RoverX/Libraries/XMCLib/inc\xmc_usic.h ****  *
  85:C:/Workspaces/DAVE-4.4.2-64Bit/RoverX/Libraries/XMCLib/inc\xmc_usic.h ****  * 2017-09-08:
  86:C:/Workspaces/DAVE-4.4.2-64Bit/RoverX/Libraries/XMCLib/inc\xmc_usic.h ****  *     - Fixed value of macro XMC_USIC_CH_SHIFT_DIRECTION_MSB_FIRST used in XMC_USIC_CH_SetShiftDir
  87:C:/Workspaces/DAVE-4.4.2-64Bit/RoverX/Libraries/XMCLib/inc\xmc_usic.h ****  *
  88:C:/Workspaces/DAVE-4.4.2-64Bit/RoverX/Libraries/XMCLib/inc\xmc_usic.h ****  * 2018-09-29:
  89:C:/Workspaces/DAVE-4.4.2-64Bit/RoverX/Libraries/XMCLib/inc\xmc_usic.h ****  *     - Added XMC_USIC_CH_SetBaudrateEx which uses the integer divider instead of the fractional d
  90:C:/Workspaces/DAVE-4.4.2-64Bit/RoverX/Libraries/XMCLib/inc\xmc_usic.h ****  *
  91:C:/Workspaces/DAVE-4.4.2-64Bit/RoverX/Libraries/XMCLib/inc\xmc_usic.h ****  * 2019-05-07:
  92:C:/Workspaces/DAVE-4.4.2-64Bit/RoverX/Libraries/XMCLib/inc\xmc_usic.h ****  *     - Added XMC_USIC_CH_GetBaudrate(), XMC_USIC_CH_GetSCLKFrequency() and XMC_USIC_CH_GetMCLKFre
  93:C:/Workspaces/DAVE-4.4.2-64Bit/RoverX/Libraries/XMCLib/inc\xmc_usic.h ****  *
  94:C:/Workspaces/DAVE-4.4.2-64Bit/RoverX/Libraries/XMCLib/inc\xmc_usic.h ****  * 2019-07-01:
  95:C:/Workspaces/DAVE-4.4.2-64Bit/RoverX/Libraries/XMCLib/inc\xmc_usic.h ****  *     - Changed XMC_USIC_CH_SetBaudrateEx() input parameter types
  96:C:/Workspaces/DAVE-4.4.2-64Bit/RoverX/Libraries/XMCLib/inc\xmc_usic.h ****  *
  97:C:/Workspaces/DAVE-4.4.2-64Bit/RoverX/Libraries/XMCLib/inc\xmc_usic.h ****  * 2019-09-30:
  98:C:/Workspaces/DAVE-4.4.2-64Bit/RoverX/Libraries/XMCLib/inc\xmc_usic.h ****  *     - Added XMC_USIC_CH_InvalidateReadData(), XMC_USIC_CH_EnableWordLengthControl() and XMC_USIC
  99:C:/Workspaces/DAVE-4.4.2-64Bit/RoverX/Libraries/XMCLib/inc\xmc_usic.h ****  *
 100:C:/Workspaces/DAVE-4.4.2-64Bit/RoverX/Libraries/XMCLib/inc\xmc_usic.h ****  * 2019-12-05:
 101:C:/Workspaces/DAVE-4.4.2-64Bit/RoverX/Libraries/XMCLib/inc\xmc_usic.h ****  *     - Added XMC_USIC_CH_TXFIFO_PutDataEx()
 102:C:/Workspaces/DAVE-4.4.2-64Bit/RoverX/Libraries/XMCLib/inc\xmc_usic.h ****  *
 103:C:/Workspaces/DAVE-4.4.2-64Bit/RoverX/Libraries/XMCLib/inc\xmc_usic.h ****  * 2020-04-30:
 104:C:/Workspaces/DAVE-4.4.2-64Bit/RoverX/Libraries/XMCLib/inc\xmc_usic.h ****  *     - Added XMC_USIC_CH_TXFIFO_SetTriggerLimit() and XMC_USIC_CH_RXFIFO_SetTriggerLimit()
 105:C:/Workspaces/DAVE-4.4.2-64Bit/RoverX/Libraries/XMCLib/inc\xmc_usic.h ****  *
 106:C:/Workspaces/DAVE-4.4.2-64Bit/RoverX/Libraries/XMCLib/inc\xmc_usic.h ****  * 2020-12-05:
 107:C:/Workspaces/DAVE-4.4.2-64Bit/RoverX/Libraries/XMCLib/inc\xmc_usic.h ****  *     - Added XMC_USIC_CH_BRG_CLOCK_SOURCE_DX1S to XMC_USIC_CH_BRG_CLOCK_SOURCE_t
 108:C:/Workspaces/DAVE-4.4.2-64Bit/RoverX/Libraries/XMCLib/inc\xmc_usic.h ****  *     - Added XMC_USIC_CH_BRG_CTQSEL_t
 109:C:/Workspaces/DAVE-4.4.2-64Bit/RoverX/Libraries/XMCLib/inc\xmc_usic.h ****  *     - Added XMC_USIC_CH_SetBaudrateDivider()
 110:C:/Workspaces/DAVE-4.4.2-64Bit/RoverX/Libraries/XMCLib/inc\xmc_usic.h ****  * 
 111:C:/Workspaces/DAVE-4.4.2-64Bit/RoverX/Libraries/XMCLib/inc\xmc_usic.h ****  * @endcond
 112:C:/Workspaces/DAVE-4.4.2-64Bit/RoverX/Libraries/XMCLib/inc\xmc_usic.h ****  *
 113:C:/Workspaces/DAVE-4.4.2-64Bit/RoverX/Libraries/XMCLib/inc\xmc_usic.h ****  */
 114:C:/Workspaces/DAVE-4.4.2-64Bit/RoverX/Libraries/XMCLib/inc\xmc_usic.h **** 
 115:C:/Workspaces/DAVE-4.4.2-64Bit/RoverX/Libraries/XMCLib/inc\xmc_usic.h **** #ifndef XMC_USIC_H
 116:C:/Workspaces/DAVE-4.4.2-64Bit/RoverX/Libraries/XMCLib/inc\xmc_usic.h **** #define XMC_USIC_H
 117:C:/Workspaces/DAVE-4.4.2-64Bit/RoverX/Libraries/XMCLib/inc\xmc_usic.h **** /*******************************************************************************
 118:C:/Workspaces/DAVE-4.4.2-64Bit/RoverX/Libraries/XMCLib/inc\xmc_usic.h ****  * HEADER FILES
 119:C:/Workspaces/DAVE-4.4.2-64Bit/RoverX/Libraries/XMCLib/inc\xmc_usic.h ****  *******************************************************************************/
 120:C:/Workspaces/DAVE-4.4.2-64Bit/RoverX/Libraries/XMCLib/inc\xmc_usic.h **** 
 121:C:/Workspaces/DAVE-4.4.2-64Bit/RoverX/Libraries/XMCLib/inc\xmc_usic.h **** #include "xmc_common.h"
 122:C:/Workspaces/DAVE-4.4.2-64Bit/RoverX/Libraries/XMCLib/inc\xmc_usic.h **** 
 123:C:/Workspaces/DAVE-4.4.2-64Bit/RoverX/Libraries/XMCLib/inc\xmc_usic.h **** /**
 124:C:/Workspaces/DAVE-4.4.2-64Bit/RoverX/Libraries/XMCLib/inc\xmc_usic.h ****  * @addtogroup XMClib XMC Peripheral Library
 125:C:/Workspaces/DAVE-4.4.2-64Bit/RoverX/Libraries/XMCLib/inc\xmc_usic.h ****  * @{
 126:C:/Workspaces/DAVE-4.4.2-64Bit/RoverX/Libraries/XMCLib/inc\xmc_usic.h ****  */
 127:C:/Workspaces/DAVE-4.4.2-64Bit/RoverX/Libraries/XMCLib/inc\xmc_usic.h **** 
 128:C:/Workspaces/DAVE-4.4.2-64Bit/RoverX/Libraries/XMCLib/inc\xmc_usic.h **** /**
 129:C:/Workspaces/DAVE-4.4.2-64Bit/RoverX/Libraries/XMCLib/inc\xmc_usic.h ****  * @addtogroup USIC
 130:C:/Workspaces/DAVE-4.4.2-64Bit/RoverX/Libraries/XMCLib/inc\xmc_usic.h ****  * @brief Universal Serial Interface Channel(USIC) driver for serial communication.
 131:C:/Workspaces/DAVE-4.4.2-64Bit/RoverX/Libraries/XMCLib/inc\xmc_usic.h ****  *
 132:C:/Workspaces/DAVE-4.4.2-64Bit/RoverX/Libraries/XMCLib/inc\xmc_usic.h ****  * The Universal Serial Interface Channel(USIC) module is a flexible interface module
 133:C:/Workspaces/DAVE-4.4.2-64Bit/RoverX/Libraries/XMCLib/inc\xmc_usic.h ****  * covering several serial communication protocols. A USIC module contains two
 134:C:/Workspaces/DAVE-4.4.2-64Bit/RoverX/Libraries/XMCLib/inc\xmc_usic.h ****  * independent communication channels named USICx_CH0 and USICx_CH1, with x
 135:C:/Workspaces/DAVE-4.4.2-64Bit/RoverX/Libraries/XMCLib/inc\xmc_usic.h ****  * being the number of the USIC module. The user can program, during run-time, which protocol will 
 136:C:/Workspaces/DAVE-4.4.2-64Bit/RoverX/Libraries/XMCLib/inc\xmc_usic.h ****  * by each communication channel and which pins are used.
 137:C:/Workspaces/DAVE-4.4.2-64Bit/RoverX/Libraries/XMCLib/inc\xmc_usic.h ****  * The driver provides APIs, configuration structures and enumerations to configure common features
 138:C:/Workspaces/DAVE-4.4.2-64Bit/RoverX/Libraries/XMCLib/inc\xmc_usic.h ****  * communication protocols.
 139:C:/Workspaces/DAVE-4.4.2-64Bit/RoverX/Libraries/XMCLib/inc\xmc_usic.h ****  *
 140:C:/Workspaces/DAVE-4.4.2-64Bit/RoverX/Libraries/XMCLib/inc\xmc_usic.h ****  * USIC driver features:
 141:C:/Workspaces/DAVE-4.4.2-64Bit/RoverX/Libraries/XMCLib/inc\xmc_usic.h ****  * -# Allows configuration of FIFO for transmit and receive functions.
 142:C:/Workspaces/DAVE-4.4.2-64Bit/RoverX/Libraries/XMCLib/inc\xmc_usic.h ****  * -# Provides a structure type XMC_USIC_CH_t to represent the USIC channel registers in a programm
 143:C:/Workspaces/DAVE-4.4.2-64Bit/RoverX/Libraries/XMCLib/inc\xmc_usic.h ****  friendly format.
 144:C:/Workspaces/DAVE-4.4.2-64Bit/RoverX/Libraries/XMCLib/inc\xmc_usic.h ****  * -# Allows configuration of automatic update for frame length, word length, slave select or slave
 145:C:/Workspaces/DAVE-4.4.2-64Bit/RoverX/Libraries/XMCLib/inc\xmc_usic.h ****  * -# Allows transmission of data to FIFO using XMC_USIC_CH_TXFIFO_PutData() and XMC_USIC_CH_TXFIFO
 146:C:/Workspaces/DAVE-4.4.2-64Bit/RoverX/Libraries/XMCLib/inc\xmc_usic.h ****  * -# Allows reading of received data in FIFO using XMC_USIC_CH_RXFIFO_GetData()
 147:C:/Workspaces/DAVE-4.4.2-64Bit/RoverX/Libraries/XMCLib/inc\xmc_usic.h ****  * -# Allows configuration of baudrate using XMC_USIC_CH_SetBaudrate()
 148:C:/Workspaces/DAVE-4.4.2-64Bit/RoverX/Libraries/XMCLib/inc\xmc_usic.h ****  * -# Provides API to trigger interrupts using XMC_USIC_CH_TriggerServiceRequest()
 149:C:/Workspaces/DAVE-4.4.2-64Bit/RoverX/Libraries/XMCLib/inc\xmc_usic.h ****  * @{
 150:C:/Workspaces/DAVE-4.4.2-64Bit/RoverX/Libraries/XMCLib/inc\xmc_usic.h ****  */
 151:C:/Workspaces/DAVE-4.4.2-64Bit/RoverX/Libraries/XMCLib/inc\xmc_usic.h **** 
 152:C:/Workspaces/DAVE-4.4.2-64Bit/RoverX/Libraries/XMCLib/inc\xmc_usic.h **** /*******************************************************************************
 153:C:/Workspaces/DAVE-4.4.2-64Bit/RoverX/Libraries/XMCLib/inc\xmc_usic.h ****  * MACROS
 154:C:/Workspaces/DAVE-4.4.2-64Bit/RoverX/Libraries/XMCLib/inc\xmc_usic.h ****  *******************************************************************************/
 155:C:/Workspaces/DAVE-4.4.2-64Bit/RoverX/Libraries/XMCLib/inc\xmc_usic.h **** 
 156:C:/Workspaces/DAVE-4.4.2-64Bit/RoverX/Libraries/XMCLib/inc\xmc_usic.h **** #define XMC_USIC0 ((XMC_USIC_t *)USIC0_BASE)			/**< USIC0 module base address */
 157:C:/Workspaces/DAVE-4.4.2-64Bit/RoverX/Libraries/XMCLib/inc\xmc_usic.h **** #define XMC_USIC0_CH0 ((XMC_USIC_CH_t *)USIC0_CH0_BASE)	/**< USIC0 channel 0 base address */
 158:C:/Workspaces/DAVE-4.4.2-64Bit/RoverX/Libraries/XMCLib/inc\xmc_usic.h **** #define XMC_USIC0_CH1 ((XMC_USIC_CH_t *)USIC0_CH1_BASE)	/**< USIC0 channel 1 base address */
 159:C:/Workspaces/DAVE-4.4.2-64Bit/RoverX/Libraries/XMCLib/inc\xmc_usic.h **** 
 160:C:/Workspaces/DAVE-4.4.2-64Bit/RoverX/Libraries/XMCLib/inc\xmc_usic.h **** #if defined(USIC1)
 161:C:/Workspaces/DAVE-4.4.2-64Bit/RoverX/Libraries/XMCLib/inc\xmc_usic.h **** #define XMC_USIC1 ((XMC_USIC_t *)USIC1_BASE)			/**< USIC1 module base address */
 162:C:/Workspaces/DAVE-4.4.2-64Bit/RoverX/Libraries/XMCLib/inc\xmc_usic.h **** #define XMC_USIC1_CH0 ((XMC_USIC_CH_t *)USIC1_CH0_BASE)	/**< USIC1 channel 0 base address */
 163:C:/Workspaces/DAVE-4.4.2-64Bit/RoverX/Libraries/XMCLib/inc\xmc_usic.h **** #define XMC_USIC1_CH1 ((XMC_USIC_CH_t *)USIC1_CH1_BASE)	/**< USIC1 channel 1 base address */
 164:C:/Workspaces/DAVE-4.4.2-64Bit/RoverX/Libraries/XMCLib/inc\xmc_usic.h **** #endif
 165:C:/Workspaces/DAVE-4.4.2-64Bit/RoverX/Libraries/XMCLib/inc\xmc_usic.h **** 
 166:C:/Workspaces/DAVE-4.4.2-64Bit/RoverX/Libraries/XMCLib/inc\xmc_usic.h **** #if defined(USIC2)
 167:C:/Workspaces/DAVE-4.4.2-64Bit/RoverX/Libraries/XMCLib/inc\xmc_usic.h **** #define XMC_USIC2 ((XMC_USIC_t *)USIC2_BASE)			/**< USIC2 module base address */
 168:C:/Workspaces/DAVE-4.4.2-64Bit/RoverX/Libraries/XMCLib/inc\xmc_usic.h **** #define XMC_USIC2_CH0 ((XMC_USIC_CH_t *)USIC2_CH0_BASE)	/**< USIC2 channel 0 base address */
 169:C:/Workspaces/DAVE-4.4.2-64Bit/RoverX/Libraries/XMCLib/inc\xmc_usic.h **** #define XMC_USIC2_CH1 ((XMC_USIC_CH_t *)USIC2_CH1_BASE)	/**< USIC2 channel 1 base address */
 170:C:/Workspaces/DAVE-4.4.2-64Bit/RoverX/Libraries/XMCLib/inc\xmc_usic.h **** #endif
 171:C:/Workspaces/DAVE-4.4.2-64Bit/RoverX/Libraries/XMCLib/inc\xmc_usic.h **** 
 172:C:/Workspaces/DAVE-4.4.2-64Bit/RoverX/Libraries/XMCLib/inc\xmc_usic.h **** #define USIC_CH_DXCR_DSEL_Msk  USIC_CH_DX0CR_DSEL_Msk   /**< Common mask for DSEL bitfield mask in 
 173:C:/Workspaces/DAVE-4.4.2-64Bit/RoverX/Libraries/XMCLib/inc\xmc_usic.h **** #define USIC_CH_DXCR_DSEL_Pos  USIC_CH_DX0CR_DSEL_Pos   /**< Common mask for DSEL bitfield position
 174:C:/Workspaces/DAVE-4.4.2-64Bit/RoverX/Libraries/XMCLib/inc\xmc_usic.h **** #define USIC_CH_DXCR_SFSEL_Pos USIC_CH_DX0CR_SFSEL_Pos  /**< Common mask for SFSEL bitfield positio
 175:C:/Workspaces/DAVE-4.4.2-64Bit/RoverX/Libraries/XMCLib/inc\xmc_usic.h **** #define USIC_CH_DXCR_SFSEL_Msk USIC_CH_DX0CR_SFSEL_Msk  /**< Common mask for SFSEL bitfield mask in
 176:C:/Workspaces/DAVE-4.4.2-64Bit/RoverX/Libraries/XMCLib/inc\xmc_usic.h **** #define USIC_CH_DXCR_DPOL_Msk  USIC_CH_DX0CR_DPOL_Msk   /**< Common mask for DPOL bitfield mask in 
 177:C:/Workspaces/DAVE-4.4.2-64Bit/RoverX/Libraries/XMCLib/inc\xmc_usic.h **** #define USIC_CH_DXCR_DFEN_Msk  USIC_CH_DX0CR_DFEN_Msk   /**< Common mask for DFEN bitfield mask in 
 178:C:/Workspaces/DAVE-4.4.2-64Bit/RoverX/Libraries/XMCLib/inc\xmc_usic.h **** #define USIC_CH_DXCR_DSEN_Msk  USIC_CH_DX0CR_DSEN_Msk   /**< Common mask for DSEN bitfield mask in 
 179:C:/Workspaces/DAVE-4.4.2-64Bit/RoverX/Libraries/XMCLib/inc\xmc_usic.h **** #define USIC_CH_DXCR_CM_Pos    USIC_CH_DX0CR_CM_Pos     /**< Common mask for CM bitfield position i
 180:C:/Workspaces/DAVE-4.4.2-64Bit/RoverX/Libraries/XMCLib/inc\xmc_usic.h **** #define USIC_CH_DXCR_CM_Msk    USIC_CH_DX0CR_CM_Msk     /**< Common mask for CM bitfield mask in DX
 181:C:/Workspaces/DAVE-4.4.2-64Bit/RoverX/Libraries/XMCLib/inc\xmc_usic.h **** #define USIC_CH_DXCR_INSW_Msk  USIC_CH_DX0CR_INSW_Msk   /**< Common mask for INSW bitfield mask in 
 182:C:/Workspaces/DAVE-4.4.2-64Bit/RoverX/Libraries/XMCLib/inc\xmc_usic.h **** #define USIC_CH_DXCR_INSW_pos  USIC_CH_DX0CR_INSW_Pos   /**< Common mask for INSW bitfield position
 183:C:/Workspaces/DAVE-4.4.2-64Bit/RoverX/Libraries/XMCLib/inc\xmc_usic.h **** 
 184:C:/Workspaces/DAVE-4.4.2-64Bit/RoverX/Libraries/XMCLib/inc\xmc_usic.h **** #if UC_FAMILY == XMC1
 185:C:/Workspaces/DAVE-4.4.2-64Bit/RoverX/Libraries/XMCLib/inc\xmc_usic.h **** #include "xmc1_usic_map.h"
 186:C:/Workspaces/DAVE-4.4.2-64Bit/RoverX/Libraries/XMCLib/inc\xmc_usic.h **** #endif
 187:C:/Workspaces/DAVE-4.4.2-64Bit/RoverX/Libraries/XMCLib/inc\xmc_usic.h **** 
 188:C:/Workspaces/DAVE-4.4.2-64Bit/RoverX/Libraries/XMCLib/inc\xmc_usic.h **** #if UC_FAMILY == XMC4
 189:C:/Workspaces/DAVE-4.4.2-64Bit/RoverX/Libraries/XMCLib/inc\xmc_usic.h **** #include "xmc4_usic_map.h"
 190:C:/Workspaces/DAVE-4.4.2-64Bit/RoverX/Libraries/XMCLib/inc\xmc_usic.h **** #endif
 191:C:/Workspaces/DAVE-4.4.2-64Bit/RoverX/Libraries/XMCLib/inc\xmc_usic.h **** 
 192:C:/Workspaces/DAVE-4.4.2-64Bit/RoverX/Libraries/XMCLib/inc\xmc_usic.h **** /*******************************************************************************
 193:C:/Workspaces/DAVE-4.4.2-64Bit/RoverX/Libraries/XMCLib/inc\xmc_usic.h ****  * ENUMS
 194:C:/Workspaces/DAVE-4.4.2-64Bit/RoverX/Libraries/XMCLib/inc\xmc_usic.h ****  *******************************************************************************/
 195:C:/Workspaces/DAVE-4.4.2-64Bit/RoverX/Libraries/XMCLib/inc\xmc_usic.h **** 
 196:C:/Workspaces/DAVE-4.4.2-64Bit/RoverX/Libraries/XMCLib/inc\xmc_usic.h **** /**
 197:C:/Workspaces/DAVE-4.4.2-64Bit/RoverX/Libraries/XMCLib/inc\xmc_usic.h ****  * USIC channel driver status
 198:C:/Workspaces/DAVE-4.4.2-64Bit/RoverX/Libraries/XMCLib/inc\xmc_usic.h ****  */
 199:C:/Workspaces/DAVE-4.4.2-64Bit/RoverX/Libraries/XMCLib/inc\xmc_usic.h **** typedef enum XMC_USIC_CH_STATUS
 200:C:/Workspaces/DAVE-4.4.2-64Bit/RoverX/Libraries/XMCLib/inc\xmc_usic.h **** {
 201:C:/Workspaces/DAVE-4.4.2-64Bit/RoverX/Libraries/XMCLib/inc\xmc_usic.h ****   XMC_USIC_CH_STATUS_OK,    /**< USIC driver status : OK */
 202:C:/Workspaces/DAVE-4.4.2-64Bit/RoverX/Libraries/XMCLib/inc\xmc_usic.h ****   XMC_USIC_CH_STATUS_ERROR, /**< USIC driver status : ERROR */
 203:C:/Workspaces/DAVE-4.4.2-64Bit/RoverX/Libraries/XMCLib/inc\xmc_usic.h ****   XMC_USIC_CH_STATUS_BUSY   /**< USIC driver status : BUSY */
 204:C:/Workspaces/DAVE-4.4.2-64Bit/RoverX/Libraries/XMCLib/inc\xmc_usic.h **** } XMC_USIC_CH_STATUS_t;
 205:C:/Workspaces/DAVE-4.4.2-64Bit/RoverX/Libraries/XMCLib/inc\xmc_usic.h **** 
 206:C:/Workspaces/DAVE-4.4.2-64Bit/RoverX/Libraries/XMCLib/inc\xmc_usic.h **** /**
 207:C:/Workspaces/DAVE-4.4.2-64Bit/RoverX/Libraries/XMCLib/inc\xmc_usic.h **** * USIC channel kernel mode
 208:C:/Workspaces/DAVE-4.4.2-64Bit/RoverX/Libraries/XMCLib/inc\xmc_usic.h **** */
 209:C:/Workspaces/DAVE-4.4.2-64Bit/RoverX/Libraries/XMCLib/inc\xmc_usic.h **** typedef enum XMC_USIC_CH_KERNEL_MODE
 210:C:/Workspaces/DAVE-4.4.2-64Bit/RoverX/Libraries/XMCLib/inc\xmc_usic.h **** {
 211:C:/Workspaces/DAVE-4.4.2-64Bit/RoverX/Libraries/XMCLib/inc\xmc_usic.h ****   XMC_USIC_CH_KERNEL_MODE_RUN_0  = 0x0UL,  /**< Run mode 0 (transmission and reception possible)*/
 212:C:/Workspaces/DAVE-4.4.2-64Bit/RoverX/Libraries/XMCLib/inc\xmc_usic.h ****   XMC_USIC_CH_KERNEL_MODE_RUN_1  = 0x1UL << USIC_CH_KSCFG_NOMCFG_Pos,  /**< Run mode 1 (transmissio
 213:C:/Workspaces/DAVE-4.4.2-64Bit/RoverX/Libraries/XMCLib/inc\xmc_usic.h ****   XMC_USIC_CH_KERNEL_MODE_STOP_0 = 0x2UL << USIC_CH_KSCFG_NOMCFG_Pos,  /**< Stop mode 0 (no transmi
 214:C:/Workspaces/DAVE-4.4.2-64Bit/RoverX/Libraries/XMCLib/inc\xmc_usic.h ****   XMC_USIC_CH_KERNEL_MODE_STOP_1 = 0x3UL << USIC_CH_KSCFG_NOMCFG_Pos   /**< Stop mode 1 (both trans
 215:C:/Workspaces/DAVE-4.4.2-64Bit/RoverX/Libraries/XMCLib/inc\xmc_usic.h **** } XMC_USIC_CH_KERNEL_MODE_t;
 216:C:/Workspaces/DAVE-4.4.2-64Bit/RoverX/Libraries/XMCLib/inc\xmc_usic.h **** 
 217:C:/Workspaces/DAVE-4.4.2-64Bit/RoverX/Libraries/XMCLib/inc\xmc_usic.h **** /**
 218:C:/Workspaces/DAVE-4.4.2-64Bit/RoverX/Libraries/XMCLib/inc\xmc_usic.h ****  * USIC channel operating mode
 219:C:/Workspaces/DAVE-4.4.2-64Bit/RoverX/Libraries/XMCLib/inc\xmc_usic.h ****  */
 220:C:/Workspaces/DAVE-4.4.2-64Bit/RoverX/Libraries/XMCLib/inc\xmc_usic.h **** typedef enum XMC_USIC_CH_OPERATING_MODE
 221:C:/Workspaces/DAVE-4.4.2-64Bit/RoverX/Libraries/XMCLib/inc\xmc_usic.h **** {
 222:C:/Workspaces/DAVE-4.4.2-64Bit/RoverX/Libraries/XMCLib/inc\xmc_usic.h ****   XMC_USIC_CH_OPERATING_MODE_IDLE = 0x0UL, /**< USIC channel idle */
 223:C:/Workspaces/DAVE-4.4.2-64Bit/RoverX/Libraries/XMCLib/inc\xmc_usic.h ****   XMC_USIC_CH_OPERATING_MODE_SPI  = 0x1UL << USIC_CH_CCR_MODE_Pos, /**< SPI mode */
 224:C:/Workspaces/DAVE-4.4.2-64Bit/RoverX/Libraries/XMCLib/inc\xmc_usic.h ****   XMC_USIC_CH_OPERATING_MODE_UART = 0x2UL << USIC_CH_CCR_MODE_Pos, /**< UART mode */
 225:C:/Workspaces/DAVE-4.4.2-64Bit/RoverX/Libraries/XMCLib/inc\xmc_usic.h ****   XMC_USIC_CH_OPERATING_MODE_I2S  = 0x3UL << USIC_CH_CCR_MODE_Pos, /**< I2S mode */
 226:C:/Workspaces/DAVE-4.4.2-64Bit/RoverX/Libraries/XMCLib/inc\xmc_usic.h ****   XMC_USIC_CH_OPERATING_MODE_I2C  = 0x4UL << USIC_CH_CCR_MODE_Pos  /**< I2C mode */
 227:C:/Workspaces/DAVE-4.4.2-64Bit/RoverX/Libraries/XMCLib/inc\xmc_usic.h **** } XMC_USIC_CH_OPERATING_MODE_t;
 228:C:/Workspaces/DAVE-4.4.2-64Bit/RoverX/Libraries/XMCLib/inc\xmc_usic.h **** 
 229:C:/Workspaces/DAVE-4.4.2-64Bit/RoverX/Libraries/XMCLib/inc\xmc_usic.h **** /**
 230:C:/Workspaces/DAVE-4.4.2-64Bit/RoverX/Libraries/XMCLib/inc\xmc_usic.h ****  * USIC channel inputs
 231:C:/Workspaces/DAVE-4.4.2-64Bit/RoverX/Libraries/XMCLib/inc\xmc_usic.h ****  */
 232:C:/Workspaces/DAVE-4.4.2-64Bit/RoverX/Libraries/XMCLib/inc\xmc_usic.h **** typedef enum XMC_USIC_CH_INPUT
 233:C:/Workspaces/DAVE-4.4.2-64Bit/RoverX/Libraries/XMCLib/inc\xmc_usic.h **** {
 234:C:/Workspaces/DAVE-4.4.2-64Bit/RoverX/Libraries/XMCLib/inc\xmc_usic.h ****   XMC_USIC_CH_INPUT_DX0, /**< DX0 input */
 235:C:/Workspaces/DAVE-4.4.2-64Bit/RoverX/Libraries/XMCLib/inc\xmc_usic.h ****   XMC_USIC_CH_INPUT_DX1, /**< DX1 input */
 236:C:/Workspaces/DAVE-4.4.2-64Bit/RoverX/Libraries/XMCLib/inc\xmc_usic.h ****   XMC_USIC_CH_INPUT_DX2, /**< DX2 input */
 237:C:/Workspaces/DAVE-4.4.2-64Bit/RoverX/Libraries/XMCLib/inc\xmc_usic.h ****   XMC_USIC_CH_INPUT_DX3, /**< DX3 input */
 238:C:/Workspaces/DAVE-4.4.2-64Bit/RoverX/Libraries/XMCLib/inc\xmc_usic.h ****   XMC_USIC_CH_INPUT_DX4, /**< DX4 input */
 239:C:/Workspaces/DAVE-4.4.2-64Bit/RoverX/Libraries/XMCLib/inc\xmc_usic.h ****   XMC_USIC_CH_INPUT_DX5  /**< DX5 input */
 240:C:/Workspaces/DAVE-4.4.2-64Bit/RoverX/Libraries/XMCLib/inc\xmc_usic.h **** } XMC_USIC_CH_INPUT_t;
 241:C:/Workspaces/DAVE-4.4.2-64Bit/RoverX/Libraries/XMCLib/inc\xmc_usic.h **** 
 242:C:/Workspaces/DAVE-4.4.2-64Bit/RoverX/Libraries/XMCLib/inc\xmc_usic.h **** /**
 243:C:/Workspaces/DAVE-4.4.2-64Bit/RoverX/Libraries/XMCLib/inc\xmc_usic.h ****  * USIC channel input source sampling frequency
 244:C:/Workspaces/DAVE-4.4.2-64Bit/RoverX/Libraries/XMCLib/inc\xmc_usic.h ****  */
 245:C:/Workspaces/DAVE-4.4.2-64Bit/RoverX/Libraries/XMCLib/inc\xmc_usic.h **** typedef enum XMC_USIC_CH_INPUT_SAMPLING_FREQ
 246:C:/Workspaces/DAVE-4.4.2-64Bit/RoverX/Libraries/XMCLib/inc\xmc_usic.h **** {
 247:C:/Workspaces/DAVE-4.4.2-64Bit/RoverX/Libraries/XMCLib/inc\xmc_usic.h ****   XMC_USIC_CH_INPUT_SAMPLING_FREQ_FPERIPH            = 0x0UL, /**< Use fperiph frequency for input 
 248:C:/Workspaces/DAVE-4.4.2-64Bit/RoverX/Libraries/XMCLib/inc\xmc_usic.h ****   XMC_USIC_CH_INPUT_SAMPLING_FREQ_FRACTIONAL_DIVIDER = 0x1UL << USIC_CH_DXCR_SFSEL_Pos  /**< Use fF
 249:C:/Workspaces/DAVE-4.4.2-64Bit/RoverX/Libraries/XMCLib/inc\xmc_usic.h **** } XMC_USIC_CH_INPUT_SAMPLING_FREQ_t;
 250:C:/Workspaces/DAVE-4.4.2-64Bit/RoverX/Libraries/XMCLib/inc\xmc_usic.h **** 
 251:C:/Workspaces/DAVE-4.4.2-64Bit/RoverX/Libraries/XMCLib/inc\xmc_usic.h **** /**
 252:C:/Workspaces/DAVE-4.4.2-64Bit/RoverX/Libraries/XMCLib/inc\xmc_usic.h ****  * USIC channel input combination mode
 253:C:/Workspaces/DAVE-4.4.2-64Bit/RoverX/Libraries/XMCLib/inc\xmc_usic.h ****  */
 254:C:/Workspaces/DAVE-4.4.2-64Bit/RoverX/Libraries/XMCLib/inc\xmc_usic.h **** typedef enum XMC_USIC_CH_INPUT_COMBINATION_MODE
 255:C:/Workspaces/DAVE-4.4.2-64Bit/RoverX/Libraries/XMCLib/inc\xmc_usic.h **** {
 256:C:/Workspaces/DAVE-4.4.2-64Bit/RoverX/Libraries/XMCLib/inc\xmc_usic.h ****   XMC_USIC_CH_INPUT_COMBINATION_MODE_TRIGGER_DISABLED = 0x0UL, /**< The trigger activation is disab
 257:C:/Workspaces/DAVE-4.4.2-64Bit/RoverX/Libraries/XMCLib/inc\xmc_usic.h ****   XMC_USIC_CH_INPUT_COMBINATION_MODE_RISING_EDGE      = 0x1UL, /**< A rising edge activates DXnT*/
 258:C:/Workspaces/DAVE-4.4.2-64Bit/RoverX/Libraries/XMCLib/inc\xmc_usic.h ****   XMC_USIC_CH_INPUT_COMBINATION_MODE_FALLING_EDGE     = 0x2UL, /**< A falling edge activates DXnT*/
 259:C:/Workspaces/DAVE-4.4.2-64Bit/RoverX/Libraries/XMCLib/inc\xmc_usic.h ****   XMC_USIC_CH_INPUT_COMBINATION_MODE_BOTH_EDGES       = 0x3UL, /**< Both edges activate DXnT*/
 260:C:/Workspaces/DAVE-4.4.2-64Bit/RoverX/Libraries/XMCLib/inc\xmc_usic.h **** } XMC_USIC_CH_INPUT_COMBINATION_MODE_t;
 261:C:/Workspaces/DAVE-4.4.2-64Bit/RoverX/Libraries/XMCLib/inc\xmc_usic.h **** 
 262:C:/Workspaces/DAVE-4.4.2-64Bit/RoverX/Libraries/XMCLib/inc\xmc_usic.h **** /**
 263:C:/Workspaces/DAVE-4.4.2-64Bit/RoverX/Libraries/XMCLib/inc\xmc_usic.h ****  * USIC channel data transmission start modes.
 264:C:/Workspaces/DAVE-4.4.2-64Bit/RoverX/Libraries/XMCLib/inc\xmc_usic.h ****  * Data shifted out of the transmit pin depends on the value configured for the
 265:C:/Workspaces/DAVE-4.4.2-64Bit/RoverX/Libraries/XMCLib/inc\xmc_usic.h ****  * TDEN bitfield of the TCSR register. Following enum values are used for configuring
 266:C:/Workspaces/DAVE-4.4.2-64Bit/RoverX/Libraries/XMCLib/inc\xmc_usic.h ****  * the TCSR->TDEN bitfield.
 267:C:/Workspaces/DAVE-4.4.2-64Bit/RoverX/Libraries/XMCLib/inc\xmc_usic.h ****  */
 268:C:/Workspaces/DAVE-4.4.2-64Bit/RoverX/Libraries/XMCLib/inc\xmc_usic.h **** typedef enum XMC_USIC_CH_START_TRANSMISION_MODE
 269:C:/Workspaces/DAVE-4.4.2-64Bit/RoverX/Libraries/XMCLib/inc\xmc_usic.h **** {
 270:C:/Workspaces/DAVE-4.4.2-64Bit/RoverX/Libraries/XMCLib/inc\xmc_usic.h ****   XMC_USIC_CH_START_TRANSMISION_DISABLED      = 0x0U, /**< Passive data level is sent out on transm
 271:C:/Workspaces/DAVE-4.4.2-64Bit/RoverX/Libraries/XMCLib/inc\xmc_usic.h ****   XMC_USIC_CH_START_TRANSMISION_ON_TDV        = 0x1UL << USIC_CH_TCSR_TDEN_Pos, /**< Transmission o
 272:C:/Workspaces/DAVE-4.4.2-64Bit/RoverX/Libraries/XMCLib/inc\xmc_usic.h ****   XMC_USIC_CH_START_TRANSMISION_ON_TDV_DX2S_0 = 0x2UL << USIC_CH_TCSR_TDEN_Pos, /**< Transmission o
 273:C:/Workspaces/DAVE-4.4.2-64Bit/RoverX/Libraries/XMCLib/inc\xmc_usic.h ****   XMC_USIC_CH_START_TRANSMISION_ON_TDV_DX2S_1 = 0x3UL << USIC_CH_TCSR_TDEN_Pos  /**< Transmission o
 274:C:/Workspaces/DAVE-4.4.2-64Bit/RoverX/Libraries/XMCLib/inc\xmc_usic.h **** } XMC_USIC_CH_START_TRANSMISION_MODE_t;
 275:C:/Workspaces/DAVE-4.4.2-64Bit/RoverX/Libraries/XMCLib/inc\xmc_usic.h **** 
 276:C:/Workspaces/DAVE-4.4.2-64Bit/RoverX/Libraries/XMCLib/inc\xmc_usic.h **** /**
 277:C:/Workspaces/DAVE-4.4.2-64Bit/RoverX/Libraries/XMCLib/inc\xmc_usic.h ****  * USIC channel interrupt node pointers
 278:C:/Workspaces/DAVE-4.4.2-64Bit/RoverX/Libraries/XMCLib/inc\xmc_usic.h ****  */
 279:C:/Workspaces/DAVE-4.4.2-64Bit/RoverX/Libraries/XMCLib/inc\xmc_usic.h **** typedef enum XMC_USIC_CH_INTERRUPT_NODE_POINTER
 280:C:/Workspaces/DAVE-4.4.2-64Bit/RoverX/Libraries/XMCLib/inc\xmc_usic.h **** {
 281:C:/Workspaces/DAVE-4.4.2-64Bit/RoverX/Libraries/XMCLib/inc\xmc_usic.h ****   XMC_USIC_CH_INTERRUPT_NODE_POINTER_TRANSMIT_SHIFT      = USIC_CH_INPR_TSINP_Pos, /**< Node pointe
 282:C:/Workspaces/DAVE-4.4.2-64Bit/RoverX/Libraries/XMCLib/inc\xmc_usic.h ****   XMC_USIC_CH_INTERRUPT_NODE_POINTER_TRANSMIT_BUFFER     = USIC_CH_INPR_TBINP_Pos, /**< Node pointe
 283:C:/Workspaces/DAVE-4.4.2-64Bit/RoverX/Libraries/XMCLib/inc\xmc_usic.h ****   XMC_USIC_CH_INTERRUPT_NODE_POINTER_RECEIVE             = USIC_CH_INPR_RINP_Pos,  /**< Node pointe
 284:C:/Workspaces/DAVE-4.4.2-64Bit/RoverX/Libraries/XMCLib/inc\xmc_usic.h ****   XMC_USIC_CH_INTERRUPT_NODE_POINTER_ALTERNATE_RECEIVE   = USIC_CH_INPR_AINP_Pos,  /**< Node pointe
 285:C:/Workspaces/DAVE-4.4.2-64Bit/RoverX/Libraries/XMCLib/inc\xmc_usic.h ****   XMC_USIC_CH_INTERRUPT_NODE_POINTER_PROTOCOL            = USIC_CH_INPR_PINP_Pos   /**< Node pointe
 286:C:/Workspaces/DAVE-4.4.2-64Bit/RoverX/Libraries/XMCLib/inc\xmc_usic.h **** } XMC_USIC_CH_INTERRUPT_NODE_POINTER_t;
 287:C:/Workspaces/DAVE-4.4.2-64Bit/RoverX/Libraries/XMCLib/inc\xmc_usic.h **** 
 288:C:/Workspaces/DAVE-4.4.2-64Bit/RoverX/Libraries/XMCLib/inc\xmc_usic.h **** /**
 289:C:/Workspaces/DAVE-4.4.2-64Bit/RoverX/Libraries/XMCLib/inc\xmc_usic.h ****  * USIC channel events
 290:C:/Workspaces/DAVE-4.4.2-64Bit/RoverX/Libraries/XMCLib/inc\xmc_usic.h ****  */
 291:C:/Workspaces/DAVE-4.4.2-64Bit/RoverX/Libraries/XMCLib/inc\xmc_usic.h **** typedef enum XMC_USIC_CH_EVENT
 292:C:/Workspaces/DAVE-4.4.2-64Bit/RoverX/Libraries/XMCLib/inc\xmc_usic.h **** {
 293:C:/Workspaces/DAVE-4.4.2-64Bit/RoverX/Libraries/XMCLib/inc\xmc_usic.h ****   XMC_USIC_CH_EVENT_RECEIVE_START       = USIC_CH_CCR_RSIEN_Msk, /**< Receive start event */
 294:C:/Workspaces/DAVE-4.4.2-64Bit/RoverX/Libraries/XMCLib/inc\xmc_usic.h ****   XMC_USIC_CH_EVENT_DATA_LOST           = USIC_CH_CCR_DLIEN_Msk, /**< Data lost event */
 295:C:/Workspaces/DAVE-4.4.2-64Bit/RoverX/Libraries/XMCLib/inc\xmc_usic.h ****   XMC_USIC_CH_EVENT_TRANSMIT_SHIFT      = USIC_CH_CCR_TSIEN_Msk, /**< Transmit shift event */
 296:C:/Workspaces/DAVE-4.4.2-64Bit/RoverX/Libraries/XMCLib/inc\xmc_usic.h ****   XMC_USIC_CH_EVENT_TRANSMIT_BUFFER     = USIC_CH_CCR_TBIEN_Msk, /**< Transmit buffer event */
 297:C:/Workspaces/DAVE-4.4.2-64Bit/RoverX/Libraries/XMCLib/inc\xmc_usic.h ****   XMC_USIC_CH_EVENT_STANDARD_RECEIVE    = USIC_CH_CCR_RIEN_Msk,  /**< Receive event */
 298:C:/Workspaces/DAVE-4.4.2-64Bit/RoverX/Libraries/XMCLib/inc\xmc_usic.h ****   XMC_USIC_CH_EVENT_ALTERNATIVE_RECEIVE = USIC_CH_CCR_AIEN_Msk,  /**< Alternate receive event */
 299:C:/Workspaces/DAVE-4.4.2-64Bit/RoverX/Libraries/XMCLib/inc\xmc_usic.h ****   XMC_USIC_CH_EVENT_BAUD_RATE_GENERATOR = USIC_CH_CCR_BRGIEN_Msk /**< Baudrate generator event */
 300:C:/Workspaces/DAVE-4.4.2-64Bit/RoverX/Libraries/XMCLib/inc\xmc_usic.h **** } XMC_USIC_CH_EVENT_t;
 301:C:/Workspaces/DAVE-4.4.2-64Bit/RoverX/Libraries/XMCLib/inc\xmc_usic.h **** 
 302:C:/Workspaces/DAVE-4.4.2-64Bit/RoverX/Libraries/XMCLib/inc\xmc_usic.h **** /**
 303:C:/Workspaces/DAVE-4.4.2-64Bit/RoverX/Libraries/XMCLib/inc\xmc_usic.h **** * USIC channel parity mode
 304:C:/Workspaces/DAVE-4.4.2-64Bit/RoverX/Libraries/XMCLib/inc\xmc_usic.h **** */
 305:C:/Workspaces/DAVE-4.4.2-64Bit/RoverX/Libraries/XMCLib/inc\xmc_usic.h **** typedef enum XMC_USIC_CH_PARITY_MODE
 306:C:/Workspaces/DAVE-4.4.2-64Bit/RoverX/Libraries/XMCLib/inc\xmc_usic.h **** {
 307:C:/Workspaces/DAVE-4.4.2-64Bit/RoverX/Libraries/XMCLib/inc\xmc_usic.h ****   XMC_USIC_CH_PARITY_MODE_NONE     = 0x0UL,  /**< Disable parity mode */
 308:C:/Workspaces/DAVE-4.4.2-64Bit/RoverX/Libraries/XMCLib/inc\xmc_usic.h ****   XMC_USIC_CH_PARITY_MODE_EVEN     = 0x2UL << USIC_CH_CCR_PM_Pos,  /**< Enable even parity mode */
 309:C:/Workspaces/DAVE-4.4.2-64Bit/RoverX/Libraries/XMCLib/inc\xmc_usic.h ****   XMC_USIC_CH_PARITY_MODE_ODD      = 0x3UL << USIC_CH_CCR_PM_Pos   /**< Enable odd parity mode */
 310:C:/Workspaces/DAVE-4.4.2-64Bit/RoverX/Libraries/XMCLib/inc\xmc_usic.h **** } XMC_USIC_CH_PARITY_MODE_t;
 311:C:/Workspaces/DAVE-4.4.2-64Bit/RoverX/Libraries/XMCLib/inc\xmc_usic.h **** 
 312:C:/Workspaces/DAVE-4.4.2-64Bit/RoverX/Libraries/XMCLib/inc\xmc_usic.h **** /**
 313:C:/Workspaces/DAVE-4.4.2-64Bit/RoverX/Libraries/XMCLib/inc\xmc_usic.h **** * USIC channel data output mode
 314:C:/Workspaces/DAVE-4.4.2-64Bit/RoverX/Libraries/XMCLib/inc\xmc_usic.h **** */
 315:C:/Workspaces/DAVE-4.4.2-64Bit/RoverX/Libraries/XMCLib/inc\xmc_usic.h **** typedef enum XMC_USIC_CH_DATA_OUTPUT_MODE
 316:C:/Workspaces/DAVE-4.4.2-64Bit/RoverX/Libraries/XMCLib/inc\xmc_usic.h **** {
 317:C:/Workspaces/DAVE-4.4.2-64Bit/RoverX/Libraries/XMCLib/inc\xmc_usic.h ****   XMC_USIC_CH_DATA_OUTPUT_MODE_NORMAL   = 0x0UL,  /**< Data output normal mode */
 318:C:/Workspaces/DAVE-4.4.2-64Bit/RoverX/Libraries/XMCLib/inc\xmc_usic.h ****   XMC_USIC_CH_DATA_OUTPUT_MODE_INVERTED = 0x1UL << USIC_CH_SCTR_DOCFG_Pos   /**< Data output invert
 319:C:/Workspaces/DAVE-4.4.2-64Bit/RoverX/Libraries/XMCLib/inc\xmc_usic.h **** } XMC_USIC_CH_DATA_OUTPUT_MODE_t;
 320:C:/Workspaces/DAVE-4.4.2-64Bit/RoverX/Libraries/XMCLib/inc\xmc_usic.h **** 
 321:C:/Workspaces/DAVE-4.4.2-64Bit/RoverX/Libraries/XMCLib/inc\xmc_usic.h **** /**
 322:C:/Workspaces/DAVE-4.4.2-64Bit/RoverX/Libraries/XMCLib/inc\xmc_usic.h **** * USIC channel data transmit buffer status
 323:C:/Workspaces/DAVE-4.4.2-64Bit/RoverX/Libraries/XMCLib/inc\xmc_usic.h **** */
 324:C:/Workspaces/DAVE-4.4.2-64Bit/RoverX/Libraries/XMCLib/inc\xmc_usic.h **** typedef enum XMC_USIC_CH_TBUF_STATUS
 325:C:/Workspaces/DAVE-4.4.2-64Bit/RoverX/Libraries/XMCLib/inc\xmc_usic.h **** {
 326:C:/Workspaces/DAVE-4.4.2-64Bit/RoverX/Libraries/XMCLib/inc\xmc_usic.h ****   XMC_USIC_CH_TBUF_STATUS_IDLE = 0x0UL,                 /**< Transfer buffer is currently idle*/
 327:C:/Workspaces/DAVE-4.4.2-64Bit/RoverX/Libraries/XMCLib/inc\xmc_usic.h ****   XMC_USIC_CH_TBUF_STATUS_BUSY = USIC_CH_TCSR_TDV_Msk   /**< Transfer buffer is currently busy*/
 328:C:/Workspaces/DAVE-4.4.2-64Bit/RoverX/Libraries/XMCLib/inc\xmc_usic.h **** } XMC_USIC_CH_TBUF_STATUS_t;
 329:C:/Workspaces/DAVE-4.4.2-64Bit/RoverX/Libraries/XMCLib/inc\xmc_usic.h **** 
 330:C:/Workspaces/DAVE-4.4.2-64Bit/RoverX/Libraries/XMCLib/inc\xmc_usic.h **** 
 331:C:/Workspaces/DAVE-4.4.2-64Bit/RoverX/Libraries/XMCLib/inc\xmc_usic.h **** 
 332:C:/Workspaces/DAVE-4.4.2-64Bit/RoverX/Libraries/XMCLib/inc\xmc_usic.h **** /**
 333:C:/Workspaces/DAVE-4.4.2-64Bit/RoverX/Libraries/XMCLib/inc\xmc_usic.h **** * USIC channel data transmit buffer status modification
 334:C:/Workspaces/DAVE-4.4.2-64Bit/RoverX/Libraries/XMCLib/inc\xmc_usic.h **** */
 335:C:/Workspaces/DAVE-4.4.2-64Bit/RoverX/Libraries/XMCLib/inc\xmc_usic.h **** typedef enum XMC_USIC_CH_TBUF_STATUS_SET
 336:C:/Workspaces/DAVE-4.4.2-64Bit/RoverX/Libraries/XMCLib/inc\xmc_usic.h **** {
 337:C:/Workspaces/DAVE-4.4.2-64Bit/RoverX/Libraries/XMCLib/inc\xmc_usic.h ****   XMC_USIC_CH_TBUF_STATUS_SET_BUSY   = 0x1UL, /**< Set Transfer buffer status to busy*/
 338:C:/Workspaces/DAVE-4.4.2-64Bit/RoverX/Libraries/XMCLib/inc\xmc_usic.h ****   XMC_USIC_CH_TBUF_STATUS_SET_IDLE   = 0x2UL  /**< Set Transfer buffer status to idle*/
 339:C:/Workspaces/DAVE-4.4.2-64Bit/RoverX/Libraries/XMCLib/inc\xmc_usic.h **** } XMC_USIC_CH_TBUF_STATUS_SET_t;
 340:C:/Workspaces/DAVE-4.4.2-64Bit/RoverX/Libraries/XMCLib/inc\xmc_usic.h **** 
 341:C:/Workspaces/DAVE-4.4.2-64Bit/RoverX/Libraries/XMCLib/inc\xmc_usic.h **** /**
 342:C:/Workspaces/DAVE-4.4.2-64Bit/RoverX/Libraries/XMCLib/inc\xmc_usic.h **** * USIC channel receive buffer status
 343:C:/Workspaces/DAVE-4.4.2-64Bit/RoverX/Libraries/XMCLib/inc\xmc_usic.h **** */
 344:C:/Workspaces/DAVE-4.4.2-64Bit/RoverX/Libraries/XMCLib/inc\xmc_usic.h **** typedef enum XMC_USIC_CH_RBUF_STATUS
 345:C:/Workspaces/DAVE-4.4.2-64Bit/RoverX/Libraries/XMCLib/inc\xmc_usic.h **** {
 346:C:/Workspaces/DAVE-4.4.2-64Bit/RoverX/Libraries/XMCLib/inc\xmc_usic.h ****   XMC_USIC_CH_RBUF_STATUS_DATA_VALID0 = USIC_CH_RBUFSR_RDV0_Msk, /**< RBUF0 data has not yet been r
 347:C:/Workspaces/DAVE-4.4.2-64Bit/RoverX/Libraries/XMCLib/inc\xmc_usic.h ****   XMC_USIC_CH_RBUF_STATUS_DATA_VALID1 = USIC_CH_RBUFSR_RDV1_Msk  /**< RBUF1 data has not yet been r
 348:C:/Workspaces/DAVE-4.4.2-64Bit/RoverX/Libraries/XMCLib/inc\xmc_usic.h **** } XMC_USIC_CH_RBUF_STATUS_t;
 349:C:/Workspaces/DAVE-4.4.2-64Bit/RoverX/Libraries/XMCLib/inc\xmc_usic.h **** 
 350:C:/Workspaces/DAVE-4.4.2-64Bit/RoverX/Libraries/XMCLib/inc\xmc_usic.h **** /**
 351:C:/Workspaces/DAVE-4.4.2-64Bit/RoverX/Libraries/XMCLib/inc\xmc_usic.h ****  * USIC channel output signal passive data level
 352:C:/Workspaces/DAVE-4.4.2-64Bit/RoverX/Libraries/XMCLib/inc\xmc_usic.h **** */
 353:C:/Workspaces/DAVE-4.4.2-64Bit/RoverX/Libraries/XMCLib/inc\xmc_usic.h **** typedef enum XMC_USCI_CH_PASSIVE_DATA_LEVEL
 354:C:/Workspaces/DAVE-4.4.2-64Bit/RoverX/Libraries/XMCLib/inc\xmc_usic.h **** {
 355:C:/Workspaces/DAVE-4.4.2-64Bit/RoverX/Libraries/XMCLib/inc\xmc_usic.h ****   XMC_USIC_CH_PASSIVE_DATA_LEVEL0 = 0x0UL, /**< Passive level(idle mode signal level) 0 */
 356:C:/Workspaces/DAVE-4.4.2-64Bit/RoverX/Libraries/XMCLib/inc\xmc_usic.h ****   XMC_USIC_CH_PASSIVE_DATA_LEVEL1 = 0x1UL << USIC_CH_SCTR_PDL_Pos  /**< Passive level(idle mode sig
 357:C:/Workspaces/DAVE-4.4.2-64Bit/RoverX/Libraries/XMCLib/inc\xmc_usic.h **** } XMC_USIC_CH_PASSIVE_DATA_LEVEL_t;
 358:C:/Workspaces/DAVE-4.4.2-64Bit/RoverX/Libraries/XMCLib/inc\xmc_usic.h **** 
 359:C:/Workspaces/DAVE-4.4.2-64Bit/RoverX/Libraries/XMCLib/inc\xmc_usic.h **** /**
 360:C:/Workspaces/DAVE-4.4.2-64Bit/RoverX/Libraries/XMCLib/inc\xmc_usic.h **** * USIC channel receive FIFO size
 361:C:/Workspaces/DAVE-4.4.2-64Bit/RoverX/Libraries/XMCLib/inc\xmc_usic.h **** */
 362:C:/Workspaces/DAVE-4.4.2-64Bit/RoverX/Libraries/XMCLib/inc\xmc_usic.h **** typedef enum XMC_USIC_CH_FIFO_SIZE
 363:C:/Workspaces/DAVE-4.4.2-64Bit/RoverX/Libraries/XMCLib/inc\xmc_usic.h **** {
 364:C:/Workspaces/DAVE-4.4.2-64Bit/RoverX/Libraries/XMCLib/inc\xmc_usic.h ****   XMC_USIC_CH_FIFO_DISABLED     = 0x0U,  /**< FIFO Disabled */
 365:C:/Workspaces/DAVE-4.4.2-64Bit/RoverX/Libraries/XMCLib/inc\xmc_usic.h ****   XMC_USIC_CH_FIFO_SIZE_2WORDS  = 0x1U,  /**< FIFO size: 2 words */
 366:C:/Workspaces/DAVE-4.4.2-64Bit/RoverX/Libraries/XMCLib/inc\xmc_usic.h ****   XMC_USIC_CH_FIFO_SIZE_4WORDS  = 0x2U,  /**< FIFO size: 4 words */
 367:C:/Workspaces/DAVE-4.4.2-64Bit/RoverX/Libraries/XMCLib/inc\xmc_usic.h ****   XMC_USIC_CH_FIFO_SIZE_8WORDS  = 0x3U,  /**< FIFO size: 8 words */
 368:C:/Workspaces/DAVE-4.4.2-64Bit/RoverX/Libraries/XMCLib/inc\xmc_usic.h ****   XMC_USIC_CH_FIFO_SIZE_16WORDS = 0x4U,  /**< FIFO size: 16 words */
 369:C:/Workspaces/DAVE-4.4.2-64Bit/RoverX/Libraries/XMCLib/inc\xmc_usic.h ****   XMC_USIC_CH_FIFO_SIZE_32WORDS = 0x5U,  /**< FIFO size: 32 words */
 370:C:/Workspaces/DAVE-4.4.2-64Bit/RoverX/Libraries/XMCLib/inc\xmc_usic.h ****   XMC_USIC_CH_FIFO_SIZE_64WORDS = 0x6U   /**< FIFO size: 64 words */
 371:C:/Workspaces/DAVE-4.4.2-64Bit/RoverX/Libraries/XMCLib/inc\xmc_usic.h **** } XMC_USIC_CH_FIFO_SIZE_t;
 372:C:/Workspaces/DAVE-4.4.2-64Bit/RoverX/Libraries/XMCLib/inc\xmc_usic.h **** 
 373:C:/Workspaces/DAVE-4.4.2-64Bit/RoverX/Libraries/XMCLib/inc\xmc_usic.h **** /**
 374:C:/Workspaces/DAVE-4.4.2-64Bit/RoverX/Libraries/XMCLib/inc\xmc_usic.h **** * USIC channel transmit FIFO interrupt node pointers
 375:C:/Workspaces/DAVE-4.4.2-64Bit/RoverX/Libraries/XMCLib/inc\xmc_usic.h **** */
 376:C:/Workspaces/DAVE-4.4.2-64Bit/RoverX/Libraries/XMCLib/inc\xmc_usic.h **** typedef enum XMC_USIC_CH_TXFIFO_INTERRUPT_NODE_POINTER
 377:C:/Workspaces/DAVE-4.4.2-64Bit/RoverX/Libraries/XMCLib/inc\xmc_usic.h **** {
 378:C:/Workspaces/DAVE-4.4.2-64Bit/RoverX/Libraries/XMCLib/inc\xmc_usic.h ****   XMC_USIC_CH_TXFIFO_INTERRUPT_NODE_POINTER_STANDARD  = USIC_CH_TBCTR_STBINP_Pos,  /**< Node pointe
 379:C:/Workspaces/DAVE-4.4.2-64Bit/RoverX/Libraries/XMCLib/inc\xmc_usic.h ****   XMC_USIC_CH_TXFIFO_INTERRUPT_NODE_POINTER_ALTERNATE = USIC_CH_TBCTR_ATBINP_Pos   /**< Node pointe
 380:C:/Workspaces/DAVE-4.4.2-64Bit/RoverX/Libraries/XMCLib/inc\xmc_usic.h **** } XMC_USIC_CH_TXFIFO_INTERRUPT_NODE_POINTER_t;
 381:C:/Workspaces/DAVE-4.4.2-64Bit/RoverX/Libraries/XMCLib/inc\xmc_usic.h **** 
 382:C:/Workspaces/DAVE-4.4.2-64Bit/RoverX/Libraries/XMCLib/inc\xmc_usic.h **** /**
 383:C:/Workspaces/DAVE-4.4.2-64Bit/RoverX/Libraries/XMCLib/inc\xmc_usic.h **** * USIC channel transmit FIFO event configuration
 384:C:/Workspaces/DAVE-4.4.2-64Bit/RoverX/Libraries/XMCLib/inc\xmc_usic.h **** */
 385:C:/Workspaces/DAVE-4.4.2-64Bit/RoverX/Libraries/XMCLib/inc\xmc_usic.h **** typedef enum XMC_USIC_CH_TXFIFO_EVENT_CONF
 386:C:/Workspaces/DAVE-4.4.2-64Bit/RoverX/Libraries/XMCLib/inc\xmc_usic.h **** {
 387:C:/Workspaces/DAVE-4.4.2-64Bit/RoverX/Libraries/XMCLib/inc\xmc_usic.h ****   XMC_USIC_CH_TXFIFO_EVENT_CONF_STANDARD  = USIC_CH_TBCTR_STBIEN_Msk,   /**< Enable FIFO standard t
 388:C:/Workspaces/DAVE-4.4.2-64Bit/RoverX/Libraries/XMCLib/inc\xmc_usic.h ****   XMC_USIC_CH_TXFIFO_EVENT_CONF_ERROR     = (int32_t)USIC_CH_TBCTR_TBERIEN_Msk  /**< Enable transmi
 389:C:/Workspaces/DAVE-4.4.2-64Bit/RoverX/Libraries/XMCLib/inc\xmc_usic.h **** } XMC_USIC_CH_TXFIFO_EVENT_CONF_t;
 390:C:/Workspaces/DAVE-4.4.2-64Bit/RoverX/Libraries/XMCLib/inc\xmc_usic.h **** 
 391:C:/Workspaces/DAVE-4.4.2-64Bit/RoverX/Libraries/XMCLib/inc\xmc_usic.h **** /**
 392:C:/Workspaces/DAVE-4.4.2-64Bit/RoverX/Libraries/XMCLib/inc\xmc_usic.h **** * USIC channel transmit FIFO status
 393:C:/Workspaces/DAVE-4.4.2-64Bit/RoverX/Libraries/XMCLib/inc\xmc_usic.h **** */
 394:C:/Workspaces/DAVE-4.4.2-64Bit/RoverX/Libraries/XMCLib/inc\xmc_usic.h **** typedef enum XMC_USIC_CH_TXFIFO_EVENT
 395:C:/Workspaces/DAVE-4.4.2-64Bit/RoverX/Libraries/XMCLib/inc\xmc_usic.h **** {
 396:C:/Workspaces/DAVE-4.4.2-64Bit/RoverX/Libraries/XMCLib/inc\xmc_usic.h ****   XMC_USIC_CH_TXFIFO_EVENT_STANDARD = USIC_CH_TRBSR_STBI_Msk,    /**< Transmit FIFO status: Standar
 397:C:/Workspaces/DAVE-4.4.2-64Bit/RoverX/Libraries/XMCLib/inc\xmc_usic.h ****   XMC_USIC_CH_TXFIFO_EVENT_ERROR    = USIC_CH_TRBSR_TBERI_Msk    /**< Transmit FIFO status: Error e
 398:C:/Workspaces/DAVE-4.4.2-64Bit/RoverX/Libraries/XMCLib/inc\xmc_usic.h **** } XMC_USIC_CH_TXFIFO_EVENT_t;
 399:C:/Workspaces/DAVE-4.4.2-64Bit/RoverX/Libraries/XMCLib/inc\xmc_usic.h **** 
 400:C:/Workspaces/DAVE-4.4.2-64Bit/RoverX/Libraries/XMCLib/inc\xmc_usic.h **** /**
 401:C:/Workspaces/DAVE-4.4.2-64Bit/RoverX/Libraries/XMCLib/inc\xmc_usic.h **** * USIC channel receive FIFO interrupt node pointers
 402:C:/Workspaces/DAVE-4.4.2-64Bit/RoverX/Libraries/XMCLib/inc\xmc_usic.h **** */
 403:C:/Workspaces/DAVE-4.4.2-64Bit/RoverX/Libraries/XMCLib/inc\xmc_usic.h **** typedef enum XMC_USIC_CH_RXFIFO_INTERRUPT_NODE_POINTER
 404:C:/Workspaces/DAVE-4.4.2-64Bit/RoverX/Libraries/XMCLib/inc\xmc_usic.h **** {
 405:C:/Workspaces/DAVE-4.4.2-64Bit/RoverX/Libraries/XMCLib/inc\xmc_usic.h ****   XMC_USIC_CH_RXFIFO_INTERRUPT_NODE_POINTER_STANDARD  = USIC_CH_RBCTR_SRBINP_Pos, /**< Node pointer
 406:C:/Workspaces/DAVE-4.4.2-64Bit/RoverX/Libraries/XMCLib/inc\xmc_usic.h ****   XMC_USIC_CH_RXFIFO_INTERRUPT_NODE_POINTER_ALTERNATE = USIC_CH_RBCTR_ARBINP_Pos  /**< Node pointer
 407:C:/Workspaces/DAVE-4.4.2-64Bit/RoverX/Libraries/XMCLib/inc\xmc_usic.h **** } XMC_USIC_CH_RXFIFO_INTERRUPT_NODE_POINTER_t;
 408:C:/Workspaces/DAVE-4.4.2-64Bit/RoverX/Libraries/XMCLib/inc\xmc_usic.h **** 
 409:C:/Workspaces/DAVE-4.4.2-64Bit/RoverX/Libraries/XMCLib/inc\xmc_usic.h **** /**
 410:C:/Workspaces/DAVE-4.4.2-64Bit/RoverX/Libraries/XMCLib/inc\xmc_usic.h **** * USIC channel receive FIFO event configuration
 411:C:/Workspaces/DAVE-4.4.2-64Bit/RoverX/Libraries/XMCLib/inc\xmc_usic.h **** */
 412:C:/Workspaces/DAVE-4.4.2-64Bit/RoverX/Libraries/XMCLib/inc\xmc_usic.h **** typedef enum XMC_USIC_CH_RXFIFO_EVENT_CONF
 413:C:/Workspaces/DAVE-4.4.2-64Bit/RoverX/Libraries/XMCLib/inc\xmc_usic.h **** {
 414:C:/Workspaces/DAVE-4.4.2-64Bit/RoverX/Libraries/XMCLib/inc\xmc_usic.h ****   XMC_USIC_CH_RXFIFO_EVENT_CONF_STANDARD  = USIC_CH_RBCTR_SRBIEN_Msk,   /**< Enable FIFO standard r
 415:C:/Workspaces/DAVE-4.4.2-64Bit/RoverX/Libraries/XMCLib/inc\xmc_usic.h ****   XMC_USIC_CH_RXFIFO_EVENT_CONF_ERROR     = (int32_t)USIC_CH_RBCTR_RBERIEN_Msk,  /**< Enable receiv
 416:C:/Workspaces/DAVE-4.4.2-64Bit/RoverX/Libraries/XMCLib/inc\xmc_usic.h ****   XMC_USIC_CH_RXFIFO_EVENT_CONF_ALTERNATE = USIC_CH_RBCTR_ARBIEN_Msk   /**< Enable FIFO alternative
 417:C:/Workspaces/DAVE-4.4.2-64Bit/RoverX/Libraries/XMCLib/inc\xmc_usic.h **** } XMC_USIC_CH_RXFIFO_EVENT_CONF_t;
 418:C:/Workspaces/DAVE-4.4.2-64Bit/RoverX/Libraries/XMCLib/inc\xmc_usic.h **** 
 419:C:/Workspaces/DAVE-4.4.2-64Bit/RoverX/Libraries/XMCLib/inc\xmc_usic.h **** /**
 420:C:/Workspaces/DAVE-4.4.2-64Bit/RoverX/Libraries/XMCLib/inc\xmc_usic.h **** * USIC channel receive FIFO status
 421:C:/Workspaces/DAVE-4.4.2-64Bit/RoverX/Libraries/XMCLib/inc\xmc_usic.h **** */
 422:C:/Workspaces/DAVE-4.4.2-64Bit/RoverX/Libraries/XMCLib/inc\xmc_usic.h **** typedef enum XMC_USIC_CH_RXFIFO_EVENT
 423:C:/Workspaces/DAVE-4.4.2-64Bit/RoverX/Libraries/XMCLib/inc\xmc_usic.h **** {
 424:C:/Workspaces/DAVE-4.4.2-64Bit/RoverX/Libraries/XMCLib/inc\xmc_usic.h ****   XMC_USIC_CH_RXFIFO_EVENT_STANDARD  = USIC_CH_TRBSR_SRBI_Msk,   /**< Receive FIFO status: Standard
 425:C:/Workspaces/DAVE-4.4.2-64Bit/RoverX/Libraries/XMCLib/inc\xmc_usic.h ****   XMC_USIC_CH_RXFIFO_EVENT_ERROR     = USIC_CH_TRBSR_RBERI_Msk,  /**< Receive FIFO status: Error ev
 426:C:/Workspaces/DAVE-4.4.2-64Bit/RoverX/Libraries/XMCLib/inc\xmc_usic.h ****   XMC_USIC_CH_RXFIFO_EVENT_ALTERNATE = USIC_CH_TRBSR_ARBI_Msk    /**< Receive FIFO status: Alternat
 427:C:/Workspaces/DAVE-4.4.2-64Bit/RoverX/Libraries/XMCLib/inc\xmc_usic.h **** } XMC_USIC_CH_RXFIFO_EVENT_t;
 428:C:/Workspaces/DAVE-4.4.2-64Bit/RoverX/Libraries/XMCLib/inc\xmc_usic.h **** 
 429:C:/Workspaces/DAVE-4.4.2-64Bit/RoverX/Libraries/XMCLib/inc\xmc_usic.h **** /**
 430:C:/Workspaces/DAVE-4.4.2-64Bit/RoverX/Libraries/XMCLib/inc\xmc_usic.h **** * USIC channel baudrate generator clock source
 431:C:/Workspaces/DAVE-4.4.2-64Bit/RoverX/Libraries/XMCLib/inc\xmc_usic.h **** */
 432:C:/Workspaces/DAVE-4.4.2-64Bit/RoverX/Libraries/XMCLib/inc\xmc_usic.h **** typedef enum XMC_USIC_CH_BRG_CLOCK_SOURCE
 433:C:/Workspaces/DAVE-4.4.2-64Bit/RoverX/Libraries/XMCLib/inc\xmc_usic.h **** {
 434:C:/Workspaces/DAVE-4.4.2-64Bit/RoverX/Libraries/XMCLib/inc\xmc_usic.h ****   XMC_USIC_CH_BRG_CLOCK_SOURCE_DIVIDER = 0x0UL, /**< Baudrate generator clock source : Source divid
 435:C:/Workspaces/DAVE-4.4.2-64Bit/RoverX/Libraries/XMCLib/inc\xmc_usic.h ****   XMC_USIC_CH_BRG_CLOCK_SOURCE_DX1T    = 0x2UL << USIC_CH_BRG_CLKSEL_Pos,  /**< Baudrate generator 
 436:C:/Workspaces/DAVE-4.4.2-64Bit/RoverX/Libraries/XMCLib/inc\xmc_usic.h ****   XMC_USIC_CH_BRG_CLOCK_SOURCE_DX1S    = 0x3UL << USIC_CH_BRG_CLKSEL_Pos  /**< Baudrate generator c
 437:C:/Workspaces/DAVE-4.4.2-64Bit/RoverX/Libraries/XMCLib/inc\xmc_usic.h **** } XMC_USIC_CH_BRG_CLOCK_SOURCE_t;
 438:C:/Workspaces/DAVE-4.4.2-64Bit/RoverX/Libraries/XMCLib/inc\xmc_usic.h **** 
 439:C:/Workspaces/DAVE-4.4.2-64Bit/RoverX/Libraries/XMCLib/inc\xmc_usic.h **** /**
 440:C:/Workspaces/DAVE-4.4.2-64Bit/RoverX/Libraries/XMCLib/inc\xmc_usic.h **** * USIC channel input selection for CTQ
 441:C:/Workspaces/DAVE-4.4.2-64Bit/RoverX/Libraries/XMCLib/inc\xmc_usic.h **** */
 442:C:/Workspaces/DAVE-4.4.2-64Bit/RoverX/Libraries/XMCLib/inc\xmc_usic.h **** typedef enum XMC_USIC_CH_BRG_CTQSEL
 443:C:/Workspaces/DAVE-4.4.2-64Bit/RoverX/Libraries/XMCLib/inc\xmc_usic.h **** {
 444:C:/Workspaces/DAVE-4.4.2-64Bit/RoverX/Libraries/XMCLib/inc\xmc_usic.h ****   XMC_USIC_CH_BRG_CTQSEL_PDIV = 0x0UL, /**< fCTQIN = fPDIV */
 445:C:/Workspaces/DAVE-4.4.2-64Bit/RoverX/Libraries/XMCLib/inc\xmc_usic.h ****   XMC_USIC_CH_BRG_CTQSEL_PPP  = 0x1UL << USIC_CH_BRG_CTQSEL_Pos,  /**< fCTQIN = fPPP */
 446:C:/Workspaces/DAVE-4.4.2-64Bit/RoverX/Libraries/XMCLib/inc\xmc_usic.h ****   XMC_USIC_CH_BRG_CTQSEL_SCLK = 0x2UL << USIC_CH_BRG_CTQSEL_Pos,  /**< fCTQIN = fSCLK */
 447:C:/Workspaces/DAVE-4.4.2-64Bit/RoverX/Libraries/XMCLib/inc\xmc_usic.h ****   XMC_USIC_CH_BRG_CTQSEL_MCLK = 0x3UL << USIC_CH_BRG_CTQSEL_Pos  /**< fCTQIN = fMCLK */
 448:C:/Workspaces/DAVE-4.4.2-64Bit/RoverX/Libraries/XMCLib/inc\xmc_usic.h **** } XMC_USIC_CH_BRG_CTQSEL_t;
 449:C:/Workspaces/DAVE-4.4.2-64Bit/RoverX/Libraries/XMCLib/inc\xmc_usic.h **** 
 450:C:/Workspaces/DAVE-4.4.2-64Bit/RoverX/Libraries/XMCLib/inc\xmc_usic.h **** 
 451:C:/Workspaces/DAVE-4.4.2-64Bit/RoverX/Libraries/XMCLib/inc\xmc_usic.h **** /**
 452:C:/Workspaces/DAVE-4.4.2-64Bit/RoverX/Libraries/XMCLib/inc\xmc_usic.h **** * USIC channel baudrate generator divider mode
 453:C:/Workspaces/DAVE-4.4.2-64Bit/RoverX/Libraries/XMCLib/inc\xmc_usic.h **** */
 454:C:/Workspaces/DAVE-4.4.2-64Bit/RoverX/Libraries/XMCLib/inc\xmc_usic.h **** typedef enum XMC_USIC_CH_BRG_CLOCK_DIVIDER_MODE
 455:C:/Workspaces/DAVE-4.4.2-64Bit/RoverX/Libraries/XMCLib/inc\xmc_usic.h **** {
 456:C:/Workspaces/DAVE-4.4.2-64Bit/RoverX/Libraries/XMCLib/inc\xmc_usic.h ****   XMC_USIC_CH_BRG_CLOCK_DIVIDER_MODE_DISABLED   = 0x0UL, /**< Baudrate generator clock divider: Dis
 457:C:/Workspaces/DAVE-4.4.2-64Bit/RoverX/Libraries/XMCLib/inc\xmc_usic.h ****   XMC_USIC_CH_BRG_CLOCK_DIVIDER_MODE_NORMAL     = 0x1UL << USIC_CH_FDR_DM_Pos, /**< Baudrate genera
 458:C:/Workspaces/DAVE-4.4.2-64Bit/RoverX/Libraries/XMCLib/inc\xmc_usic.h ****   XMC_USIC_CH_BRG_CLOCK_DIVIDER_MODE_FRACTIONAL = 0x2UL << USIC_CH_FDR_DM_Pos  /**< Baudrate genera
 459:C:/Workspaces/DAVE-4.4.2-64Bit/RoverX/Libraries/XMCLib/inc\xmc_usic.h **** } XMC_USIC_CH_BRG_CLOCK_DIVIDER_MODE_t;
 460:C:/Workspaces/DAVE-4.4.2-64Bit/RoverX/Libraries/XMCLib/inc\xmc_usic.h **** 
 461:C:/Workspaces/DAVE-4.4.2-64Bit/RoverX/Libraries/XMCLib/inc\xmc_usic.h **** /**
 462:C:/Workspaces/DAVE-4.4.2-64Bit/RoverX/Libraries/XMCLib/inc\xmc_usic.h **** * USIC channel baudrate generator master clock passive level
 463:C:/Workspaces/DAVE-4.4.2-64Bit/RoverX/Libraries/XMCLib/inc\xmc_usic.h **** */
 464:C:/Workspaces/DAVE-4.4.2-64Bit/RoverX/Libraries/XMCLib/inc\xmc_usic.h **** typedef enum XMC_USIC_CH_BRG_MASTER_CLOCK_PASSIVE_LEVEL
 465:C:/Workspaces/DAVE-4.4.2-64Bit/RoverX/Libraries/XMCLib/inc\xmc_usic.h **** {
 466:C:/Workspaces/DAVE-4.4.2-64Bit/RoverX/Libraries/XMCLib/inc\xmc_usic.h ****   XMC_USIC_CH_BRG_MASTER_CLOCK_PASSIVE_LEVEL_0 = 0x0UL, /**< Baudrate generator master clock passiv
 467:C:/Workspaces/DAVE-4.4.2-64Bit/RoverX/Libraries/XMCLib/inc\xmc_usic.h ****   XMC_USIC_CH_BRG_MASTER_CLOCK_PASSIVE_LEVEL_1 = 0x1UL << USIC_CH_BRG_MCLKCFG_Pos  /**< Baudrate ge
 468:C:/Workspaces/DAVE-4.4.2-64Bit/RoverX/Libraries/XMCLib/inc\xmc_usic.h **** } XMC_USIC_CH_BRG_MASTER_CLOCK_PASSIVE_LEVEL_t;
 469:C:/Workspaces/DAVE-4.4.2-64Bit/RoverX/Libraries/XMCLib/inc\xmc_usic.h **** 
 470:C:/Workspaces/DAVE-4.4.2-64Bit/RoverX/Libraries/XMCLib/inc\xmc_usic.h **** /**
 471:C:/Workspaces/DAVE-4.4.2-64Bit/RoverX/Libraries/XMCLib/inc\xmc_usic.h **** * USIC channel baudrate generator shift clock passive level
 472:C:/Workspaces/DAVE-4.4.2-64Bit/RoverX/Libraries/XMCLib/inc\xmc_usic.h **** */
 473:C:/Workspaces/DAVE-4.4.2-64Bit/RoverX/Libraries/XMCLib/inc\xmc_usic.h **** typedef enum XMC_USIC_CH_BRG_SHIFT_CLOCK_PASSIVE_LEVEL
 474:C:/Workspaces/DAVE-4.4.2-64Bit/RoverX/Libraries/XMCLib/inc\xmc_usic.h **** {
 475:C:/Workspaces/DAVE-4.4.2-64Bit/RoverX/Libraries/XMCLib/inc\xmc_usic.h ****   XMC_USIC_CH_BRG_SHIFT_CLOCK_PASSIVE_LEVEL_0_DELAY_DISABLED = 0x0UL, /**< Shift clock passive leve
 476:C:/Workspaces/DAVE-4.4.2-64Bit/RoverX/Libraries/XMCLib/inc\xmc_usic.h ****   XMC_USIC_CH_BRG_SHIFT_CLOCK_PASSIVE_LEVEL_1_DELAY_DISABLED = 0x1UL << USIC_CH_BRG_SCLKCFG_Pos, /*
 477:C:/Workspaces/DAVE-4.4.2-64Bit/RoverX/Libraries/XMCLib/inc\xmc_usic.h ****   XMC_USIC_CH_BRG_SHIFT_CLOCK_PASSIVE_LEVEL_0_DELAY_ENABLED  = (int32_t)(0x2UL << USIC_CH_BRG_SCLKC
 478:C:/Workspaces/DAVE-4.4.2-64Bit/RoverX/Libraries/XMCLib/inc\xmc_usic.h ****   XMC_USIC_CH_BRG_SHIFT_CLOCK_PASSIVE_LEVEL_1_DELAY_ENABLED  = (int32_t)(0x3UL << USIC_CH_BRG_SCLKC
 479:C:/Workspaces/DAVE-4.4.2-64Bit/RoverX/Libraries/XMCLib/inc\xmc_usic.h **** } XMC_USIC_CH_BRG_SHIFT_CLOCK_PASSIVE_LEVEL_t;
 480:C:/Workspaces/DAVE-4.4.2-64Bit/RoverX/Libraries/XMCLib/inc\xmc_usic.h **** 
 481:C:/Workspaces/DAVE-4.4.2-64Bit/RoverX/Libraries/XMCLib/inc\xmc_usic.h **** /**
 482:C:/Workspaces/DAVE-4.4.2-64Bit/RoverX/Libraries/XMCLib/inc\xmc_usic.h **** * USIC channel baudrate generator shift clock output
 483:C:/Workspaces/DAVE-4.4.2-64Bit/RoverX/Libraries/XMCLib/inc\xmc_usic.h **** */
 484:C:/Workspaces/DAVE-4.4.2-64Bit/RoverX/Libraries/XMCLib/inc\xmc_usic.h **** typedef enum XMC_USIC_CH_BRG_SHIFT_CLOCK_OUTPUT
 485:C:/Workspaces/DAVE-4.4.2-64Bit/RoverX/Libraries/XMCLib/inc\xmc_usic.h **** {
 486:C:/Workspaces/DAVE-4.4.2-64Bit/RoverX/Libraries/XMCLib/inc\xmc_usic.h ****   XMC_USIC_CH_BRG_SHIFT_CLOCK_OUTPUT_SCLK = 0x0UL, /**< Baudrate generator shift clock output: SCL.
 487:C:/Workspaces/DAVE-4.4.2-64Bit/RoverX/Libraries/XMCLib/inc\xmc_usic.h ****   XMC_USIC_CH_BRG_SHIFT_CLOCK_OUTPUT_DX1 = 0x1UL << USIC_CH_BRG_SCLKOSEL_Pos   /**< Baudrate genera
 488:C:/Workspaces/DAVE-4.4.2-64Bit/RoverX/Libraries/XMCLib/inc\xmc_usic.h **** } XMC_USIC_CH_BRG_SHIFT_CLOCK_OUTPUT_t;
 489:C:/Workspaces/DAVE-4.4.2-64Bit/RoverX/Libraries/XMCLib/inc\xmc_usic.h **** 
 490:C:/Workspaces/DAVE-4.4.2-64Bit/RoverX/Libraries/XMCLib/inc\xmc_usic.h **** /**
 491:C:/Workspaces/DAVE-4.4.2-64Bit/RoverX/Libraries/XMCLib/inc\xmc_usic.h **** * USIC channel shift direction.
 492:C:/Workspaces/DAVE-4.4.2-64Bit/RoverX/Libraries/XMCLib/inc\xmc_usic.h **** * Defines the shift direction of the data words for transmission and reception
 493:C:/Workspaces/DAVE-4.4.2-64Bit/RoverX/Libraries/XMCLib/inc\xmc_usic.h **** */
 494:C:/Workspaces/DAVE-4.4.2-64Bit/RoverX/Libraries/XMCLib/inc\xmc_usic.h **** typedef enum XMC_USIC_CH_SHIFT_DIRECTION
 495:C:/Workspaces/DAVE-4.4.2-64Bit/RoverX/Libraries/XMCLib/inc\xmc_usic.h **** {
 496:C:/Workspaces/DAVE-4.4.2-64Bit/RoverX/Libraries/XMCLib/inc\xmc_usic.h ****   XMC_USIC_CH_SHIFT_DIRECTION_LSB_FIRST = 0x0UL, /**< Shift LSB first. The first data bit of a data
 497:C:/Workspaces/DAVE-4.4.2-64Bit/RoverX/Libraries/XMCLib/inc\xmc_usic.h ****   XMC_USIC_CH_SHIFT_DIRECTION_MSB_FIRST = 0x1UL << USIC_CH_SCTR_SDIR_Pos /**< Shift MSB first. The 
 498:C:/Workspaces/DAVE-4.4.2-64Bit/RoverX/Libraries/XMCLib/inc\xmc_usic.h **** } XMC_USIC_CH_SHIFT_DIRECTION_t;
 499:C:/Workspaces/DAVE-4.4.2-64Bit/RoverX/Libraries/XMCLib/inc\xmc_usic.h **** 
 500:C:/Workspaces/DAVE-4.4.2-64Bit/RoverX/Libraries/XMCLib/inc\xmc_usic.h **** 
 501:C:/Workspaces/DAVE-4.4.2-64Bit/RoverX/Libraries/XMCLib/inc\xmc_usic.h **** /*******************************************************************************
 502:C:/Workspaces/DAVE-4.4.2-64Bit/RoverX/Libraries/XMCLib/inc\xmc_usic.h ****  * DATA STRUCTURES
 503:C:/Workspaces/DAVE-4.4.2-64Bit/RoverX/Libraries/XMCLib/inc\xmc_usic.h ****  *******************************************************************************/
 504:C:/Workspaces/DAVE-4.4.2-64Bit/RoverX/Libraries/XMCLib/inc\xmc_usic.h **** 
 505:C:/Workspaces/DAVE-4.4.2-64Bit/RoverX/Libraries/XMCLib/inc\xmc_usic.h **** /*Anonymous structure/union guard start*/
 506:C:/Workspaces/DAVE-4.4.2-64Bit/RoverX/Libraries/XMCLib/inc\xmc_usic.h **** #if defined(__CC_ARM)
 507:C:/Workspaces/DAVE-4.4.2-64Bit/RoverX/Libraries/XMCLib/inc\xmc_usic.h **** #pragma push
 508:C:/Workspaces/DAVE-4.4.2-64Bit/RoverX/Libraries/XMCLib/inc\xmc_usic.h **** #pragma anon_unions
 509:C:/Workspaces/DAVE-4.4.2-64Bit/RoverX/Libraries/XMCLib/inc\xmc_usic.h **** #elif defined(__TASKING__)
 510:C:/Workspaces/DAVE-4.4.2-64Bit/RoverX/Libraries/XMCLib/inc\xmc_usic.h **** #pragma warning 586
 511:C:/Workspaces/DAVE-4.4.2-64Bit/RoverX/Libraries/XMCLib/inc\xmc_usic.h **** #endif
 512:C:/Workspaces/DAVE-4.4.2-64Bit/RoverX/Libraries/XMCLib/inc\xmc_usic.h **** 
 513:C:/Workspaces/DAVE-4.4.2-64Bit/RoverX/Libraries/XMCLib/inc\xmc_usic.h **** /**
 514:C:/Workspaces/DAVE-4.4.2-64Bit/RoverX/Libraries/XMCLib/inc\xmc_usic.h ****  * USIC module structure
 515:C:/Workspaces/DAVE-4.4.2-64Bit/RoverX/Libraries/XMCLib/inc\xmc_usic.h ****  */
 516:C:/Workspaces/DAVE-4.4.2-64Bit/RoverX/Libraries/XMCLib/inc\xmc_usic.h **** typedef USIC_GLOBAL_TypeDef XMC_USIC_t;
 517:C:/Workspaces/DAVE-4.4.2-64Bit/RoverX/Libraries/XMCLib/inc\xmc_usic.h **** 
 518:C:/Workspaces/DAVE-4.4.2-64Bit/RoverX/Libraries/XMCLib/inc\xmc_usic.h **** /**
 519:C:/Workspaces/DAVE-4.4.2-64Bit/RoverX/Libraries/XMCLib/inc\xmc_usic.h ****  * USIC channel structure.<br> The members of the structure are same as in the device header file,
 520:C:/Workspaces/DAVE-4.4.2-64Bit/RoverX/Libraries/XMCLib/inc\xmc_usic.h ****  * except for some registers.
 521:C:/Workspaces/DAVE-4.4.2-64Bit/RoverX/Libraries/XMCLib/inc\xmc_usic.h ****  * DX0CR, DX1CR, DX2CR, DX3CR, DX4CR and DX5CR are replaced with the array DXCR[6].
 522:C:/Workspaces/DAVE-4.4.2-64Bit/RoverX/Libraries/XMCLib/inc\xmc_usic.h ****  * TBUF0 to TBUF31 are replaced with TBUF[32].
 523:C:/Workspaces/DAVE-4.4.2-64Bit/RoverX/Libraries/XMCLib/inc\xmc_usic.h ****  * IN0 to IN31 are replaced with IN[32].
 524:C:/Workspaces/DAVE-4.4.2-64Bit/RoverX/Libraries/XMCLib/inc\xmc_usic.h ****  */
 525:C:/Workspaces/DAVE-4.4.2-64Bit/RoverX/Libraries/XMCLib/inc\xmc_usic.h **** typedef struct XMC_USIC_CH
 526:C:/Workspaces/DAVE-4.4.2-64Bit/RoverX/Libraries/XMCLib/inc\xmc_usic.h **** {
 527:C:/Workspaces/DAVE-4.4.2-64Bit/RoverX/Libraries/XMCLib/inc\xmc_usic.h ****   __I  uint32_t  RESERVED0;
 528:C:/Workspaces/DAVE-4.4.2-64Bit/RoverX/Libraries/XMCLib/inc\xmc_usic.h ****   __I  uint32_t  CCFG;			/**< Channel configuration register*/
 529:C:/Workspaces/DAVE-4.4.2-64Bit/RoverX/Libraries/XMCLib/inc\xmc_usic.h ****   __I  uint32_t  RESERVED1;
 530:C:/Workspaces/DAVE-4.4.2-64Bit/RoverX/Libraries/XMCLib/inc\xmc_usic.h ****   __IO uint32_t  KSCFG;			/**< Kernel state configuration register*/
 531:C:/Workspaces/DAVE-4.4.2-64Bit/RoverX/Libraries/XMCLib/inc\xmc_usic.h ****   __IO uint32_t  FDR;			/**< Fractional divider configuration register*/
 532:C:/Workspaces/DAVE-4.4.2-64Bit/RoverX/Libraries/XMCLib/inc\xmc_usic.h ****   __IO uint32_t  BRG;			/**< Baud rate generator register*/
 533:C:/Workspaces/DAVE-4.4.2-64Bit/RoverX/Libraries/XMCLib/inc\xmc_usic.h ****   __IO uint32_t  INPR;			/**< Interrupt node pointer register*/
 534:C:/Workspaces/DAVE-4.4.2-64Bit/RoverX/Libraries/XMCLib/inc\xmc_usic.h ****   __IO uint32_t  DXCR[6];		/**< Input control registers DX0 to DX5.*/
 535:C:/Workspaces/DAVE-4.4.2-64Bit/RoverX/Libraries/XMCLib/inc\xmc_usic.h ****   __IO uint32_t  SCTR;			/**< Shift control register*/
 536:C:/Workspaces/DAVE-4.4.2-64Bit/RoverX/Libraries/XMCLib/inc\xmc_usic.h ****   __IO uint32_t  TCSR;
 537:C:/Workspaces/DAVE-4.4.2-64Bit/RoverX/Libraries/XMCLib/inc\xmc_usic.h **** 
 538:C:/Workspaces/DAVE-4.4.2-64Bit/RoverX/Libraries/XMCLib/inc\xmc_usic.h ****   union
 539:C:/Workspaces/DAVE-4.4.2-64Bit/RoverX/Libraries/XMCLib/inc\xmc_usic.h ****   {
 540:C:/Workspaces/DAVE-4.4.2-64Bit/RoverX/Libraries/XMCLib/inc\xmc_usic.h ****     __IO uint32_t  PCR_IICMode;	/**< I2C protocol configuration register*/
 541:C:/Workspaces/DAVE-4.4.2-64Bit/RoverX/Libraries/XMCLib/inc\xmc_usic.h ****     __IO uint32_t  PCR_IISMode; /**< I2S protocol configuration register*/
 542:C:/Workspaces/DAVE-4.4.2-64Bit/RoverX/Libraries/XMCLib/inc\xmc_usic.h ****     __IO uint32_t  PCR_SSCMode;	/**< SPI protocol configuration register*/
 543:C:/Workspaces/DAVE-4.4.2-64Bit/RoverX/Libraries/XMCLib/inc\xmc_usic.h ****     __IO uint32_t  PCR;			/**< Protocol configuration register*/
 544:C:/Workspaces/DAVE-4.4.2-64Bit/RoverX/Libraries/XMCLib/inc\xmc_usic.h ****     __IO uint32_t  PCR_ASCMode;	/**< UART protocol configuration register*/
 545:C:/Workspaces/DAVE-4.4.2-64Bit/RoverX/Libraries/XMCLib/inc\xmc_usic.h ****   };
 546:C:/Workspaces/DAVE-4.4.2-64Bit/RoverX/Libraries/XMCLib/inc\xmc_usic.h ****   __IO uint32_t  CCR;			/**< Channel control register*/
 547:C:/Workspaces/DAVE-4.4.2-64Bit/RoverX/Libraries/XMCLib/inc\xmc_usic.h ****   __IO uint32_t  CMTR;			/**< Capture mode timer register*/
 548:C:/Workspaces/DAVE-4.4.2-64Bit/RoverX/Libraries/XMCLib/inc\xmc_usic.h **** 
 549:C:/Workspaces/DAVE-4.4.2-64Bit/RoverX/Libraries/XMCLib/inc\xmc_usic.h ****   union
 550:C:/Workspaces/DAVE-4.4.2-64Bit/RoverX/Libraries/XMCLib/inc\xmc_usic.h ****   {
 551:C:/Workspaces/DAVE-4.4.2-64Bit/RoverX/Libraries/XMCLib/inc\xmc_usic.h ****     __IO uint32_t  PSR_IICMode;	/**< I2C protocol status register*/
 552:C:/Workspaces/DAVE-4.4.2-64Bit/RoverX/Libraries/XMCLib/inc\xmc_usic.h ****     __IO uint32_t  PSR_IISMode;	/**< I2S protocol status register*/
 553:C:/Workspaces/DAVE-4.4.2-64Bit/RoverX/Libraries/XMCLib/inc\xmc_usic.h ****     __IO uint32_t  PSR_SSCMode;	/**< SPI protocol status register*/
 554:C:/Workspaces/DAVE-4.4.2-64Bit/RoverX/Libraries/XMCLib/inc\xmc_usic.h ****     __IO uint32_t  PSR;			/**< Protocol status register*/
 555:C:/Workspaces/DAVE-4.4.2-64Bit/RoverX/Libraries/XMCLib/inc\xmc_usic.h ****     __IO uint32_t  PSR_ASCMode;	/**< UART protocol status register*/
 556:C:/Workspaces/DAVE-4.4.2-64Bit/RoverX/Libraries/XMCLib/inc\xmc_usic.h ****   };
 557:C:/Workspaces/DAVE-4.4.2-64Bit/RoverX/Libraries/XMCLib/inc\xmc_usic.h ****   __O  uint32_t  PSCR;			/**< Protocol status clear register*/
 558:C:/Workspaces/DAVE-4.4.2-64Bit/RoverX/Libraries/XMCLib/inc\xmc_usic.h ****   __I  uint32_t  RBUFSR;		/**< Receive buffer status register*/
 559:C:/Workspaces/DAVE-4.4.2-64Bit/RoverX/Libraries/XMCLib/inc\xmc_usic.h ****   __I  uint32_t  RBUF;			/**< Receive buffer register*/
 560:C:/Workspaces/DAVE-4.4.2-64Bit/RoverX/Libraries/XMCLib/inc\xmc_usic.h ****   __I  uint32_t  RBUFD;			/**< Debug mode receive buffer register*/
 561:C:/Workspaces/DAVE-4.4.2-64Bit/RoverX/Libraries/XMCLib/inc\xmc_usic.h ****   __I  uint32_t  RBUF0;			/**< Receive buffer 0*/
 562:C:/Workspaces/DAVE-4.4.2-64Bit/RoverX/Libraries/XMCLib/inc\xmc_usic.h ****   __I  uint32_t  RBUF1;			/**< Receive buffer 1*/
 563:C:/Workspaces/DAVE-4.4.2-64Bit/RoverX/Libraries/XMCLib/inc\xmc_usic.h ****   __I  uint32_t  RBUF01SR;		/**< Receive buffer status register*/
 564:C:/Workspaces/DAVE-4.4.2-64Bit/RoverX/Libraries/XMCLib/inc\xmc_usic.h ****   __O  uint32_t  FMR;			/**< Flag modification register*/
 565:C:/Workspaces/DAVE-4.4.2-64Bit/RoverX/Libraries/XMCLib/inc\xmc_usic.h ****   __I  uint32_t  RESERVED2[5];
 566:C:/Workspaces/DAVE-4.4.2-64Bit/RoverX/Libraries/XMCLib/inc\xmc_usic.h ****   __IO uint32_t  TBUF[32];		/**< Tranmsit buffer registers*/
 567:C:/Workspaces/DAVE-4.4.2-64Bit/RoverX/Libraries/XMCLib/inc\xmc_usic.h ****   __IO uint32_t  BYP;			/**< FIFO bypass register*/
 568:C:/Workspaces/DAVE-4.4.2-64Bit/RoverX/Libraries/XMCLib/inc\xmc_usic.h ****   __IO uint32_t  BYPCR;			/**< FIFO bypass control register*/
 569:C:/Workspaces/DAVE-4.4.2-64Bit/RoverX/Libraries/XMCLib/inc\xmc_usic.h ****   __IO uint32_t  TBCTR;			/**< Transmit FIFO control register*/
 570:C:/Workspaces/DAVE-4.4.2-64Bit/RoverX/Libraries/XMCLib/inc\xmc_usic.h ****   __IO uint32_t  RBCTR;			/**< Receive FIFO control register*/
 571:C:/Workspaces/DAVE-4.4.2-64Bit/RoverX/Libraries/XMCLib/inc\xmc_usic.h ****   __I  uint32_t  TRBPTR;		/**< Transmit/recive buffer pointer register*/
 572:C:/Workspaces/DAVE-4.4.2-64Bit/RoverX/Libraries/XMCLib/inc\xmc_usic.h ****   __IO uint32_t  TRBSR;			/**< Transmit/receive buffer status register*/
 573:C:/Workspaces/DAVE-4.4.2-64Bit/RoverX/Libraries/XMCLib/inc\xmc_usic.h ****   __O  uint32_t  TRBSCR;		/**< Transmit/receive buffer status clear register*/
 574:C:/Workspaces/DAVE-4.4.2-64Bit/RoverX/Libraries/XMCLib/inc\xmc_usic.h ****   __I  uint32_t  OUTR;			/**< Receive FIFO output register*/
 575:C:/Workspaces/DAVE-4.4.2-64Bit/RoverX/Libraries/XMCLib/inc\xmc_usic.h ****   __I  uint32_t  OUTDR;			/**< Receive FIFO debug output register*/
 576:C:/Workspaces/DAVE-4.4.2-64Bit/RoverX/Libraries/XMCLib/inc\xmc_usic.h ****   __I  uint32_t  RESERVED3[23];
 577:C:/Workspaces/DAVE-4.4.2-64Bit/RoverX/Libraries/XMCLib/inc\xmc_usic.h ****   __O  uint32_t  IN[32];		/**< Transmit FIFO input register*/
 578:C:/Workspaces/DAVE-4.4.2-64Bit/RoverX/Libraries/XMCLib/inc\xmc_usic.h **** } XMC_USIC_CH_t;
 579:C:/Workspaces/DAVE-4.4.2-64Bit/RoverX/Libraries/XMCLib/inc\xmc_usic.h **** 
 580:C:/Workspaces/DAVE-4.4.2-64Bit/RoverX/Libraries/XMCLib/inc\xmc_usic.h **** 
 581:C:/Workspaces/DAVE-4.4.2-64Bit/RoverX/Libraries/XMCLib/inc\xmc_usic.h **** /*Anonymous structure/union guard end*/
 582:C:/Workspaces/DAVE-4.4.2-64Bit/RoverX/Libraries/XMCLib/inc\xmc_usic.h **** #if defined(__CC_ARM)
 583:C:/Workspaces/DAVE-4.4.2-64Bit/RoverX/Libraries/XMCLib/inc\xmc_usic.h **** #pragma pop
 584:C:/Workspaces/DAVE-4.4.2-64Bit/RoverX/Libraries/XMCLib/inc\xmc_usic.h **** #elif defined(__TASKING__)
 585:C:/Workspaces/DAVE-4.4.2-64Bit/RoverX/Libraries/XMCLib/inc\xmc_usic.h **** #pragma warning restore
 586:C:/Workspaces/DAVE-4.4.2-64Bit/RoverX/Libraries/XMCLib/inc\xmc_usic.h **** #endif
 587:C:/Workspaces/DAVE-4.4.2-64Bit/RoverX/Libraries/XMCLib/inc\xmc_usic.h **** 
 588:C:/Workspaces/DAVE-4.4.2-64Bit/RoverX/Libraries/XMCLib/inc\xmc_usic.h **** /*******************************************************************************
 589:C:/Workspaces/DAVE-4.4.2-64Bit/RoverX/Libraries/XMCLib/inc\xmc_usic.h ****  * API PROTOTYPES
 590:C:/Workspaces/DAVE-4.4.2-64Bit/RoverX/Libraries/XMCLib/inc\xmc_usic.h ****  ******************************************************************************/
 591:C:/Workspaces/DAVE-4.4.2-64Bit/RoverX/Libraries/XMCLib/inc\xmc_usic.h **** 
 592:C:/Workspaces/DAVE-4.4.2-64Bit/RoverX/Libraries/XMCLib/inc\xmc_usic.h **** #ifdef __cplusplus
 593:C:/Workspaces/DAVE-4.4.2-64Bit/RoverX/Libraries/XMCLib/inc\xmc_usic.h **** extern "C" {
 594:C:/Workspaces/DAVE-4.4.2-64Bit/RoverX/Libraries/XMCLib/inc\xmc_usic.h **** #endif
 595:C:/Workspaces/DAVE-4.4.2-64Bit/RoverX/Libraries/XMCLib/inc\xmc_usic.h **** 
 596:C:/Workspaces/DAVE-4.4.2-64Bit/RoverX/Libraries/XMCLib/inc\xmc_usic.h **** __STATIC_INLINE bool XMC_USIC_IsModuleValid(const XMC_USIC_t *const module)
 597:C:/Workspaces/DAVE-4.4.2-64Bit/RoverX/Libraries/XMCLib/inc\xmc_usic.h **** {
 598:C:/Workspaces/DAVE-4.4.2-64Bit/RoverX/Libraries/XMCLib/inc\xmc_usic.h ****   bool tmp;
 599:C:/Workspaces/DAVE-4.4.2-64Bit/RoverX/Libraries/XMCLib/inc\xmc_usic.h **** 
 600:C:/Workspaces/DAVE-4.4.2-64Bit/RoverX/Libraries/XMCLib/inc\xmc_usic.h ****   tmp = (module == XMC_USIC0);
 601:C:/Workspaces/DAVE-4.4.2-64Bit/RoverX/Libraries/XMCLib/inc\xmc_usic.h **** #if defined(XMC_USIC1)
 602:C:/Workspaces/DAVE-4.4.2-64Bit/RoverX/Libraries/XMCLib/inc\xmc_usic.h ****   tmp = tmp || (module == XMC_USIC1);
 603:C:/Workspaces/DAVE-4.4.2-64Bit/RoverX/Libraries/XMCLib/inc\xmc_usic.h **** #endif
 604:C:/Workspaces/DAVE-4.4.2-64Bit/RoverX/Libraries/XMCLib/inc\xmc_usic.h **** #if defined(XMC_USIC2)
 605:C:/Workspaces/DAVE-4.4.2-64Bit/RoverX/Libraries/XMCLib/inc\xmc_usic.h ****   tmp = tmp || (module == XMC_USIC2);
 606:C:/Workspaces/DAVE-4.4.2-64Bit/RoverX/Libraries/XMCLib/inc\xmc_usic.h **** #endif
 607:C:/Workspaces/DAVE-4.4.2-64Bit/RoverX/Libraries/XMCLib/inc\xmc_usic.h **** 
 608:C:/Workspaces/DAVE-4.4.2-64Bit/RoverX/Libraries/XMCLib/inc\xmc_usic.h ****   return tmp;
 609:C:/Workspaces/DAVE-4.4.2-64Bit/RoverX/Libraries/XMCLib/inc\xmc_usic.h **** }
 610:C:/Workspaces/DAVE-4.4.2-64Bit/RoverX/Libraries/XMCLib/inc\xmc_usic.h **** 
 611:C:/Workspaces/DAVE-4.4.2-64Bit/RoverX/Libraries/XMCLib/inc\xmc_usic.h **** __STATIC_INLINE bool XMC_USIC_IsChannelValid(const XMC_USIC_CH_t *const channel)
 612:C:/Workspaces/DAVE-4.4.2-64Bit/RoverX/Libraries/XMCLib/inc\xmc_usic.h **** {
 613:C:/Workspaces/DAVE-4.4.2-64Bit/RoverX/Libraries/XMCLib/inc\xmc_usic.h ****   bool tmp;
 614:C:/Workspaces/DAVE-4.4.2-64Bit/RoverX/Libraries/XMCLib/inc\xmc_usic.h **** 
 615:C:/Workspaces/DAVE-4.4.2-64Bit/RoverX/Libraries/XMCLib/inc\xmc_usic.h ****   tmp = ((channel == XMC_USIC0_CH0) || (channel == XMC_USIC0_CH1));
 616:C:/Workspaces/DAVE-4.4.2-64Bit/RoverX/Libraries/XMCLib/inc\xmc_usic.h **** #if defined(XMC_USIC1)
 617:C:/Workspaces/DAVE-4.4.2-64Bit/RoverX/Libraries/XMCLib/inc\xmc_usic.h ****   tmp = tmp || ((channel == XMC_USIC1_CH0) || (channel == XMC_USIC1_CH1));
 618:C:/Workspaces/DAVE-4.4.2-64Bit/RoverX/Libraries/XMCLib/inc\xmc_usic.h **** #endif
 619:C:/Workspaces/DAVE-4.4.2-64Bit/RoverX/Libraries/XMCLib/inc\xmc_usic.h **** #if defined(XMC_USIC2)
 620:C:/Workspaces/DAVE-4.4.2-64Bit/RoverX/Libraries/XMCLib/inc\xmc_usic.h ****   tmp = tmp || ((channel == XMC_USIC2_CH0) || (channel == XMC_USIC2_CH1));
 621:C:/Workspaces/DAVE-4.4.2-64Bit/RoverX/Libraries/XMCLib/inc\xmc_usic.h **** #endif
 622:C:/Workspaces/DAVE-4.4.2-64Bit/RoverX/Libraries/XMCLib/inc\xmc_usic.h **** 
 623:C:/Workspaces/DAVE-4.4.2-64Bit/RoverX/Libraries/XMCLib/inc\xmc_usic.h ****   return tmp;
 624:C:/Workspaces/DAVE-4.4.2-64Bit/RoverX/Libraries/XMCLib/inc\xmc_usic.h **** }
 625:C:/Workspaces/DAVE-4.4.2-64Bit/RoverX/Libraries/XMCLib/inc\xmc_usic.h **** 
 626:C:/Workspaces/DAVE-4.4.2-64Bit/RoverX/Libraries/XMCLib/inc\xmc_usic.h **** /* Common APIs */
 627:C:/Workspaces/DAVE-4.4.2-64Bit/RoverX/Libraries/XMCLib/inc\xmc_usic.h **** 
 628:C:/Workspaces/DAVE-4.4.2-64Bit/RoverX/Libraries/XMCLib/inc\xmc_usic.h **** /**
 629:C:/Workspaces/DAVE-4.4.2-64Bit/RoverX/Libraries/XMCLib/inc\xmc_usic.h ****  * @param  usic Pointer to USIC module handler of type @ref XMC_USIC_t.\n
 630:C:/Workspaces/DAVE-4.4.2-64Bit/RoverX/Libraries/XMCLib/inc\xmc_usic.h ****  * 				\b Range: @ref XMC_USIC0 to @ref XMC_USIC2 based on device support.
 631:C:/Workspaces/DAVE-4.4.2-64Bit/RoverX/Libraries/XMCLib/inc\xmc_usic.h ****  * @return None
 632:C:/Workspaces/DAVE-4.4.2-64Bit/RoverX/Libraries/XMCLib/inc\xmc_usic.h ****  *
 633:C:/Workspaces/DAVE-4.4.2-64Bit/RoverX/Libraries/XMCLib/inc\xmc_usic.h ****  * \par<b>Description</b><br>
 634:C:/Workspaces/DAVE-4.4.2-64Bit/RoverX/Libraries/XMCLib/inc\xmc_usic.h ****  * Enables the USIC module.\n\n
 635:C:/Workspaces/DAVE-4.4.2-64Bit/RoverX/Libraries/XMCLib/inc\xmc_usic.h ****  * Enables the clock for the USIC module by following the
 636:C:/Workspaces/DAVE-4.4.2-64Bit/RoverX/Libraries/XMCLib/inc\xmc_usic.h ****  * clock enabling sequence for the selected device.
 637:C:/Workspaces/DAVE-4.4.2-64Bit/RoverX/Libraries/XMCLib/inc\xmc_usic.h ****  *
 638:C:/Workspaces/DAVE-4.4.2-64Bit/RoverX/Libraries/XMCLib/inc\xmc_usic.h ****  * \par<b>Related APIs:</b><BR>
 639:C:/Workspaces/DAVE-4.4.2-64Bit/RoverX/Libraries/XMCLib/inc\xmc_usic.h ****  * XMC_USIC_CH_Enable(), XMC_USIC_Disable() \n\n\n
 640:C:/Workspaces/DAVE-4.4.2-64Bit/RoverX/Libraries/XMCLib/inc\xmc_usic.h ****  */
 641:C:/Workspaces/DAVE-4.4.2-64Bit/RoverX/Libraries/XMCLib/inc\xmc_usic.h **** void XMC_USIC_Enable(XMC_USIC_t *const usic);
 642:C:/Workspaces/DAVE-4.4.2-64Bit/RoverX/Libraries/XMCLib/inc\xmc_usic.h **** /**
 643:C:/Workspaces/DAVE-4.4.2-64Bit/RoverX/Libraries/XMCLib/inc\xmc_usic.h ****  * @param  usic Pointer to USIC module handler of type @ref XMC_USIC_t.\n
 644:C:/Workspaces/DAVE-4.4.2-64Bit/RoverX/Libraries/XMCLib/inc\xmc_usic.h ****  * 				\b Range: @ref XMC_USIC0 to @ref XMC_USIC2 based on device support.
 645:C:/Workspaces/DAVE-4.4.2-64Bit/RoverX/Libraries/XMCLib/inc\xmc_usic.h ****  * @return None
 646:C:/Workspaces/DAVE-4.4.2-64Bit/RoverX/Libraries/XMCLib/inc\xmc_usic.h ****  *
 647:C:/Workspaces/DAVE-4.4.2-64Bit/RoverX/Libraries/XMCLib/inc\xmc_usic.h ****  * \par<b>Description</b><br>
 648:C:/Workspaces/DAVE-4.4.2-64Bit/RoverX/Libraries/XMCLib/inc\xmc_usic.h ****  * Disables the USIC module.\n\n
 649:C:/Workspaces/DAVE-4.4.2-64Bit/RoverX/Libraries/XMCLib/inc\xmc_usic.h ****  * Disables the clock for the USIC module by following the clock
 650:C:/Workspaces/DAVE-4.4.2-64Bit/RoverX/Libraries/XMCLib/inc\xmc_usic.h ****  * disabling sequence for the selected device.
 651:C:/Workspaces/DAVE-4.4.2-64Bit/RoverX/Libraries/XMCLib/inc\xmc_usic.h ****  *
 652:C:/Workspaces/DAVE-4.4.2-64Bit/RoverX/Libraries/XMCLib/inc\xmc_usic.h ****  * \par<b>Related APIs:</b><BR>
 653:C:/Workspaces/DAVE-4.4.2-64Bit/RoverX/Libraries/XMCLib/inc\xmc_usic.h ****  * XMC_USIC_CH_Disable(), XMC_USIC_Enable() \n\n\n
 654:C:/Workspaces/DAVE-4.4.2-64Bit/RoverX/Libraries/XMCLib/inc\xmc_usic.h ****  */
 655:C:/Workspaces/DAVE-4.4.2-64Bit/RoverX/Libraries/XMCLib/inc\xmc_usic.h **** void XMC_USIC_Disable(XMC_USIC_t *const usic);
 656:C:/Workspaces/DAVE-4.4.2-64Bit/RoverX/Libraries/XMCLib/inc\xmc_usic.h **** /**
 657:C:/Workspaces/DAVE-4.4.2-64Bit/RoverX/Libraries/XMCLib/inc\xmc_usic.h ****  * @param  channel Pointer to USIC channel handler of type @ref XMC_USIC_CH_t \n
 658:C:/Workspaces/DAVE-4.4.2-64Bit/RoverX/Libraries/XMCLib/inc\xmc_usic.h ****  * 				   \b Range: @ref XMC_USIC0_CH0, @ref XMC_USIC0_CH1 to @ref XMC_USIC2_CH1 based on device su
 659:C:/Workspaces/DAVE-4.4.2-64Bit/RoverX/Libraries/XMCLib/inc\xmc_usic.h ****  * @return None
 660:C:/Workspaces/DAVE-4.4.2-64Bit/RoverX/Libraries/XMCLib/inc\xmc_usic.h ****  *
 661:C:/Workspaces/DAVE-4.4.2-64Bit/RoverX/Libraries/XMCLib/inc\xmc_usic.h ****  * \par<b>Description</b><br>
 662:C:/Workspaces/DAVE-4.4.2-64Bit/RoverX/Libraries/XMCLib/inc\xmc_usic.h ****  * Enables the USIC channel. \n\n
 663:C:/Workspaces/DAVE-4.4.2-64Bit/RoverX/Libraries/XMCLib/inc\xmc_usic.h ****  * USIC channel is enabled by setting the module enable bit in KSCFG register bitfield MODEN.
 664:C:/Workspaces/DAVE-4.4.2-64Bit/RoverX/Libraries/XMCLib/inc\xmc_usic.h ****  * On enabling, the channel is set to idle mode.
 665:C:/Workspaces/DAVE-4.4.2-64Bit/RoverX/Libraries/XMCLib/inc\xmc_usic.h ****  *
 666:C:/Workspaces/DAVE-4.4.2-64Bit/RoverX/Libraries/XMCLib/inc\xmc_usic.h ****  * \par<b>Related APIs:</b><BR>
 667:C:/Workspaces/DAVE-4.4.2-64Bit/RoverX/Libraries/XMCLib/inc\xmc_usic.h ****  * XMC_USIC_CH_Disable(), XMC_USIC_Enable() \n\n\n
 668:C:/Workspaces/DAVE-4.4.2-64Bit/RoverX/Libraries/XMCLib/inc\xmc_usic.h ****  */
 669:C:/Workspaces/DAVE-4.4.2-64Bit/RoverX/Libraries/XMCLib/inc\xmc_usic.h **** void XMC_USIC_CH_Enable(XMC_USIC_CH_t *const channel);
 670:C:/Workspaces/DAVE-4.4.2-64Bit/RoverX/Libraries/XMCLib/inc\xmc_usic.h **** /**
 671:C:/Workspaces/DAVE-4.4.2-64Bit/RoverX/Libraries/XMCLib/inc\xmc_usic.h ****  * @param  channel Pointer to USIC channel handler of type @ref XMC_USIC_CH_t \n
 672:C:/Workspaces/DAVE-4.4.2-64Bit/RoverX/Libraries/XMCLib/inc\xmc_usic.h ****  * 				   \b Range: @ref XMC_USIC0_CH0, @ref XMC_USIC0_CH1 to @ref XMC_USIC2_CH1 based on device su
 673:C:/Workspaces/DAVE-4.4.2-64Bit/RoverX/Libraries/XMCLib/inc\xmc_usic.h ****  * @return None
 674:C:/Workspaces/DAVE-4.4.2-64Bit/RoverX/Libraries/XMCLib/inc\xmc_usic.h ****  *
 675:C:/Workspaces/DAVE-4.4.2-64Bit/RoverX/Libraries/XMCLib/inc\xmc_usic.h ****  * \par<b>Description</b><br>
 676:C:/Workspaces/DAVE-4.4.2-64Bit/RoverX/Libraries/XMCLib/inc\xmc_usic.h ****  * Disables the USIC channel.\n\n
 677:C:/Workspaces/DAVE-4.4.2-64Bit/RoverX/Libraries/XMCLib/inc\xmc_usic.h ****  * USIC channel is disabled by setting the module enable bit(MDEN) to 0 in the register KSCFG.
 678:C:/Workspaces/DAVE-4.4.2-64Bit/RoverX/Libraries/XMCLib/inc\xmc_usic.h ****  *
 679:C:/Workspaces/DAVE-4.4.2-64Bit/RoverX/Libraries/XMCLib/inc\xmc_usic.h ****  * \par<b>Related APIs:</b><BR>
 680:C:/Workspaces/DAVE-4.4.2-64Bit/RoverX/Libraries/XMCLib/inc\xmc_usic.h ****  * XMC_USIC_CH_Enable(), XMC_USIC_Disable() \n\n\n
 681:C:/Workspaces/DAVE-4.4.2-64Bit/RoverX/Libraries/XMCLib/inc\xmc_usic.h ****  */
 682:C:/Workspaces/DAVE-4.4.2-64Bit/RoverX/Libraries/XMCLib/inc\xmc_usic.h **** void XMC_USIC_CH_Disable(XMC_USIC_CH_t *const channel);
 683:C:/Workspaces/DAVE-4.4.2-64Bit/RoverX/Libraries/XMCLib/inc\xmc_usic.h **** 
 684:C:/Workspaces/DAVE-4.4.2-64Bit/RoverX/Libraries/XMCLib/inc\xmc_usic.h **** /**
 685:C:/Workspaces/DAVE-4.4.2-64Bit/RoverX/Libraries/XMCLib/inc\xmc_usic.h ****  * @param  channel Pointer to USIC channel handler of type @ref XMC_USIC_CH_t \n
 686:C:/Workspaces/DAVE-4.4.2-64Bit/RoverX/Libraries/XMCLib/inc\xmc_usic.h ****  * 				   \b Range: @ref XMC_USIC0_CH0, @ref XMC_USIC0_CH1 to @ref XMC_USIC2_CH1 based on device su
 687:C:/Workspaces/DAVE-4.4.2-64Bit/RoverX/Libraries/XMCLib/inc\xmc_usic.h ****  * @param  rate Desired baudrate. \b Range: minimum value = 100, maximum value depends on the perip
 688:C:/Workspaces/DAVE-4.4.2-64Bit/RoverX/Libraries/XMCLib/inc\xmc_usic.h ****  * 				and \a oversampling. Maximum baudrate can be derived using the formula: (fperiph * 1023)/(10
 689:C:/Workspaces/DAVE-4.4.2-64Bit/RoverX/Libraries/XMCLib/inc\xmc_usic.h ****  * @param  oversampling Required oversampling. The value indicates the number of time quanta for on
 690:C:/Workspaces/DAVE-4.4.2-64Bit/RoverX/Libraries/XMCLib/inc\xmc_usic.h ****  * 						This can be related to the number of samples for each logic state of the data signal. \n
 691:C:/Workspaces/DAVE-4.4.2-64Bit/RoverX/Libraries/XMCLib/inc\xmc_usic.h ****  * 						\b Range: 1 to 32. Value should be chosen based on the protocol used.
 692:C:/Workspaces/DAVE-4.4.2-64Bit/RoverX/Libraries/XMCLib/inc\xmc_usic.h ****  * @return Status indicating the baudrate configuration.\n
 693:C:/Workspaces/DAVE-4.4.2-64Bit/RoverX/Libraries/XMCLib/inc\xmc_usic.h ****  * 			\b Range: @ref XMC_USIC_CH_STATUS_OK if baudrate is successfully configured,
 694:C:/Workspaces/DAVE-4.4.2-64Bit/RoverX/Libraries/XMCLib/inc\xmc_usic.h ****  * 					  @ref XMC_USIC_CH_STATUS_ERROR if desired baudrate or oversampling is invalid.
 695:C:/Workspaces/DAVE-4.4.2-64Bit/RoverX/Libraries/XMCLib/inc\xmc_usic.h ****  *
 696:C:/Workspaces/DAVE-4.4.2-64Bit/RoverX/Libraries/XMCLib/inc\xmc_usic.h ****  * \par<b>Description</b><br>
 697:C:/Workspaces/DAVE-4.4.2-64Bit/RoverX/Libraries/XMCLib/inc\xmc_usic.h ****  * Configures the baudrate of the USIC channel. \n\n
 698:C:/Workspaces/DAVE-4.4.2-64Bit/RoverX/Libraries/XMCLib/inc\xmc_usic.h ****  * Baudrate is configured by considering the peripheral frequency and the desired baudrate.
 699:C:/Workspaces/DAVE-4.4.2-64Bit/RoverX/Libraries/XMCLib/inc\xmc_usic.h ****  * Optimum values of FDR->STEP and BRG->PDIV are calulated and used for generating the desired
 700:C:/Workspaces/DAVE-4.4.2-64Bit/RoverX/Libraries/XMCLib/inc\xmc_usic.h ****  * baudrate.
 701:C:/Workspaces/DAVE-4.4.2-64Bit/RoverX/Libraries/XMCLib/inc\xmc_usic.h ****  *
 702:C:/Workspaces/DAVE-4.4.2-64Bit/RoverX/Libraries/XMCLib/inc\xmc_usic.h ****  * \par<b>Related APIs:</b><BR>
 703:C:/Workspaces/DAVE-4.4.2-64Bit/RoverX/Libraries/XMCLib/inc\xmc_usic.h ****  * XMC_USIC_CH_SetStartTransmisionMode(), XMC_USIC_CH_SetInputSource() \n\n\n
 704:C:/Workspaces/DAVE-4.4.2-64Bit/RoverX/Libraries/XMCLib/inc\xmc_usic.h ****  */
 705:C:/Workspaces/DAVE-4.4.2-64Bit/RoverX/Libraries/XMCLib/inc\xmc_usic.h **** XMC_USIC_CH_STATUS_t XMC_USIC_CH_SetBaudrate(XMC_USIC_CH_t *const channel, uint32_t rate, uint32_t 
 706:C:/Workspaces/DAVE-4.4.2-64Bit/RoverX/Libraries/XMCLib/inc\xmc_usic.h **** 
 707:C:/Workspaces/DAVE-4.4.2-64Bit/RoverX/Libraries/XMCLib/inc\xmc_usic.h **** /**
 708:C:/Workspaces/DAVE-4.4.2-64Bit/RoverX/Libraries/XMCLib/inc\xmc_usic.h ****  * @param  channel Pointer to USIC channel handler of type @ref XMC_USIC_CH_t \n
 709:C:/Workspaces/DAVE-4.4.2-64Bit/RoverX/Libraries/XMCLib/inc\xmc_usic.h ****  *           \b Range: @ref XMC_USIC0_CH0, @ref XMC_USIC0_CH1 to @ref XMC_USIC2_CH1 based on device
 710:C:/Workspaces/DAVE-4.4.2-64Bit/RoverX/Libraries/XMCLib/inc\xmc_usic.h ****  * @param  rate Desired baudrate. Only integer dividers of peripheral clock are achievable
 711:C:/Workspaces/DAVE-4.4.2-64Bit/RoverX/Libraries/XMCLib/inc\xmc_usic.h ****  * @param  oversampling Required oversampling. The value indicates the number of time quanta for on
 712:C:/Workspaces/DAVE-4.4.2-64Bit/RoverX/Libraries/XMCLib/inc\xmc_usic.h ****  *            This can be related to the number of samples for each logic state of the data signal.
 713:C:/Workspaces/DAVE-4.4.2-64Bit/RoverX/Libraries/XMCLib/inc\xmc_usic.h ****  *            \b Range: 1 to 32. Value should be chosen based on the protocol used.
 714:C:/Workspaces/DAVE-4.4.2-64Bit/RoverX/Libraries/XMCLib/inc\xmc_usic.h ****  * @return Status indicating the baudrate configuration.\n
 715:C:/Workspaces/DAVE-4.4.2-64Bit/RoverX/Libraries/XMCLib/inc\xmc_usic.h ****  *      \b Range: @ref XMC_USIC_CH_STATUS_OK if baudrate is successfully configured,
 716:C:/Workspaces/DAVE-4.4.2-64Bit/RoverX/Libraries/XMCLib/inc\xmc_usic.h ****  *            @ref XMC_USIC_CH_STATUS_ERROR if desired baudrate or oversampling is invalid.
 717:C:/Workspaces/DAVE-4.4.2-64Bit/RoverX/Libraries/XMCLib/inc\xmc_usic.h ****  *
 718:C:/Workspaces/DAVE-4.4.2-64Bit/RoverX/Libraries/XMCLib/inc\xmc_usic.h ****  * \par<b>Description</b><br>
 719:C:/Workspaces/DAVE-4.4.2-64Bit/RoverX/Libraries/XMCLib/inc\xmc_usic.h ****  * Configures the baudrate of the USIC channel using the integer divider which restrics the achieva
 720:C:/Workspaces/DAVE-4.4.2-64Bit/RoverX/Libraries/XMCLib/inc\xmc_usic.h ****  * Baudrate is configured by considering the peripheral frequency and the desired baudrate.
 721:C:/Workspaces/DAVE-4.4.2-64Bit/RoverX/Libraries/XMCLib/inc\xmc_usic.h ****  * Optimum values of FDR->STEP and BRG->PDIV are calulated and used for generating the desired
 722:C:/Workspaces/DAVE-4.4.2-64Bit/RoverX/Libraries/XMCLib/inc\xmc_usic.h ****  * baudrate.
 723:C:/Workspaces/DAVE-4.4.2-64Bit/RoverX/Libraries/XMCLib/inc\xmc_usic.h ****  *
 724:C:/Workspaces/DAVE-4.4.2-64Bit/RoverX/Libraries/XMCLib/inc\xmc_usic.h ****  * \par<b>Related APIs:</b><BR>
 725:C:/Workspaces/DAVE-4.4.2-64Bit/RoverX/Libraries/XMCLib/inc\xmc_usic.h ****  * XMC_USIC_CH_SetStartTransmisionMode(), XMC_USIC_CH_SetInputSource() \n\n\n
 726:C:/Workspaces/DAVE-4.4.2-64Bit/RoverX/Libraries/XMCLib/inc\xmc_usic.h ****  */
 727:C:/Workspaces/DAVE-4.4.2-64Bit/RoverX/Libraries/XMCLib/inc\xmc_usic.h **** XMC_USIC_CH_STATUS_t XMC_USIC_CH_SetBaudrateEx(XMC_USIC_CH_t *const channel, int32_t rate, int32_t 
 728:C:/Workspaces/DAVE-4.4.2-64Bit/RoverX/Libraries/XMCLib/inc\xmc_usic.h **** 
 729:C:/Workspaces/DAVE-4.4.2-64Bit/RoverX/Libraries/XMCLib/inc\xmc_usic.h **** /**
 730:C:/Workspaces/DAVE-4.4.2-64Bit/RoverX/Libraries/XMCLib/inc\xmc_usic.h ****  * @param  channel Pointer to USIC channel handler of type @ref XMC_USIC_CH_t \n
 731:C:/Workspaces/DAVE-4.4.2-64Bit/RoverX/Libraries/XMCLib/inc\xmc_usic.h ****  *           \b Range: @ref XMC_USIC0_CH0, @ref XMC_USIC0_CH1 to @ref XMC_USIC2_CH1 based on device
 732:C:/Workspaces/DAVE-4.4.2-64Bit/RoverX/Libraries/XMCLib/inc\xmc_usic.h ****  * @param  clksel Baudrate generator clock source.
 733:C:/Workspaces/DAVE-4.4.2-64Bit/RoverX/Libraries/XMCLib/inc\xmc_usic.h ****  * @param  pppen Enable 2:1 Divider for fPPP.
 734:C:/Workspaces/DAVE-4.4.2-64Bit/RoverX/Libraries/XMCLib/inc\xmc_usic.h ****  * @param  pdiv Divider Factor to generate fPDIV = fPPP / (pDIV + 1)
 735:C:/Workspaces/DAVE-4.4.2-64Bit/RoverX/Libraries/XMCLib/inc\xmc_usic.h ****  * @param  ctqsel Input selection for CTQ.
 736:C:/Workspaces/DAVE-4.4.2-64Bit/RoverX/Libraries/XMCLib/inc\xmc_usic.h ****  * @param  pctq Pre-Divider for Time Quanta Counter. fCTQIN / (PCQT + 1)
 737:C:/Workspaces/DAVE-4.4.2-64Bit/RoverX/Libraries/XMCLib/inc\xmc_usic.h ****  * @param  dctq Denominator for Time Quanta Counter. fTQ / (DCTQ + 1)
 738:C:/Workspaces/DAVE-4.4.2-64Bit/RoverX/Libraries/XMCLib/inc\xmc_usic.h ****  * @return None
 739:C:/Workspaces/DAVE-4.4.2-64Bit/RoverX/Libraries/XMCLib/inc\xmc_usic.h ****  *
 740:C:/Workspaces/DAVE-4.4.2-64Bit/RoverX/Libraries/XMCLib/inc\xmc_usic.h ****  * \par<b>Description</b><br>
 741:C:/Workspaces/DAVE-4.4.2-64Bit/RoverX/Libraries/XMCLib/inc\xmc_usic.h ****  * Configures the baudrate generator of the USIC channel.
 742:C:/Workspaces/DAVE-4.4.2-64Bit/RoverX/Libraries/XMCLib/inc\xmc_usic.h ****  *
 743:C:/Workspaces/DAVE-4.4.2-64Bit/RoverX/Libraries/XMCLib/inc\xmc_usic.h ****  * \par<b>Related APIs:</b><BR>
 744:C:/Workspaces/DAVE-4.4.2-64Bit/RoverX/Libraries/XMCLib/inc\xmc_usic.h ****  * XMC_USIC_CH_SetFractionalDivider() \n\n\n
 745:C:/Workspaces/DAVE-4.4.2-64Bit/RoverX/Libraries/XMCLib/inc\xmc_usic.h ****  */
 746:C:/Workspaces/DAVE-4.4.2-64Bit/RoverX/Libraries/XMCLib/inc\xmc_usic.h **** void XMC_USIC_CH_SetBaudrateDivider(XMC_USIC_CH_t *const channel, 
 747:C:/Workspaces/DAVE-4.4.2-64Bit/RoverX/Libraries/XMCLib/inc\xmc_usic.h ****                                     XMC_USIC_CH_BRG_CLOCK_SOURCE_t clksel,
 748:C:/Workspaces/DAVE-4.4.2-64Bit/RoverX/Libraries/XMCLib/inc\xmc_usic.h ****                                     bool pppen,
 749:C:/Workspaces/DAVE-4.4.2-64Bit/RoverX/Libraries/XMCLib/inc\xmc_usic.h ****                                     uint32_t pdiv,
 750:C:/Workspaces/DAVE-4.4.2-64Bit/RoverX/Libraries/XMCLib/inc\xmc_usic.h ****                                     XMC_USIC_CH_BRG_CTQSEL_t ctqsel,
 751:C:/Workspaces/DAVE-4.4.2-64Bit/RoverX/Libraries/XMCLib/inc\xmc_usic.h ****                                     uint32_t pctq,
 752:C:/Workspaces/DAVE-4.4.2-64Bit/RoverX/Libraries/XMCLib/inc\xmc_usic.h ****                                     uint32_t dctq);
 753:C:/Workspaces/DAVE-4.4.2-64Bit/RoverX/Libraries/XMCLib/inc\xmc_usic.h **** 
 754:C:/Workspaces/DAVE-4.4.2-64Bit/RoverX/Libraries/XMCLib/inc\xmc_usic.h **** /**
 755:C:/Workspaces/DAVE-4.4.2-64Bit/RoverX/Libraries/XMCLib/inc\xmc_usic.h ****  * @param  channel Pointer to USIC channel handler of type @ref XMC_USIC_CH_t \n
 756:C:/Workspaces/DAVE-4.4.2-64Bit/RoverX/Libraries/XMCLib/inc\xmc_usic.h ****  *           \b Range: @ref XMC_USIC0_CH0, @ref XMC_USIC0_CH1 to @ref XMC_USIC2_CH1 based on device
 757:C:/Workspaces/DAVE-4.4.2-64Bit/RoverX/Libraries/XMCLib/inc\xmc_usic.h ****  * @return baudrate currently used by USIC channel for .\n
 758:C:/Workspaces/DAVE-4.4.2-64Bit/RoverX/Libraries/XMCLib/inc\xmc_usic.h ****  *
 759:C:/Workspaces/DAVE-4.4.2-64Bit/RoverX/Libraries/XMCLib/inc\xmc_usic.h ****  * \par<b>Description</b><br>
 760:C:/Workspaces/DAVE-4.4.2-64Bit/RoverX/Libraries/XMCLib/inc\xmc_usic.h ****  * Calculates the current used baudrate (fCTQIN) of a USIC channel. \n\n
 761:C:/Workspaces/DAVE-4.4.2-64Bit/RoverX/Libraries/XMCLib/inc\xmc_usic.h ****  * @image html ../images/usic_brg.png
 762:C:/Workspaces/DAVE-4.4.2-64Bit/RoverX/Libraries/XMCLib/inc\xmc_usic.h ****  * @image latex ../images/usic_brg.png
 763:C:/Workspaces/DAVE-4.4.2-64Bit/RoverX/Libraries/XMCLib/inc\xmc_usic.h ****  *
 764:C:/Workspaces/DAVE-4.4.2-64Bit/RoverX/Libraries/XMCLib/inc\xmc_usic.h ****  * \par<b>Related APIs:</b><BR>
 765:C:/Workspaces/DAVE-4.4.2-64Bit/RoverX/Libraries/XMCLib/inc\xmc_usic.h ****  * XMC_USIC_CH_SetBaudrateMode(), XMC_USIC_CH_SetBaudrate(), XMC_USIC_CH_SetBaudrateEx() \n\n\n
 766:C:/Workspaces/DAVE-4.4.2-64Bit/RoverX/Libraries/XMCLib/inc\xmc_usic.h ****  */
 767:C:/Workspaces/DAVE-4.4.2-64Bit/RoverX/Libraries/XMCLib/inc\xmc_usic.h **** uint32_t XMC_USIC_CH_GetBaudrate(XMC_USIC_CH_t *const channel);
 768:C:/Workspaces/DAVE-4.4.2-64Bit/RoverX/Libraries/XMCLib/inc\xmc_usic.h **** 
 769:C:/Workspaces/DAVE-4.4.2-64Bit/RoverX/Libraries/XMCLib/inc\xmc_usic.h **** /**
 770:C:/Workspaces/DAVE-4.4.2-64Bit/RoverX/Libraries/XMCLib/inc\xmc_usic.h ****  * @param  channel Pointer to USIC channel handler of type @ref XMC_USIC_CH_t \n
 771:C:/Workspaces/DAVE-4.4.2-64Bit/RoverX/Libraries/XMCLib/inc\xmc_usic.h ****  *           \b Range: @ref XMC_USIC0_CH0, @ref XMC_USIC0_CH1 to @ref XMC_USIC2_CH1 based on device
 772:C:/Workspaces/DAVE-4.4.2-64Bit/RoverX/Libraries/XMCLib/inc\xmc_usic.h ****  * @return baudrate currently used by USIC channel.\n
 773:C:/Workspaces/DAVE-4.4.2-64Bit/RoverX/Libraries/XMCLib/inc\xmc_usic.h ****  *
 774:C:/Workspaces/DAVE-4.4.2-64Bit/RoverX/Libraries/XMCLib/inc\xmc_usic.h ****  * \par<b>Description</b><br>
 775:C:/Workspaces/DAVE-4.4.2-64Bit/RoverX/Libraries/XMCLib/inc\xmc_usic.h ****  * Calculates the current used SCLK frequency of a USIC channel. \n\n
 776:C:/Workspaces/DAVE-4.4.2-64Bit/RoverX/Libraries/XMCLib/inc\xmc_usic.h ****  * @image html ../images/usic_brg.png
 777:C:/Workspaces/DAVE-4.4.2-64Bit/RoverX/Libraries/XMCLib/inc\xmc_usic.h ****  * @image latex ../images/usic_brg.png
 778:C:/Workspaces/DAVE-4.4.2-64Bit/RoverX/Libraries/XMCLib/inc\xmc_usic.h ****  *
 779:C:/Workspaces/DAVE-4.4.2-64Bit/RoverX/Libraries/XMCLib/inc\xmc_usic.h ****  * \par<b>Related APIs:</b><BR>
 780:C:/Workspaces/DAVE-4.4.2-64Bit/RoverX/Libraries/XMCLib/inc\xmc_usic.h ****  * XMC_USIC_CH_SetBaudrateMode(), XMC_USIC_CH_SetBaudrate(), XMC_USIC_CH_SetBaudrateEx() \n\n\n
 781:C:/Workspaces/DAVE-4.4.2-64Bit/RoverX/Libraries/XMCLib/inc\xmc_usic.h ****  */
 782:C:/Workspaces/DAVE-4.4.2-64Bit/RoverX/Libraries/XMCLib/inc\xmc_usic.h **** uint32_t XMC_USIC_CH_GetSCLKFrequency(XMC_USIC_CH_t *const channel);
 783:C:/Workspaces/DAVE-4.4.2-64Bit/RoverX/Libraries/XMCLib/inc\xmc_usic.h **** 
 784:C:/Workspaces/DAVE-4.4.2-64Bit/RoverX/Libraries/XMCLib/inc\xmc_usic.h **** /**
 785:C:/Workspaces/DAVE-4.4.2-64Bit/RoverX/Libraries/XMCLib/inc\xmc_usic.h ****  * @param  channel Pointer to USIC channel handler of type @ref XMC_USIC_CH_t \n
 786:C:/Workspaces/DAVE-4.4.2-64Bit/RoverX/Libraries/XMCLib/inc\xmc_usic.h ****  *           \b Range: @ref XMC_USIC0_CH0, @ref XMC_USIC0_CH1 to @ref XMC_USIC2_CH1 based on device
 787:C:/Workspaces/DAVE-4.4.2-64Bit/RoverX/Libraries/XMCLib/inc\xmc_usic.h ****  * @return baudrate currently used by USIC channel.\n
 788:C:/Workspaces/DAVE-4.4.2-64Bit/RoverX/Libraries/XMCLib/inc\xmc_usic.h ****  *
 789:C:/Workspaces/DAVE-4.4.2-64Bit/RoverX/Libraries/XMCLib/inc\xmc_usic.h ****  * \par<b>Description</b><br>
 790:C:/Workspaces/DAVE-4.4.2-64Bit/RoverX/Libraries/XMCLib/inc\xmc_usic.h ****  * Calculates the current used MCLK frequency of a USIC channel. \n\n
 791:C:/Workspaces/DAVE-4.4.2-64Bit/RoverX/Libraries/XMCLib/inc\xmc_usic.h ****  * @image html ../images/usic_brg.png
 792:C:/Workspaces/DAVE-4.4.2-64Bit/RoverX/Libraries/XMCLib/inc\xmc_usic.h ****  * @image latex ../images/usic_brg.png
 793:C:/Workspaces/DAVE-4.4.2-64Bit/RoverX/Libraries/XMCLib/inc\xmc_usic.h ****  *
 794:C:/Workspaces/DAVE-4.4.2-64Bit/RoverX/Libraries/XMCLib/inc\xmc_usic.h ****  * \par<b>Related APIs:</b><BR>
 795:C:/Workspaces/DAVE-4.4.2-64Bit/RoverX/Libraries/XMCLib/inc\xmc_usic.h ****  * XMC_USIC_CH_SetBaudrateMode(), XMC_USIC_CH_SetBaudrate(), XMC_USIC_CH_SetBaudrateEx() \n\n\n
 796:C:/Workspaces/DAVE-4.4.2-64Bit/RoverX/Libraries/XMCLib/inc\xmc_usic.h ****  */
 797:C:/Workspaces/DAVE-4.4.2-64Bit/RoverX/Libraries/XMCLib/inc\xmc_usic.h **** uint32_t XMC_USIC_CH_GetMCLKFrequency(XMC_USIC_CH_t *const channel);
 798:C:/Workspaces/DAVE-4.4.2-64Bit/RoverX/Libraries/XMCLib/inc\xmc_usic.h **** 
 799:C:/Workspaces/DAVE-4.4.2-64Bit/RoverX/Libraries/XMCLib/inc\xmc_usic.h **** /**
 800:C:/Workspaces/DAVE-4.4.2-64Bit/RoverX/Libraries/XMCLib/inc\xmc_usic.h ****  * @param  channel Pointer to USIC channel handler of type @ref XMC_USIC_CH_t \n
 801:C:/Workspaces/DAVE-4.4.2-64Bit/RoverX/Libraries/XMCLib/inc\xmc_usic.h ****  * 				   \b Range: @ref XMC_USIC0_CH0, @ref XMC_USIC0_CH1 to @ref XMC_USIC2_CH1 based on device su
 802:C:/Workspaces/DAVE-4.4.2-64Bit/RoverX/Libraries/XMCLib/inc\xmc_usic.h ****  * @param  pdiv Desired divider for the external frequency input. \b Range: minimum value = 1, maxi
 803:C:/Workspaces/DAVE-4.4.2-64Bit/RoverX/Libraries/XMCLib/inc\xmc_usic.h ****  * @param  oversampling Required oversampling. The value indicates the number of time quanta for on
 804:C:/Workspaces/DAVE-4.4.2-64Bit/RoverX/Libraries/XMCLib/inc\xmc_usic.h ****  * 						This can be related to the number of samples for each logic state of the data signal. \n
 805:C:/Workspaces/DAVE-4.4.2-64Bit/RoverX/Libraries/XMCLib/inc\xmc_usic.h ****  * 						\b Range: 1 to 32. Value should be chosen based on the protocol used.
 806:C:/Workspaces/DAVE-4.4.2-64Bit/RoverX/Libraries/XMCLib/inc\xmc_usic.h ****  * @param  combination_mode Selects which edge of the synchronized(and optionally filtered) signal 
 807:C:/Workspaces/DAVE-4.4.2-64Bit/RoverX/Libraries/XMCLib/inc\xmc_usic.h ****  *                          output DXnT of the input stage.
 808:C:/Workspaces/DAVE-4.4.2-64Bit/RoverX/Libraries/XMCLib/inc\xmc_usic.h ****  *
 809:C:/Workspaces/DAVE-4.4.2-64Bit/RoverX/Libraries/XMCLib/inc\xmc_usic.h ****  * @return None
 810:C:/Workspaces/DAVE-4.4.2-64Bit/RoverX/Libraries/XMCLib/inc\xmc_usic.h ****  *
 811:C:/Workspaces/DAVE-4.4.2-64Bit/RoverX/Libraries/XMCLib/inc\xmc_usic.h ****  * \par<b>Description</b><br>
 812:C:/Workspaces/DAVE-4.4.2-64Bit/RoverX/Libraries/XMCLib/inc\xmc_usic.h ****  * Enables the external frequency input for the Baudrate Generator and configures the divider, over
 813:C:/Workspaces/DAVE-4.4.2-64Bit/RoverX/Libraries/XMCLib/inc\xmc_usic.h ****  * the combination mode of the USIC channel. \n\n
 814:C:/Workspaces/DAVE-4.4.2-64Bit/RoverX/Libraries/XMCLib/inc\xmc_usic.h ****  *
 815:C:/Workspaces/DAVE-4.4.2-64Bit/RoverX/Libraries/XMCLib/inc\xmc_usic.h ****  * \par<b>Related APIs:</b><BR>
 816:C:/Workspaces/DAVE-4.4.2-64Bit/RoverX/Libraries/XMCLib/inc\xmc_usic.h ****  * XMC_USIC_CH_SetBRGInputClockSource(), XMC_USIC_CH_SetInputTriggerCombinationMode() \n\n\n
 817:C:/Workspaces/DAVE-4.4.2-64Bit/RoverX/Libraries/XMCLib/inc\xmc_usic.h ****  */
 818:C:/Workspaces/DAVE-4.4.2-64Bit/RoverX/Libraries/XMCLib/inc\xmc_usic.h **** void XMC_USIC_CH_ConfigExternalInputSignalToBRG(XMC_USIC_CH_t *const channel,
 819:C:/Workspaces/DAVE-4.4.2-64Bit/RoverX/Libraries/XMCLib/inc\xmc_usic.h ****     const uint16_t pdiv,
 820:C:/Workspaces/DAVE-4.4.2-64Bit/RoverX/Libraries/XMCLib/inc\xmc_usic.h ****     const uint32_t oversampling,
 821:C:/Workspaces/DAVE-4.4.2-64Bit/RoverX/Libraries/XMCLib/inc\xmc_usic.h ****     const XMC_USIC_CH_INPUT_COMBINATION_MODE_t combination_mode);
 822:C:/Workspaces/DAVE-4.4.2-64Bit/RoverX/Libraries/XMCLib/inc\xmc_usic.h **** 
 823:C:/Workspaces/DAVE-4.4.2-64Bit/RoverX/Libraries/XMCLib/inc\xmc_usic.h **** /**
 824:C:/Workspaces/DAVE-4.4.2-64Bit/RoverX/Libraries/XMCLib/inc\xmc_usic.h ****  * @param  channel Pointer to USIC channel handler of type @ref XMC_USIC_CH_t \n
 825:C:/Workspaces/DAVE-4.4.2-64Bit/RoverX/Libraries/XMCLib/inc\xmc_usic.h ****  * 				   \b Range: @ref XMC_USIC0_CH0, @ref XMC_USIC0_CH1 to @ref XMC_USIC2_CH1 based on device su
 826:C:/Workspaces/DAVE-4.4.2-64Bit/RoverX/Libraries/XMCLib/inc\xmc_usic.h ****  * @param  input USIC channel input stage of type @ref XMC_USIC_CH_INPUT_t. \n
 827:C:/Workspaces/DAVE-4.4.2-64Bit/RoverX/Libraries/XMCLib/inc\xmc_usic.h ****  * 				 \b Range: @ref XMC_USIC_CH_INPUT_DX0 to @ref XMC_USIC_CH_INPUT_DX5
 828:C:/Workspaces/DAVE-4.4.2-64Bit/RoverX/Libraries/XMCLib/inc\xmc_usic.h ****  * @param  source Input source select for the input stage. The table below maps the enum value with
 829:C:/Workspaces/DAVE-4.4.2-64Bit/RoverX/Libraries/XMCLib/inc\xmc_usic.h ****  * <table><tr><td>0</td><td>DXnA</td></tr><tr><td>1</td><td>DXnB</td></tr><tr><td>2</td><td>DXnC</t
 830:C:/Workspaces/DAVE-4.4.2-64Bit/RoverX/Libraries/XMCLib/inc\xmc_usic.h ****  * <tr><td>4</td><td>DXnE</td></tr><tr><td>5</td><td>DXnF</td></tr><tr><td>6</td><td>DXnG</td></tr>
 831:C:/Workspaces/DAVE-4.4.2-64Bit/RoverX/Libraries/XMCLib/inc\xmc_usic.h ****  * </tr></table>
 832:C:/Workspaces/DAVE-4.4.2-64Bit/RoverX/Libraries/XMCLib/inc\xmc_usic.h ****  * @return None
 833:C:/Workspaces/DAVE-4.4.2-64Bit/RoverX/Libraries/XMCLib/inc\xmc_usic.h ****  *
 834:C:/Workspaces/DAVE-4.4.2-64Bit/RoverX/Libraries/XMCLib/inc\xmc_usic.h ****  * \par<b>Description</b><br>
 835:C:/Workspaces/DAVE-4.4.2-64Bit/RoverX/Libraries/XMCLib/inc\xmc_usic.h ****  * Selects the data source for USIC input stage.\n\n
 836:C:/Workspaces/DAVE-4.4.2-64Bit/RoverX/Libraries/XMCLib/inc\xmc_usic.h ****  * Selects the input data signal source among DXnA, DXnB.. DXnG for the input stage. The API can be
 837:C:/Workspaces/DAVE-4.4.2-64Bit/RoverX/Libraries/XMCLib/inc\xmc_usic.h ****  * like DX0CR, DX1CR etc.
 838:C:/Workspaces/DAVE-4.4.2-64Bit/RoverX/Libraries/XMCLib/inc\xmc_usic.h ****  *
 839:C:/Workspaces/DAVE-4.4.2-64Bit/RoverX/Libraries/XMCLib/inc\xmc_usic.h ****  * \par<b>Related APIs:</b><BR>
 840:C:/Workspaces/DAVE-4.4.2-64Bit/RoverX/Libraries/XMCLib/inc\xmc_usic.h ****  * XMC_USIC_CH_EnableInputInversion(), XMC_USIC_CH_EnableInputDigitalFilter(), XMC_USIC_CH_EnableIn
 841:C:/Workspaces/DAVE-4.4.2-64Bit/RoverX/Libraries/XMCLib/inc\xmc_usic.h ****  * XMC_USIC_CH_SetInputSamplingFreq()\n\n\n
 842:C:/Workspaces/DAVE-4.4.2-64Bit/RoverX/Libraries/XMCLib/inc\xmc_usic.h ****  */
 843:C:/Workspaces/DAVE-4.4.2-64Bit/RoverX/Libraries/XMCLib/inc\xmc_usic.h **** __STATIC_INLINE void XMC_USIC_CH_SetInputSource(XMC_USIC_CH_t *const channel, const XMC_USIC_CH_INP
 844:C:/Workspaces/DAVE-4.4.2-64Bit/RoverX/Libraries/XMCLib/inc\xmc_usic.h **** {
 219              	 .loc 2 844 0
 220              	 .cfi_startproc
 221 0000 80B5     	 push {r7,lr}
 222              	.LCFI6:
 223              	 .cfi_def_cfa_offset 8
 224              	 .cfi_offset 7,-8
 225              	 .cfi_offset 14,-4
 226 0002 82B0     	 sub sp,sp,#8
 227              	.LCFI7:
 228              	 .cfi_def_cfa_offset 16
 229 0004 00AF     	 add r7,sp,#0
 230              	.LCFI8:
 231              	 .cfi_def_cfa_register 7
 232 0006 7860     	 str r0,[r7,#4]
 233 0008 081C     	 mov r0,r1
 234 000a 111C     	 mov r1,r2
 235 000c FB1C     	 add r3,r7,#3
 236 000e 021C     	 add r2,r0,#0
 237 0010 1A70     	 strb r2,[r3]
 238 0012 BB1C     	 add r3,r7,#2
 239 0014 0A1C     	 add r2,r1,#0
 240 0016 1A70     	 strb r2,[r3]
 845:C:/Workspaces/DAVE-4.4.2-64Bit/RoverX/Libraries/XMCLib/inc\xmc_usic.h ****   channel->DXCR[input] = (uint32_t)((channel->DXCR[input] & (uint32_t)(~USIC_CH_DXCR_DSEL_Msk)) |
 241              	 .loc 2 845 0
 242 0018 FB1C     	 add r3,r7,#3
 243 001a 1878     	 ldrb r0,[r3]
 244 001c FB1C     	 add r3,r7,#3
 245 001e 1B78     	 ldrb r3,[r3]
 246 0020 7A68     	 ldr r2,[r7,#4]
 247 0022 0633     	 add r3,r3,#6
 248 0024 9B00     	 lsl r3,r3,#2
 249 0026 D318     	 add r3,r2,r3
 250 0028 5B68     	 ldr r3,[r3,#4]
 251 002a 0722     	 mov r2,#7
 252 002c 9343     	 bic r3,r2
 253 002e 1A1C     	 mov r2,r3
 846:C:/Workspaces/DAVE-4.4.2-64Bit/RoverX/Libraries/XMCLib/inc\xmc_usic.h ****                                     ((uint32_t)source << USIC_CH_DXCR_DSEL_Pos));
 254              	 .loc 2 846 0
 255 0030 BB1C     	 add r3,r7,#2
 256 0032 1B78     	 ldrb r3,[r3]
 845:C:/Workspaces/DAVE-4.4.2-64Bit/RoverX/Libraries/XMCLib/inc\xmc_usic.h ****   channel->DXCR[input] = (uint32_t)((channel->DXCR[input] & (uint32_t)(~USIC_CH_DXCR_DSEL_Msk)) |
 257              	 .loc 2 845 0
 258 0034 1A43     	 orr r2,r3
 259 0036 7968     	 ldr r1,[r7,#4]
 260 0038 831D     	 add r3,r0,#6
 261 003a 9B00     	 lsl r3,r3,#2
 262 003c CB18     	 add r3,r1,r3
 263 003e 5A60     	 str r2,[r3,#4]
 847:C:/Workspaces/DAVE-4.4.2-64Bit/RoverX/Libraries/XMCLib/inc\xmc_usic.h **** }
 264              	 .loc 2 847 0
 265 0040 BD46     	 mov sp,r7
 266 0042 02B0     	 add sp,sp,#8
 267              	 
 268 0044 80BD     	 pop {r7,pc}
 269              	 .cfi_endproc
 270              	.LFE74:
 272 0046 C046     	 .section .text.XMC_USIC_CH_SetWordLength,"ax",%progbits
 273              	 .align 2
 274              	 .code 16
 275              	 .thumb_func
 277              	XMC_USIC_CH_SetWordLength:
 278              	.LFB90:
 848:C:/Workspaces/DAVE-4.4.2-64Bit/RoverX/Libraries/XMCLib/inc\xmc_usic.h **** /**
 849:C:/Workspaces/DAVE-4.4.2-64Bit/RoverX/Libraries/XMCLib/inc\xmc_usic.h ****  * @param  channel Pointer to USIC channel handler of type @ref XMC_USIC_CH_t \n
 850:C:/Workspaces/DAVE-4.4.2-64Bit/RoverX/Libraries/XMCLib/inc\xmc_usic.h ****  * 				   \b Range: @ref XMC_USIC0_CH0, @ref XMC_USIC0_CH1 to @ref XMC_USIC2_CH1 based on device su
 851:C:/Workspaces/DAVE-4.4.2-64Bit/RoverX/Libraries/XMCLib/inc\xmc_usic.h ****  * @param  input USIC channel input stage of type @ref XMC_USIC_CH_INPUT_t. \n
 852:C:/Workspaces/DAVE-4.4.2-64Bit/RoverX/Libraries/XMCLib/inc\xmc_usic.h ****  * 				 \b Range: @ref XMC_USIC_CH_INPUT_DX0 to @ref XMC_USIC_CH_INPUT_DX5
 853:C:/Workspaces/DAVE-4.4.2-64Bit/RoverX/Libraries/XMCLib/inc\xmc_usic.h ****  * @return None
 854:C:/Workspaces/DAVE-4.4.2-64Bit/RoverX/Libraries/XMCLib/inc\xmc_usic.h ****  *
 855:C:/Workspaces/DAVE-4.4.2-64Bit/RoverX/Libraries/XMCLib/inc\xmc_usic.h ****  * \par<b>Description</b><br>
 856:C:/Workspaces/DAVE-4.4.2-64Bit/RoverX/Libraries/XMCLib/inc\xmc_usic.h ****  * The input of the data shift unit is controlled by the
 857:C:/Workspaces/DAVE-4.4.2-64Bit/RoverX/Libraries/XMCLib/inc\xmc_usic.h ****  * protocol pre-processor. \n\n
 858:C:/Workspaces/DAVE-4.4.2-64Bit/RoverX/Libraries/XMCLib/inc\xmc_usic.h ****  *
 859:C:/Workspaces/DAVE-4.4.2-64Bit/RoverX/Libraries/XMCLib/inc\xmc_usic.h ****  * \par<b>Related APIs:</b><BR>
 860:C:/Workspaces/DAVE-4.4.2-64Bit/RoverX/Libraries/XMCLib/inc\xmc_usic.h ****  * XMC_USIC_CH_ConnectInputDataShiftToDataInput()\n\n\n
 861:C:/Workspaces/DAVE-4.4.2-64Bit/RoverX/Libraries/XMCLib/inc\xmc_usic.h ****  */
 862:C:/Workspaces/DAVE-4.4.2-64Bit/RoverX/Libraries/XMCLib/inc\xmc_usic.h **** __STATIC_INLINE void XMC_USIC_CH_ConnectInputDataShiftToPPP(XMC_USIC_CH_t *const channel, const XMC
 863:C:/Workspaces/DAVE-4.4.2-64Bit/RoverX/Libraries/XMCLib/inc\xmc_usic.h **** {
 864:C:/Workspaces/DAVE-4.4.2-64Bit/RoverX/Libraries/XMCLib/inc\xmc_usic.h ****   channel->DXCR[input] &= (uint32_t)~USIC_CH_DXCR_INSW_Msk;
 865:C:/Workspaces/DAVE-4.4.2-64Bit/RoverX/Libraries/XMCLib/inc\xmc_usic.h **** }
 866:C:/Workspaces/DAVE-4.4.2-64Bit/RoverX/Libraries/XMCLib/inc\xmc_usic.h **** 
 867:C:/Workspaces/DAVE-4.4.2-64Bit/RoverX/Libraries/XMCLib/inc\xmc_usic.h **** /**
 868:C:/Workspaces/DAVE-4.4.2-64Bit/RoverX/Libraries/XMCLib/inc\xmc_usic.h ****  * @param  channel Pointer to USIC channel handler of type @ref XMC_USIC_CH_t \n
 869:C:/Workspaces/DAVE-4.4.2-64Bit/RoverX/Libraries/XMCLib/inc\xmc_usic.h ****  * 				   \b Range: @ref XMC_USIC0_CH0, @ref XMC_USIC0_CH1 to @ref XMC_USIC2_CH1 based on device su
 870:C:/Workspaces/DAVE-4.4.2-64Bit/RoverX/Libraries/XMCLib/inc\xmc_usic.h ****  * @param  input USIC channel input stage of type @ref XMC_USIC_CH_INPUT_t. \n
 871:C:/Workspaces/DAVE-4.4.2-64Bit/RoverX/Libraries/XMCLib/inc\xmc_usic.h ****  * 				 \b Range: @ref XMC_USIC_CH_INPUT_DX0 to @ref XMC_USIC_CH_INPUT_DX5
 872:C:/Workspaces/DAVE-4.4.2-64Bit/RoverX/Libraries/XMCLib/inc\xmc_usic.h ****  * @return None
 873:C:/Workspaces/DAVE-4.4.2-64Bit/RoverX/Libraries/XMCLib/inc\xmc_usic.h ****  *
 874:C:/Workspaces/DAVE-4.4.2-64Bit/RoverX/Libraries/XMCLib/inc\xmc_usic.h ****  * \par<b>Description</b><br>
 875:C:/Workspaces/DAVE-4.4.2-64Bit/RoverX/Libraries/XMCLib/inc\xmc_usic.h ****  * The input of the data shift unit is connected to
 876:C:/Workspaces/DAVE-4.4.2-64Bit/RoverX/Libraries/XMCLib/inc\xmc_usic.h ****  * the selected data input line. \n\n
 877:C:/Workspaces/DAVE-4.4.2-64Bit/RoverX/Libraries/XMCLib/inc\xmc_usic.h ****  *
 878:C:/Workspaces/DAVE-4.4.2-64Bit/RoverX/Libraries/XMCLib/inc\xmc_usic.h ****  * This setting is used
 879:C:/Workspaces/DAVE-4.4.2-64Bit/RoverX/Libraries/XMCLib/inc\xmc_usic.h ****  * if the signals are directly derived from an input
 880:C:/Workspaces/DAVE-4.4.2-64Bit/RoverX/Libraries/XMCLib/inc\xmc_usic.h ****  * pin without treatment by the protocol preprocessor.
 881:C:/Workspaces/DAVE-4.4.2-64Bit/RoverX/Libraries/XMCLib/inc\xmc_usic.h ****  * \par<b>Related APIs:</b><BR>
 882:C:/Workspaces/DAVE-4.4.2-64Bit/RoverX/Libraries/XMCLib/inc\xmc_usic.h ****  * XMC_USIC_CH_ConnectInputDataShiftToPPP()\n\n\n
 883:C:/Workspaces/DAVE-4.4.2-64Bit/RoverX/Libraries/XMCLib/inc\xmc_usic.h ****  */
 884:C:/Workspaces/DAVE-4.4.2-64Bit/RoverX/Libraries/XMCLib/inc\xmc_usic.h **** __STATIC_INLINE void XMC_USIC_CH_ConnectInputDataShiftToDataInput(XMC_USIC_CH_t *const channel, con
 885:C:/Workspaces/DAVE-4.4.2-64Bit/RoverX/Libraries/XMCLib/inc\xmc_usic.h **** {
 886:C:/Workspaces/DAVE-4.4.2-64Bit/RoverX/Libraries/XMCLib/inc\xmc_usic.h ****   channel->DXCR[input] |= USIC_CH_DXCR_INSW_Msk;
 887:C:/Workspaces/DAVE-4.4.2-64Bit/RoverX/Libraries/XMCLib/inc\xmc_usic.h **** }
 888:C:/Workspaces/DAVE-4.4.2-64Bit/RoverX/Libraries/XMCLib/inc\xmc_usic.h **** 
 889:C:/Workspaces/DAVE-4.4.2-64Bit/RoverX/Libraries/XMCLib/inc\xmc_usic.h **** /**
 890:C:/Workspaces/DAVE-4.4.2-64Bit/RoverX/Libraries/XMCLib/inc\xmc_usic.h ****  * @param  channel Pointer to USIC channel handler of type @ref XMC_USIC_CH_t \n
 891:C:/Workspaces/DAVE-4.4.2-64Bit/RoverX/Libraries/XMCLib/inc\xmc_usic.h ****  * 				   \b Range: @ref XMC_USIC0_CH0, @ref XMC_USIC0_CH1 to @ref XMC_USIC2_CH1 based on device su
 892:C:/Workspaces/DAVE-4.4.2-64Bit/RoverX/Libraries/XMCLib/inc\xmc_usic.h ****  * @param  input USIC channel input stage of type @ref XMC_USIC_CH_INPUT_t. \n
 893:C:/Workspaces/DAVE-4.4.2-64Bit/RoverX/Libraries/XMCLib/inc\xmc_usic.h ****  * 				 \b Range: @ref XMC_USIC_CH_INPUT_DX0 to @ref XMC_USIC_CH_INPUT_DX5
 894:C:/Workspaces/DAVE-4.4.2-64Bit/RoverX/Libraries/XMCLib/inc\xmc_usic.h ****  * @return None
 895:C:/Workspaces/DAVE-4.4.2-64Bit/RoverX/Libraries/XMCLib/inc\xmc_usic.h ****  *
 896:C:/Workspaces/DAVE-4.4.2-64Bit/RoverX/Libraries/XMCLib/inc\xmc_usic.h ****  * \par<b>Description</b><br>
 897:C:/Workspaces/DAVE-4.4.2-64Bit/RoverX/Libraries/XMCLib/inc\xmc_usic.h ****  * Enables input inversion for USIC channel input data signal. \n\n
 898:C:/Workspaces/DAVE-4.4.2-64Bit/RoverX/Libraries/XMCLib/inc\xmc_usic.h ****  *
 899:C:/Workspaces/DAVE-4.4.2-64Bit/RoverX/Libraries/XMCLib/inc\xmc_usic.h ****  * Polarity of the input source can be changed to provide inverted data input.
 900:C:/Workspaces/DAVE-4.4.2-64Bit/RoverX/Libraries/XMCLib/inc\xmc_usic.h ****  * \par<b>Related APIs:</b><BR>
 901:C:/Workspaces/DAVE-4.4.2-64Bit/RoverX/Libraries/XMCLib/inc\xmc_usic.h ****  * XMC_USIC_CH_DisableInputInversion()\n\n\n
 902:C:/Workspaces/DAVE-4.4.2-64Bit/RoverX/Libraries/XMCLib/inc\xmc_usic.h ****  */
 903:C:/Workspaces/DAVE-4.4.2-64Bit/RoverX/Libraries/XMCLib/inc\xmc_usic.h **** __STATIC_INLINE void XMC_USIC_CH_EnableInputInversion(XMC_USIC_CH_t *const channel, const XMC_USIC_
 904:C:/Workspaces/DAVE-4.4.2-64Bit/RoverX/Libraries/XMCLib/inc\xmc_usic.h **** {
 905:C:/Workspaces/DAVE-4.4.2-64Bit/RoverX/Libraries/XMCLib/inc\xmc_usic.h ****   channel->DXCR[input] |= USIC_CH_DXCR_DPOL_Msk;
 906:C:/Workspaces/DAVE-4.4.2-64Bit/RoverX/Libraries/XMCLib/inc\xmc_usic.h **** }
 907:C:/Workspaces/DAVE-4.4.2-64Bit/RoverX/Libraries/XMCLib/inc\xmc_usic.h **** 
 908:C:/Workspaces/DAVE-4.4.2-64Bit/RoverX/Libraries/XMCLib/inc\xmc_usic.h **** /**
 909:C:/Workspaces/DAVE-4.4.2-64Bit/RoverX/Libraries/XMCLib/inc\xmc_usic.h ****  * @param  channel Pointer to USIC channel handler of type @ref XMC_USIC_CH_t \n
 910:C:/Workspaces/DAVE-4.4.2-64Bit/RoverX/Libraries/XMCLib/inc\xmc_usic.h ****  * 				   \b Range: @ref XMC_USIC0_CH0, @ref XMC_USIC0_CH1 to @ref XMC_USIC2_CH1 based on device su
 911:C:/Workspaces/DAVE-4.4.2-64Bit/RoverX/Libraries/XMCLib/inc\xmc_usic.h ****  * @param  input USIC channel input stage of type @ref XMC_USIC_CH_INPUT_t. \n
 912:C:/Workspaces/DAVE-4.4.2-64Bit/RoverX/Libraries/XMCLib/inc\xmc_usic.h ****  * 				 \b Range: @ref XMC_USIC_CH_INPUT_DX0 to @ref XMC_USIC_CH_INPUT_DX5
 913:C:/Workspaces/DAVE-4.4.2-64Bit/RoverX/Libraries/XMCLib/inc\xmc_usic.h ****  * @return None
 914:C:/Workspaces/DAVE-4.4.2-64Bit/RoverX/Libraries/XMCLib/inc\xmc_usic.h ****  *
 915:C:/Workspaces/DAVE-4.4.2-64Bit/RoverX/Libraries/XMCLib/inc\xmc_usic.h ****  * \par<b>Description</b><br>
 916:C:/Workspaces/DAVE-4.4.2-64Bit/RoverX/Libraries/XMCLib/inc\xmc_usic.h ****  * Disables input inversion for USIC channel. \n\n
 917:C:/Workspaces/DAVE-4.4.2-64Bit/RoverX/Libraries/XMCLib/inc\xmc_usic.h ****  *
 918:C:/Workspaces/DAVE-4.4.2-64Bit/RoverX/Libraries/XMCLib/inc\xmc_usic.h ****  * Resets the input data polarity for the USIC channel input data signal.
 919:C:/Workspaces/DAVE-4.4.2-64Bit/RoverX/Libraries/XMCLib/inc\xmc_usic.h ****  * \par<b>Related APIs:</b><BR>
 920:C:/Workspaces/DAVE-4.4.2-64Bit/RoverX/Libraries/XMCLib/inc\xmc_usic.h ****  * XMC_USIC_CH_EnableInputInversion()\n\n\n
 921:C:/Workspaces/DAVE-4.4.2-64Bit/RoverX/Libraries/XMCLib/inc\xmc_usic.h ****  */
 922:C:/Workspaces/DAVE-4.4.2-64Bit/RoverX/Libraries/XMCLib/inc\xmc_usic.h **** __STATIC_INLINE void XMC_USIC_CH_DisableInputInversion(XMC_USIC_CH_t *const channel, const XMC_USIC
 923:C:/Workspaces/DAVE-4.4.2-64Bit/RoverX/Libraries/XMCLib/inc\xmc_usic.h **** {
 924:C:/Workspaces/DAVE-4.4.2-64Bit/RoverX/Libraries/XMCLib/inc\xmc_usic.h ****   channel->DXCR[input] &= (uint32_t)~USIC_CH_DXCR_DPOL_Msk;
 925:C:/Workspaces/DAVE-4.4.2-64Bit/RoverX/Libraries/XMCLib/inc\xmc_usic.h **** }
 926:C:/Workspaces/DAVE-4.4.2-64Bit/RoverX/Libraries/XMCLib/inc\xmc_usic.h **** 
 927:C:/Workspaces/DAVE-4.4.2-64Bit/RoverX/Libraries/XMCLib/inc\xmc_usic.h **** /**
 928:C:/Workspaces/DAVE-4.4.2-64Bit/RoverX/Libraries/XMCLib/inc\xmc_usic.h ****  * @param  channel Pointer to USIC channel handler of type @ref XMC_USIC_CH_t \n
 929:C:/Workspaces/DAVE-4.4.2-64Bit/RoverX/Libraries/XMCLib/inc\xmc_usic.h ****  * 				   \b Range: @ref XMC_USIC0_CH0, @ref XMC_USIC0_CH1 to @ref XMC_USIC2_CH1 based on device su
 930:C:/Workspaces/DAVE-4.4.2-64Bit/RoverX/Libraries/XMCLib/inc\xmc_usic.h ****  * @return None
 931:C:/Workspaces/DAVE-4.4.2-64Bit/RoverX/Libraries/XMCLib/inc\xmc_usic.h ****  *
 932:C:/Workspaces/DAVE-4.4.2-64Bit/RoverX/Libraries/XMCLib/inc\xmc_usic.h ****  * \par<b>Description</b><br>
 933:C:/Workspaces/DAVE-4.4.2-64Bit/RoverX/Libraries/XMCLib/inc\xmc_usic.h ****  * Enables delay compensation. \n\n
 934:C:/Workspaces/DAVE-4.4.2-64Bit/RoverX/Libraries/XMCLib/inc\xmc_usic.h ****  *
 935:C:/Workspaces/DAVE-4.4.2-64Bit/RoverX/Libraries/XMCLib/inc\xmc_usic.h ****  * Delay compensation can be applied to the receive path.
 936:C:/Workspaces/DAVE-4.4.2-64Bit/RoverX/Libraries/XMCLib/inc\xmc_usic.h ****  * \par<b>Related APIs:</b><BR>
 937:C:/Workspaces/DAVE-4.4.2-64Bit/RoverX/Libraries/XMCLib/inc\xmc_usic.h ****  * XMC_USIC_CH_DisableDelayCompensation()\n\n\n
 938:C:/Workspaces/DAVE-4.4.2-64Bit/RoverX/Libraries/XMCLib/inc\xmc_usic.h ****  */
 939:C:/Workspaces/DAVE-4.4.2-64Bit/RoverX/Libraries/XMCLib/inc\xmc_usic.h **** __STATIC_INLINE void XMC_USIC_CH_EnableDelayCompensation(XMC_USIC_CH_t *const channel)
 940:C:/Workspaces/DAVE-4.4.2-64Bit/RoverX/Libraries/XMCLib/inc\xmc_usic.h **** {
 941:C:/Workspaces/DAVE-4.4.2-64Bit/RoverX/Libraries/XMCLib/inc\xmc_usic.h ****   channel->DXCR[1U] |= USIC_CH_DX1CR_DCEN_Msk;
 942:C:/Workspaces/DAVE-4.4.2-64Bit/RoverX/Libraries/XMCLib/inc\xmc_usic.h **** }
 943:C:/Workspaces/DAVE-4.4.2-64Bit/RoverX/Libraries/XMCLib/inc\xmc_usic.h **** 
 944:C:/Workspaces/DAVE-4.4.2-64Bit/RoverX/Libraries/XMCLib/inc\xmc_usic.h **** /**
 945:C:/Workspaces/DAVE-4.4.2-64Bit/RoverX/Libraries/XMCLib/inc\xmc_usic.h ****  * @param  channel Pointer to USIC channel handler of type @ref XMC_USIC_CH_t \n
 946:C:/Workspaces/DAVE-4.4.2-64Bit/RoverX/Libraries/XMCLib/inc\xmc_usic.h ****  * 				   \b Range: @ref XMC_USIC0_CH0, @ref XMC_USIC0_CH1 to @ref XMC_USIC2_CH1 based on device su
 947:C:/Workspaces/DAVE-4.4.2-64Bit/RoverX/Libraries/XMCLib/inc\xmc_usic.h ****  * @return None
 948:C:/Workspaces/DAVE-4.4.2-64Bit/RoverX/Libraries/XMCLib/inc\xmc_usic.h ****  *
 949:C:/Workspaces/DAVE-4.4.2-64Bit/RoverX/Libraries/XMCLib/inc\xmc_usic.h ****  * \par<b>Description</b><br>
 950:C:/Workspaces/DAVE-4.4.2-64Bit/RoverX/Libraries/XMCLib/inc\xmc_usic.h ****  * Disables delay compensation.. \n\n
 951:C:/Workspaces/DAVE-4.4.2-64Bit/RoverX/Libraries/XMCLib/inc\xmc_usic.h ****  *
 952:C:/Workspaces/DAVE-4.4.2-64Bit/RoverX/Libraries/XMCLib/inc\xmc_usic.h ****  * \par<b>Related APIs:</b><BR>
 953:C:/Workspaces/DAVE-4.4.2-64Bit/RoverX/Libraries/XMCLib/inc\xmc_usic.h ****  * XMC_USIC_CH_EnableDelayCompensation()\n\n\n
 954:C:/Workspaces/DAVE-4.4.2-64Bit/RoverX/Libraries/XMCLib/inc\xmc_usic.h ****  */
 955:C:/Workspaces/DAVE-4.4.2-64Bit/RoverX/Libraries/XMCLib/inc\xmc_usic.h **** __STATIC_INLINE void XMC_USIC_CH_DisableDelayCompensation(XMC_USIC_CH_t *const channel)
 956:C:/Workspaces/DAVE-4.4.2-64Bit/RoverX/Libraries/XMCLib/inc\xmc_usic.h **** {
 957:C:/Workspaces/DAVE-4.4.2-64Bit/RoverX/Libraries/XMCLib/inc\xmc_usic.h ****   channel->DXCR[1U] &= (uint32_t)~USIC_CH_DX1CR_DCEN_Msk;
 958:C:/Workspaces/DAVE-4.4.2-64Bit/RoverX/Libraries/XMCLib/inc\xmc_usic.h **** }
 959:C:/Workspaces/DAVE-4.4.2-64Bit/RoverX/Libraries/XMCLib/inc\xmc_usic.h **** 
 960:C:/Workspaces/DAVE-4.4.2-64Bit/RoverX/Libraries/XMCLib/inc\xmc_usic.h **** /**
 961:C:/Workspaces/DAVE-4.4.2-64Bit/RoverX/Libraries/XMCLib/inc\xmc_usic.h ****  * @param  channel Pointer to USIC channel handler of type @ref XMC_USIC_CH_t \n
 962:C:/Workspaces/DAVE-4.4.2-64Bit/RoverX/Libraries/XMCLib/inc\xmc_usic.h ****  * 				   \b Range: @ref XMC_USIC0_CH0, @ref XMC_USIC0_CH1 to @ref XMC_USIC2_CH1 based on device su
 963:C:/Workspaces/DAVE-4.4.2-64Bit/RoverX/Libraries/XMCLib/inc\xmc_usic.h ****  * @param  input USIC channel input stage of type @ref XMC_USIC_CH_INPUT_t. \n
 964:C:/Workspaces/DAVE-4.4.2-64Bit/RoverX/Libraries/XMCLib/inc\xmc_usic.h ****  * 				 \b Range: @ref XMC_USIC_CH_INPUT_DX0 to @ref XMC_USIC_CH_INPUT_DX5
 965:C:/Workspaces/DAVE-4.4.2-64Bit/RoverX/Libraries/XMCLib/inc\xmc_usic.h ****  * @return None
 966:C:/Workspaces/DAVE-4.4.2-64Bit/RoverX/Libraries/XMCLib/inc\xmc_usic.h ****  *
 967:C:/Workspaces/DAVE-4.4.2-64Bit/RoverX/Libraries/XMCLib/inc\xmc_usic.h ****  * \par<b>Description</b><br>
 968:C:/Workspaces/DAVE-4.4.2-64Bit/RoverX/Libraries/XMCLib/inc\xmc_usic.h ****  * Enables the input digital filter for USIC channel input data signal. \n\n
 969:C:/Workspaces/DAVE-4.4.2-64Bit/RoverX/Libraries/XMCLib/inc\xmc_usic.h ****  * Input data signal from the selected multiplexer will be digitally filtered.
 970:C:/Workspaces/DAVE-4.4.2-64Bit/RoverX/Libraries/XMCLib/inc\xmc_usic.h ****  *
 971:C:/Workspaces/DAVE-4.4.2-64Bit/RoverX/Libraries/XMCLib/inc\xmc_usic.h ****  * \par<b>Related APIs:</b><BR>
 972:C:/Workspaces/DAVE-4.4.2-64Bit/RoverX/Libraries/XMCLib/inc\xmc_usic.h ****  * XMC_USIC_CH_DisableInputDigitalFilter()\n\n\n
 973:C:/Workspaces/DAVE-4.4.2-64Bit/RoverX/Libraries/XMCLib/inc\xmc_usic.h ****  */
 974:C:/Workspaces/DAVE-4.4.2-64Bit/RoverX/Libraries/XMCLib/inc\xmc_usic.h **** __STATIC_INLINE void XMC_USIC_CH_EnableInputDigitalFilter(XMC_USIC_CH_t *const channel, const XMC_U
 975:C:/Workspaces/DAVE-4.4.2-64Bit/RoverX/Libraries/XMCLib/inc\xmc_usic.h **** {
 976:C:/Workspaces/DAVE-4.4.2-64Bit/RoverX/Libraries/XMCLib/inc\xmc_usic.h ****   channel->DXCR[input] |= (uint32_t)USIC_CH_DXCR_DFEN_Msk;
 977:C:/Workspaces/DAVE-4.4.2-64Bit/RoverX/Libraries/XMCLib/inc\xmc_usic.h **** }
 978:C:/Workspaces/DAVE-4.4.2-64Bit/RoverX/Libraries/XMCLib/inc\xmc_usic.h **** /**
 979:C:/Workspaces/DAVE-4.4.2-64Bit/RoverX/Libraries/XMCLib/inc\xmc_usic.h ****  * @param  channel Pointer to USIC channel handler of type @ref XMC_USIC_CH_t \n
 980:C:/Workspaces/DAVE-4.4.2-64Bit/RoverX/Libraries/XMCLib/inc\xmc_usic.h ****  * 				   \b Range: @ref XMC_USIC0_CH0, @ref XMC_USIC0_CH1 to @ref XMC_USIC2_CH1 based on device su
 981:C:/Workspaces/DAVE-4.4.2-64Bit/RoverX/Libraries/XMCLib/inc\xmc_usic.h ****  * @param  input USIC channel input stage of type @ref XMC_USIC_CH_INPUT_t. \n
 982:C:/Workspaces/DAVE-4.4.2-64Bit/RoverX/Libraries/XMCLib/inc\xmc_usic.h ****  * 				 \b Range: @ref XMC_USIC_CH_INPUT_DX0 to @ref XMC_USIC_CH_INPUT_DX5
 983:C:/Workspaces/DAVE-4.4.2-64Bit/RoverX/Libraries/XMCLib/inc\xmc_usic.h ****  * @return None
 984:C:/Workspaces/DAVE-4.4.2-64Bit/RoverX/Libraries/XMCLib/inc\xmc_usic.h ****  *
 985:C:/Workspaces/DAVE-4.4.2-64Bit/RoverX/Libraries/XMCLib/inc\xmc_usic.h ****  * \par<b>Description</b><br>
 986:C:/Workspaces/DAVE-4.4.2-64Bit/RoverX/Libraries/XMCLib/inc\xmc_usic.h ****  * Disables the input digital filter for USIC channel input data signal. \n\n
 987:C:/Workspaces/DAVE-4.4.2-64Bit/RoverX/Libraries/XMCLib/inc\xmc_usic.h ****  * Input data signal from the selected multiplexer will not be digitally filtered.
 988:C:/Workspaces/DAVE-4.4.2-64Bit/RoverX/Libraries/XMCLib/inc\xmc_usic.h ****  *
 989:C:/Workspaces/DAVE-4.4.2-64Bit/RoverX/Libraries/XMCLib/inc\xmc_usic.h ****  * \par<b>Related APIs:</b><BR>
 990:C:/Workspaces/DAVE-4.4.2-64Bit/RoverX/Libraries/XMCLib/inc\xmc_usic.h ****  * XMC_USIC_CH_EnableInputDigitalFilter()\n\n\n
 991:C:/Workspaces/DAVE-4.4.2-64Bit/RoverX/Libraries/XMCLib/inc\xmc_usic.h ****  */
 992:C:/Workspaces/DAVE-4.4.2-64Bit/RoverX/Libraries/XMCLib/inc\xmc_usic.h **** __STATIC_INLINE void XMC_USIC_CH_DisableInputDigitalFilter(XMC_USIC_CH_t *const channel, const XMC_
 993:C:/Workspaces/DAVE-4.4.2-64Bit/RoverX/Libraries/XMCLib/inc\xmc_usic.h **** {
 994:C:/Workspaces/DAVE-4.4.2-64Bit/RoverX/Libraries/XMCLib/inc\xmc_usic.h ****   channel->DXCR[input] &= (uint32_t)~USIC_CH_DXCR_DFEN_Msk;
 995:C:/Workspaces/DAVE-4.4.2-64Bit/RoverX/Libraries/XMCLib/inc\xmc_usic.h **** }
 996:C:/Workspaces/DAVE-4.4.2-64Bit/RoverX/Libraries/XMCLib/inc\xmc_usic.h **** /**
 997:C:/Workspaces/DAVE-4.4.2-64Bit/RoverX/Libraries/XMCLib/inc\xmc_usic.h ****  * @param  channel Pointer to USIC channel handler of type @ref XMC_USIC_CH_t \n
 998:C:/Workspaces/DAVE-4.4.2-64Bit/RoverX/Libraries/XMCLib/inc\xmc_usic.h ****  * 				   \b Range: @ref XMC_USIC0_CH0, @ref XMC_USIC0_CH1 to @ref XMC_USIC2_CH1 based on device su
 999:C:/Workspaces/DAVE-4.4.2-64Bit/RoverX/Libraries/XMCLib/inc\xmc_usic.h ****  * @param  input USIC channel input stage of type @ref XMC_USIC_CH_INPUT_t. \n
1000:C:/Workspaces/DAVE-4.4.2-64Bit/RoverX/Libraries/XMCLib/inc\xmc_usic.h ****  * 				 \b Range: @ref XMC_USIC_CH_INPUT_DX0 to @ref XMC_USIC_CH_INPUT_DX5
1001:C:/Workspaces/DAVE-4.4.2-64Bit/RoverX/Libraries/XMCLib/inc\xmc_usic.h ****  * @return None
1002:C:/Workspaces/DAVE-4.4.2-64Bit/RoverX/Libraries/XMCLib/inc\xmc_usic.h ****  *
1003:C:/Workspaces/DAVE-4.4.2-64Bit/RoverX/Libraries/XMCLib/inc\xmc_usic.h ****  * \par<b>Description</b><br>
1004:C:/Workspaces/DAVE-4.4.2-64Bit/RoverX/Libraries/XMCLib/inc\xmc_usic.h ****  * Enables input synchronization for the USIC channel input data signal. \n\n
1005:C:/Workspaces/DAVE-4.4.2-64Bit/RoverX/Libraries/XMCLib/inc\xmc_usic.h ****  * Input data signal from the selected multiplexer will be synchronized with fPERIPH.
1006:C:/Workspaces/DAVE-4.4.2-64Bit/RoverX/Libraries/XMCLib/inc\xmc_usic.h ****  * A noisy signal can be synchronized and filtered by enabling the digital filter.
1007:C:/Workspaces/DAVE-4.4.2-64Bit/RoverX/Libraries/XMCLib/inc\xmc_usic.h ****  *
1008:C:/Workspaces/DAVE-4.4.2-64Bit/RoverX/Libraries/XMCLib/inc\xmc_usic.h ****  * \par<b>Related APIs:</b><BR>
1009:C:/Workspaces/DAVE-4.4.2-64Bit/RoverX/Libraries/XMCLib/inc\xmc_usic.h ****  * XMC_USIC_CH_DisableInputSync(), XMC_USIC_CH_EnableInputDigitalFilter()\n\n\n
1010:C:/Workspaces/DAVE-4.4.2-64Bit/RoverX/Libraries/XMCLib/inc\xmc_usic.h ****  */
1011:C:/Workspaces/DAVE-4.4.2-64Bit/RoverX/Libraries/XMCLib/inc\xmc_usic.h **** __STATIC_INLINE void XMC_USIC_CH_EnableInputSync(XMC_USIC_CH_t *const channel, const XMC_USIC_CH_IN
1012:C:/Workspaces/DAVE-4.4.2-64Bit/RoverX/Libraries/XMCLib/inc\xmc_usic.h **** {
1013:C:/Workspaces/DAVE-4.4.2-64Bit/RoverX/Libraries/XMCLib/inc\xmc_usic.h ****   channel->DXCR[input] |= (uint32_t)USIC_CH_DXCR_DSEN_Msk;
1014:C:/Workspaces/DAVE-4.4.2-64Bit/RoverX/Libraries/XMCLib/inc\xmc_usic.h **** }
1015:C:/Workspaces/DAVE-4.4.2-64Bit/RoverX/Libraries/XMCLib/inc\xmc_usic.h **** /**
1016:C:/Workspaces/DAVE-4.4.2-64Bit/RoverX/Libraries/XMCLib/inc\xmc_usic.h ****  * @param  channel Pointer to USIC channel handler of type @ref XMC_USIC_CH_t \n
1017:C:/Workspaces/DAVE-4.4.2-64Bit/RoverX/Libraries/XMCLib/inc\xmc_usic.h ****  * 				   \b Range: @ref XMC_USIC0_CH0, @ref XMC_USIC0_CH1 to @ref XMC_USIC2_CH1 based on device su
1018:C:/Workspaces/DAVE-4.4.2-64Bit/RoverX/Libraries/XMCLib/inc\xmc_usic.h ****  * @param  input USIC channel input stage of type @ref XMC_USIC_CH_INPUT_t. \n
1019:C:/Workspaces/DAVE-4.4.2-64Bit/RoverX/Libraries/XMCLib/inc\xmc_usic.h ****  * 				 \b Range: @ref XMC_USIC_CH_INPUT_DX0 to @ref XMC_USIC_CH_INPUT_DX5
1020:C:/Workspaces/DAVE-4.4.2-64Bit/RoverX/Libraries/XMCLib/inc\xmc_usic.h ****  * @return None
1021:C:/Workspaces/DAVE-4.4.2-64Bit/RoverX/Libraries/XMCLib/inc\xmc_usic.h ****  *
1022:C:/Workspaces/DAVE-4.4.2-64Bit/RoverX/Libraries/XMCLib/inc\xmc_usic.h ****  * \par<b>Description</b><br>
1023:C:/Workspaces/DAVE-4.4.2-64Bit/RoverX/Libraries/XMCLib/inc\xmc_usic.h ****  * Disables input synchronization for the USIC channel input data signal. \n\n
1024:C:/Workspaces/DAVE-4.4.2-64Bit/RoverX/Libraries/XMCLib/inc\xmc_usic.h ****  * Input data signal from the selected multiplexer will not be synchronized.
1025:C:/Workspaces/DAVE-4.4.2-64Bit/RoverX/Libraries/XMCLib/inc\xmc_usic.h ****  *
1026:C:/Workspaces/DAVE-4.4.2-64Bit/RoverX/Libraries/XMCLib/inc\xmc_usic.h ****  * \par<b>Related APIs:</b><BR>
1027:C:/Workspaces/DAVE-4.4.2-64Bit/RoverX/Libraries/XMCLib/inc\xmc_usic.h ****  * XMC_USIC_CH_EnableInputSync(), XMC_USIC_CH_DisableInputDigitalFilter() \n\n\n
1028:C:/Workspaces/DAVE-4.4.2-64Bit/RoverX/Libraries/XMCLib/inc\xmc_usic.h ****  */
1029:C:/Workspaces/DAVE-4.4.2-64Bit/RoverX/Libraries/XMCLib/inc\xmc_usic.h **** __STATIC_INLINE void XMC_USIC_CH_DisableInputSync(XMC_USIC_CH_t *const channel, const XMC_USIC_CH_I
1030:C:/Workspaces/DAVE-4.4.2-64Bit/RoverX/Libraries/XMCLib/inc\xmc_usic.h **** {
1031:C:/Workspaces/DAVE-4.4.2-64Bit/RoverX/Libraries/XMCLib/inc\xmc_usic.h ****   channel->DXCR[input] &= (uint32_t)~USIC_CH_DXCR_DSEN_Msk;
1032:C:/Workspaces/DAVE-4.4.2-64Bit/RoverX/Libraries/XMCLib/inc\xmc_usic.h **** }
1033:C:/Workspaces/DAVE-4.4.2-64Bit/RoverX/Libraries/XMCLib/inc\xmc_usic.h **** /**
1034:C:/Workspaces/DAVE-4.4.2-64Bit/RoverX/Libraries/XMCLib/inc\xmc_usic.h ****  * @param  channel Pointer to USIC channel handler of type @ref XMC_USIC_CH_t \n
1035:C:/Workspaces/DAVE-4.4.2-64Bit/RoverX/Libraries/XMCLib/inc\xmc_usic.h ****  * 				   \b Range: @ref XMC_USIC0_CH0, @ref XMC_USIC0_CH1 to @ref XMC_USIC2_CH1 based on device su
1036:C:/Workspaces/DAVE-4.4.2-64Bit/RoverX/Libraries/XMCLib/inc\xmc_usic.h ****  * @param  input USIC channel input stage of type @ref XMC_USIC_CH_INPUT_t. \n
1037:C:/Workspaces/DAVE-4.4.2-64Bit/RoverX/Libraries/XMCLib/inc\xmc_usic.h ****  * 				 \b Range: @ref XMC_USIC_CH_INPUT_DX0 to @ref XMC_USIC_CH_INPUT_DX5
1038:C:/Workspaces/DAVE-4.4.2-64Bit/RoverX/Libraries/XMCLib/inc\xmc_usic.h ****  * @param  sampling_freq Sampling frequency value of type \a XMC_USIC_CH_INPUT_SAMPLING_FREQ_t.
1039:C:/Workspaces/DAVE-4.4.2-64Bit/RoverX/Libraries/XMCLib/inc\xmc_usic.h ****  * @return None
1040:C:/Workspaces/DAVE-4.4.2-64Bit/RoverX/Libraries/XMCLib/inc\xmc_usic.h ****  *
1041:C:/Workspaces/DAVE-4.4.2-64Bit/RoverX/Libraries/XMCLib/inc\xmc_usic.h ****  * \par<b>Description</b><br>
1042:C:/Workspaces/DAVE-4.4.2-64Bit/RoverX/Libraries/XMCLib/inc\xmc_usic.h ****  * Sets sampling frequency for USIC channel input data signal. \n\n
1043:C:/Workspaces/DAVE-4.4.2-64Bit/RoverX/Libraries/XMCLib/inc\xmc_usic.h ****  *
1044:C:/Workspaces/DAVE-4.4.2-64Bit/RoverX/Libraries/XMCLib/inc\xmc_usic.h ****  * \par<b>Related APIs:</b><BR>
1045:C:/Workspaces/DAVE-4.4.2-64Bit/RoverX/Libraries/XMCLib/inc\xmc_usic.h ****  * XMC_USIC_CH_SetInputSource(), XMC_USIC_CH_EnableInputSync(), XMC_USIC_CH_EnableInputDigitalFilte
1046:C:/Workspaces/DAVE-4.4.2-64Bit/RoverX/Libraries/XMCLib/inc\xmc_usic.h ****  */
1047:C:/Workspaces/DAVE-4.4.2-64Bit/RoverX/Libraries/XMCLib/inc\xmc_usic.h **** __STATIC_INLINE void XMC_USIC_CH_SetInputSamplingFreq(XMC_USIC_CH_t *const channel,
1048:C:/Workspaces/DAVE-4.4.2-64Bit/RoverX/Libraries/XMCLib/inc\xmc_usic.h ****     const XMC_USIC_CH_INPUT_t input,
1049:C:/Workspaces/DAVE-4.4.2-64Bit/RoverX/Libraries/XMCLib/inc\xmc_usic.h ****     const XMC_USIC_CH_INPUT_SAMPLING_FREQ_t sampling_freq)
1050:C:/Workspaces/DAVE-4.4.2-64Bit/RoverX/Libraries/XMCLib/inc\xmc_usic.h **** {
1051:C:/Workspaces/DAVE-4.4.2-64Bit/RoverX/Libraries/XMCLib/inc\xmc_usic.h ****   channel->DXCR[input] = (uint32_t)(channel->DXCR[input] & (~USIC_CH_DXCR_SFSEL_Msk)) |
1052:C:/Workspaces/DAVE-4.4.2-64Bit/RoverX/Libraries/XMCLib/inc\xmc_usic.h ****                          ((uint32_t)sampling_freq);
1053:C:/Workspaces/DAVE-4.4.2-64Bit/RoverX/Libraries/XMCLib/inc\xmc_usic.h **** }
1054:C:/Workspaces/DAVE-4.4.2-64Bit/RoverX/Libraries/XMCLib/inc\xmc_usic.h **** 
1055:C:/Workspaces/DAVE-4.4.2-64Bit/RoverX/Libraries/XMCLib/inc\xmc_usic.h **** /**
1056:C:/Workspaces/DAVE-4.4.2-64Bit/RoverX/Libraries/XMCLib/inc\xmc_usic.h ****  * @param  channel Pointer to USIC channel handler of type @ref XMC_USIC_CH_t \n
1057:C:/Workspaces/DAVE-4.4.2-64Bit/RoverX/Libraries/XMCLib/inc\xmc_usic.h ****  * 				   \b Range: @ref XMC_USIC0_CH0, @ref XMC_USIC0_CH1 to @ref XMC_USIC2_CH1 based on device su
1058:C:/Workspaces/DAVE-4.4.2-64Bit/RoverX/Libraries/XMCLib/inc\xmc_usic.h ****  * @param  input USIC channel input stage of type @ref XMC_USIC_CH_INPUT_t. \n
1059:C:/Workspaces/DAVE-4.4.2-64Bit/RoverX/Libraries/XMCLib/inc\xmc_usic.h ****  * 				 \b Range: @ref XMC_USIC_CH_INPUT_DX0 to @ref XMC_USIC_CH_INPUT_DX5
1060:C:/Workspaces/DAVE-4.4.2-64Bit/RoverX/Libraries/XMCLib/inc\xmc_usic.h ****  * @param  combination_mode Combination mode value of type \a XMC_USIC_CH_INPUT_COMBINATION_MODE_t.
1061:C:/Workspaces/DAVE-4.4.2-64Bit/RoverX/Libraries/XMCLib/inc\xmc_usic.h ****  * @return None
1062:C:/Workspaces/DAVE-4.4.2-64Bit/RoverX/Libraries/XMCLib/inc\xmc_usic.h ****  *
1063:C:/Workspaces/DAVE-4.4.2-64Bit/RoverX/Libraries/XMCLib/inc\xmc_usic.h ****  * \par<b>Description</b><br>
1064:C:/Workspaces/DAVE-4.4.2-64Bit/RoverX/Libraries/XMCLib/inc\xmc_usic.h ****  * Selects which edge of the synchronized signal DXnS activates the trigger output DXnT of the inpu
1065:C:/Workspaces/DAVE-4.4.2-64Bit/RoverX/Libraries/XMCLib/inc\xmc_usic.h ****  *
1066:C:/Workspaces/DAVE-4.4.2-64Bit/RoverX/Libraries/XMCLib/inc\xmc_usic.h ****  * \par<b>Related APIs:</b><BR>
1067:C:/Workspaces/DAVE-4.4.2-64Bit/RoverX/Libraries/XMCLib/inc\xmc_usic.h ****  * XMC_USIC_CH_SetInputSource(), XMC_USIC_CH_EnableInputSync(), XMC_USIC_CH_EnableInputDigitalFilte
1068:C:/Workspaces/DAVE-4.4.2-64Bit/RoverX/Libraries/XMCLib/inc\xmc_usic.h ****  */
1069:C:/Workspaces/DAVE-4.4.2-64Bit/RoverX/Libraries/XMCLib/inc\xmc_usic.h **** __STATIC_INLINE void XMC_USIC_CH_SetInputTriggerCombinationMode(XMC_USIC_CH_t *const channel,
1070:C:/Workspaces/DAVE-4.4.2-64Bit/RoverX/Libraries/XMCLib/inc\xmc_usic.h ****     const XMC_USIC_CH_INPUT_t input,
1071:C:/Workspaces/DAVE-4.4.2-64Bit/RoverX/Libraries/XMCLib/inc\xmc_usic.h ****     const XMC_USIC_CH_INPUT_COMBINATION_MODE_t combination_mode)
1072:C:/Workspaces/DAVE-4.4.2-64Bit/RoverX/Libraries/XMCLib/inc\xmc_usic.h **** {
1073:C:/Workspaces/DAVE-4.4.2-64Bit/RoverX/Libraries/XMCLib/inc\xmc_usic.h ****   channel->DXCR[input] = (uint32_t)(channel->DXCR[input] & (~USIC_CH_DXCR_CM_Msk)) |
1074:C:/Workspaces/DAVE-4.4.2-64Bit/RoverX/Libraries/XMCLib/inc\xmc_usic.h ****                          ((uint32_t)combination_mode << USIC_CH_DXCR_CM_Pos);
1075:C:/Workspaces/DAVE-4.4.2-64Bit/RoverX/Libraries/XMCLib/inc\xmc_usic.h **** }
1076:C:/Workspaces/DAVE-4.4.2-64Bit/RoverX/Libraries/XMCLib/inc\xmc_usic.h **** 
1077:C:/Workspaces/DAVE-4.4.2-64Bit/RoverX/Libraries/XMCLib/inc\xmc_usic.h **** /**
1078:C:/Workspaces/DAVE-4.4.2-64Bit/RoverX/Libraries/XMCLib/inc\xmc_usic.h ****  * @param  channel Pointer to USIC channel handler of type @ref XMC_USIC_CH_t \n
1079:C:/Workspaces/DAVE-4.4.2-64Bit/RoverX/Libraries/XMCLib/inc\xmc_usic.h ****  * 				   \b Range: @ref XMC_USIC0_CH0, @ref XMC_USIC0_CH1 to @ref XMC_USIC2_CH1 based on device su
1080:C:/Workspaces/DAVE-4.4.2-64Bit/RoverX/Libraries/XMCLib/inc\xmc_usic.h ****  * @param  clock_source clock source for the BRG.
1081:C:/Workspaces/DAVE-4.4.2-64Bit/RoverX/Libraries/XMCLib/inc\xmc_usic.h ****  * @return None
1082:C:/Workspaces/DAVE-4.4.2-64Bit/RoverX/Libraries/XMCLib/inc\xmc_usic.h ****  *
1083:C:/Workspaces/DAVE-4.4.2-64Bit/RoverX/Libraries/XMCLib/inc\xmc_usic.h ****  * \par<b>Description</b><br>
1084:C:/Workspaces/DAVE-4.4.2-64Bit/RoverX/Libraries/XMCLib/inc\xmc_usic.h ****  * Sets the clock source for the BRG. \n\n
1085:C:/Workspaces/DAVE-4.4.2-64Bit/RoverX/Libraries/XMCLib/inc\xmc_usic.h ****  *
1086:C:/Workspaces/DAVE-4.4.2-64Bit/RoverX/Libraries/XMCLib/inc\xmc_usic.h ****  * \par<b>Related APIs:</b><BR>
1087:C:/Workspaces/DAVE-4.4.2-64Bit/RoverX/Libraries/XMCLib/inc\xmc_usic.h ****  * XMC_USIC_CH_SetInputTriggerCombinationMode(), XMC_USIC_CH_SetExternalClockBRGDivider()\n\n\n
1088:C:/Workspaces/DAVE-4.4.2-64Bit/RoverX/Libraries/XMCLib/inc\xmc_usic.h ****  */
1089:C:/Workspaces/DAVE-4.4.2-64Bit/RoverX/Libraries/XMCLib/inc\xmc_usic.h **** __STATIC_INLINE void XMC_USIC_CH_SetBRGInputClockSource(XMC_USIC_CH_t *const channel, const XMC_USI
1090:C:/Workspaces/DAVE-4.4.2-64Bit/RoverX/Libraries/XMCLib/inc\xmc_usic.h **** {
1091:C:/Workspaces/DAVE-4.4.2-64Bit/RoverX/Libraries/XMCLib/inc\xmc_usic.h ****   channel->BRG = (uint32_t)(channel->BRG & (~USIC_CH_BRG_CLKSEL_Msk)) | (uint32_t)(clock_source);
1092:C:/Workspaces/DAVE-4.4.2-64Bit/RoverX/Libraries/XMCLib/inc\xmc_usic.h **** }
1093:C:/Workspaces/DAVE-4.4.2-64Bit/RoverX/Libraries/XMCLib/inc\xmc_usic.h **** 
1094:C:/Workspaces/DAVE-4.4.2-64Bit/RoverX/Libraries/XMCLib/inc\xmc_usic.h **** /**
1095:C:/Workspaces/DAVE-4.4.2-64Bit/RoverX/Libraries/XMCLib/inc\xmc_usic.h ****  * @param channel Pointer to USIC channel handler of type @ref XMC_USIC_CH_t \n
1096:C:/Workspaces/DAVE-4.4.2-64Bit/RoverX/Libraries/XMCLib/inc\xmc_usic.h ****  * 				   \b Range: @ref XMC_USIC0_CH0, @ref XMC_USIC0_CH1 to @ref XMC_USIC2_CH1 based on device su
1097:C:/Workspaces/DAVE-4.4.2-64Bit/RoverX/Libraries/XMCLib/inc\xmc_usic.h ****  * @param data Data to be transmitted. \n
1098:C:/Workspaces/DAVE-4.4.2-64Bit/RoverX/Libraries/XMCLib/inc\xmc_usic.h ****  *           \b Range: 16bit unsigned data. minimum= 0, maximum= 65535
1099:C:/Workspaces/DAVE-4.4.2-64Bit/RoverX/Libraries/XMCLib/inc\xmc_usic.h ****  * @return None
1100:C:/Workspaces/DAVE-4.4.2-64Bit/RoverX/Libraries/XMCLib/inc\xmc_usic.h ****  *
1101:C:/Workspaces/DAVE-4.4.2-64Bit/RoverX/Libraries/XMCLib/inc\xmc_usic.h ****  * \par<b>Description</b><br>
1102:C:/Workspaces/DAVE-4.4.2-64Bit/RoverX/Libraries/XMCLib/inc\xmc_usic.h ****  * Writes data into the transmit buffer. \n\n
1103:C:/Workspaces/DAVE-4.4.2-64Bit/RoverX/Libraries/XMCLib/inc\xmc_usic.h ****  * The data provided is placed in TBUF[0U].
1104:C:/Workspaces/DAVE-4.4.2-64Bit/RoverX/Libraries/XMCLib/inc\xmc_usic.h ****  *
1105:C:/Workspaces/DAVE-4.4.2-64Bit/RoverX/Libraries/XMCLib/inc\xmc_usic.h ****  *
1106:C:/Workspaces/DAVE-4.4.2-64Bit/RoverX/Libraries/XMCLib/inc\xmc_usic.h ****  * \par<b>Related APIs:</b><BR>
1107:C:/Workspaces/DAVE-4.4.2-64Bit/RoverX/Libraries/XMCLib/inc\xmc_usic.h ****  * XMC_USIC_CH_WriteToTBUFTCI() \n\n\n
1108:C:/Workspaces/DAVE-4.4.2-64Bit/RoverX/Libraries/XMCLib/inc\xmc_usic.h ****  */
1109:C:/Workspaces/DAVE-4.4.2-64Bit/RoverX/Libraries/XMCLib/inc\xmc_usic.h **** __STATIC_INLINE void XMC_USIC_CH_WriteToTBUF(XMC_USIC_CH_t *const channel, const uint16_t data)
1110:C:/Workspaces/DAVE-4.4.2-64Bit/RoverX/Libraries/XMCLib/inc\xmc_usic.h **** {
1111:C:/Workspaces/DAVE-4.4.2-64Bit/RoverX/Libraries/XMCLib/inc\xmc_usic.h ****   channel->TBUF[0U] = data;
1112:C:/Workspaces/DAVE-4.4.2-64Bit/RoverX/Libraries/XMCLib/inc\xmc_usic.h **** }
1113:C:/Workspaces/DAVE-4.4.2-64Bit/RoverX/Libraries/XMCLib/inc\xmc_usic.h **** 
1114:C:/Workspaces/DAVE-4.4.2-64Bit/RoverX/Libraries/XMCLib/inc\xmc_usic.h **** /**
1115:C:/Workspaces/DAVE-4.4.2-64Bit/RoverX/Libraries/XMCLib/inc\xmc_usic.h ****  * @param channel Pointer to USIC channel handler of type @ref XMC_USIC_CH_t \n
1116:C:/Workspaces/DAVE-4.4.2-64Bit/RoverX/Libraries/XMCLib/inc\xmc_usic.h ****  * 				   \b Range: @ref XMC_USIC0_CH0, @ref XMC_USIC0_CH1 to @ref XMC_USIC2_CH1 based on device su
1117:C:/Workspaces/DAVE-4.4.2-64Bit/RoverX/Libraries/XMCLib/inc\xmc_usic.h ****  * @param data Data to be transmitted.
1118:C:/Workspaces/DAVE-4.4.2-64Bit/RoverX/Libraries/XMCLib/inc\xmc_usic.h ****  * @param transmit_control_information transmit control information to be configured while transmit
1119:C:/Workspaces/DAVE-4.4.2-64Bit/RoverX/Libraries/XMCLib/inc\xmc_usic.h ****  * 			\b Range: minimum= 0, maximum= 31.
1120:C:/Workspaces/DAVE-4.4.2-64Bit/RoverX/Libraries/XMCLib/inc\xmc_usic.h ****  * @return None
1121:C:/Workspaces/DAVE-4.4.2-64Bit/RoverX/Libraries/XMCLib/inc\xmc_usic.h ****  *
1122:C:/Workspaces/DAVE-4.4.2-64Bit/RoverX/Libraries/XMCLib/inc\xmc_usic.h ****  * \par<b>Description</b><br>
1123:C:/Workspaces/DAVE-4.4.2-64Bit/RoverX/Libraries/XMCLib/inc\xmc_usic.h ****  * Writes data to the transmit buffer in a control mode. \n\n
1124:C:/Workspaces/DAVE-4.4.2-64Bit/RoverX/Libraries/XMCLib/inc\xmc_usic.h ****  * When the respective control mode is enabled , this API can be used.
1125:C:/Workspaces/DAVE-4.4.2-64Bit/RoverX/Libraries/XMCLib/inc\xmc_usic.h ****  *
1126:C:/Workspaces/DAVE-4.4.2-64Bit/RoverX/Libraries/XMCLib/inc\xmc_usic.h ****  *
1127:C:/Workspaces/DAVE-4.4.2-64Bit/RoverX/Libraries/XMCLib/inc\xmc_usic.h ****  * \par<b>Related APIs:</b><BR>
1128:C:/Workspaces/DAVE-4.4.2-64Bit/RoverX/Libraries/XMCLib/inc\xmc_usic.h ****  * XMC_USIC_CH_WriteToTBUF() \n\n\n
1129:C:/Workspaces/DAVE-4.4.2-64Bit/RoverX/Libraries/XMCLib/inc\xmc_usic.h ****  */
1130:C:/Workspaces/DAVE-4.4.2-64Bit/RoverX/Libraries/XMCLib/inc\xmc_usic.h **** __STATIC_INLINE void XMC_USIC_CH_WriteToTBUFTCI(XMC_USIC_CH_t *const channel,
1131:C:/Workspaces/DAVE-4.4.2-64Bit/RoverX/Libraries/XMCLib/inc\xmc_usic.h ****     const uint16_t data,
1132:C:/Workspaces/DAVE-4.4.2-64Bit/RoverX/Libraries/XMCLib/inc\xmc_usic.h ****     const uint32_t transmit_control_information)
1133:C:/Workspaces/DAVE-4.4.2-64Bit/RoverX/Libraries/XMCLib/inc\xmc_usic.h **** {
1134:C:/Workspaces/DAVE-4.4.2-64Bit/RoverX/Libraries/XMCLib/inc\xmc_usic.h ****   channel->TBUF[transmit_control_information] = data;
1135:C:/Workspaces/DAVE-4.4.2-64Bit/RoverX/Libraries/XMCLib/inc\xmc_usic.h **** }
1136:C:/Workspaces/DAVE-4.4.2-64Bit/RoverX/Libraries/XMCLib/inc\xmc_usic.h **** 
1137:C:/Workspaces/DAVE-4.4.2-64Bit/RoverX/Libraries/XMCLib/inc\xmc_usic.h **** /**
1138:C:/Workspaces/DAVE-4.4.2-64Bit/RoverX/Libraries/XMCLib/inc\xmc_usic.h ****  * @param  channel Pointer to USIC channel handler of type @ref XMC_USIC_CH_t \n
1139:C:/Workspaces/DAVE-4.4.2-64Bit/RoverX/Libraries/XMCLib/inc\xmc_usic.h ****  * 				   \b Range: @ref XMC_USIC0_CH0, @ref XMC_USIC0_CH1 to @ref XMC_USIC2_CH1 based on device su
1140:C:/Workspaces/DAVE-4.4.2-64Bit/RoverX/Libraries/XMCLib/inc\xmc_usic.h ****  * @param  word_length Number of bits to be configured for a data word. \n
1141:C:/Workspaces/DAVE-4.4.2-64Bit/RoverX/Libraries/XMCLib/inc\xmc_usic.h ****  * 					   \b Range: minimum= 1, maximum= 16. \n
1142:C:/Workspaces/DAVE-4.4.2-64Bit/RoverX/Libraries/XMCLib/inc\xmc_usic.h ****  * 					   e.g: For word length of 8, \a word_length should be provided as 8.
1143:C:/Workspaces/DAVE-4.4.2-64Bit/RoverX/Libraries/XMCLib/inc\xmc_usic.h ****  * @return None
1144:C:/Workspaces/DAVE-4.4.2-64Bit/RoverX/Libraries/XMCLib/inc\xmc_usic.h ****  *
1145:C:/Workspaces/DAVE-4.4.2-64Bit/RoverX/Libraries/XMCLib/inc\xmc_usic.h ****  * \par<b>Description</b><br>
1146:C:/Workspaces/DAVE-4.4.2-64Bit/RoverX/Libraries/XMCLib/inc\xmc_usic.h ****  * Sets the data word length in number of bits. \n\n
1147:C:/Workspaces/DAVE-4.4.2-64Bit/RoverX/Libraries/XMCLib/inc\xmc_usic.h ****  * Sets the number of bits to represent a data word. Frame length should be a multiple of word leng
1148:C:/Workspaces/DAVE-4.4.2-64Bit/RoverX/Libraries/XMCLib/inc\xmc_usic.h ****  *
1149:C:/Workspaces/DAVE-4.4.2-64Bit/RoverX/Libraries/XMCLib/inc\xmc_usic.h ****  * \par<b>Related APIs:</b><BR>
1150:C:/Workspaces/DAVE-4.4.2-64Bit/RoverX/Libraries/XMCLib/inc\xmc_usic.h ****  * XMC_USIC_CH_SetFrameLength()\n\n\n
1151:C:/Workspaces/DAVE-4.4.2-64Bit/RoverX/Libraries/XMCLib/inc\xmc_usic.h ****  */
1152:C:/Workspaces/DAVE-4.4.2-64Bit/RoverX/Libraries/XMCLib/inc\xmc_usic.h **** __STATIC_INLINE void XMC_USIC_CH_SetWordLength(XMC_USIC_CH_t *const channel, const uint8_t word_len
1153:C:/Workspaces/DAVE-4.4.2-64Bit/RoverX/Libraries/XMCLib/inc\xmc_usic.h **** {
 279              	 .loc 2 1153 0
 280              	 .cfi_startproc
 281 0000 80B5     	 push {r7,lr}
 282              	.LCFI9:
 283              	 .cfi_def_cfa_offset 8
 284              	 .cfi_offset 7,-8
 285              	 .cfi_offset 14,-4
 286 0002 82B0     	 sub sp,sp,#8
 287              	.LCFI10:
 288              	 .cfi_def_cfa_offset 16
 289 0004 00AF     	 add r7,sp,#0
 290              	.LCFI11:
 291              	 .cfi_def_cfa_register 7
 292 0006 7860     	 str r0,[r7,#4]
 293 0008 0A1C     	 mov r2,r1
 294 000a FB1C     	 add r3,r7,#3
 295 000c 1A70     	 strb r2,[r3]
1154:C:/Workspaces/DAVE-4.4.2-64Bit/RoverX/Libraries/XMCLib/inc\xmc_usic.h ****   channel->SCTR = (uint32_t)(channel->SCTR & (~USIC_CH_SCTR_WLE_Msk)) |
 296              	 .loc 2 1154 0
 297 000e 7B68     	 ldr r3,[r7,#4]
 298 0010 5B6B     	 ldr r3,[r3,#52]
 299 0012 064A     	 ldr r2,.L12
 300 0014 1A40     	 and r2,r3
1155:C:/Workspaces/DAVE-4.4.2-64Bit/RoverX/Libraries/XMCLib/inc\xmc_usic.h ****                   (uint32_t)(((uint32_t)word_length - 1UL)  << USIC_CH_SCTR_WLE_Pos);
 301              	 .loc 2 1155 0
 302 0016 FB1C     	 add r3,r7,#3
 303 0018 1B78     	 ldrb r3,[r3]
 304 001a 013B     	 sub r3,r3,#1
 305 001c 1B06     	 lsl r3,r3,#24
1154:C:/Workspaces/DAVE-4.4.2-64Bit/RoverX/Libraries/XMCLib/inc\xmc_usic.h ****   channel->SCTR = (uint32_t)(channel->SCTR & (~USIC_CH_SCTR_WLE_Msk)) |
 306              	 .loc 2 1154 0
 307 001e 1A43     	 orr r2,r3
 308 0020 7B68     	 ldr r3,[r7,#4]
 309 0022 5A63     	 str r2,[r3,#52]
1156:C:/Workspaces/DAVE-4.4.2-64Bit/RoverX/Libraries/XMCLib/inc\xmc_usic.h **** }
 310              	 .loc 2 1156 0
 311 0024 BD46     	 mov sp,r7
 312 0026 02B0     	 add sp,sp,#8
 313              	 
 314 0028 80BD     	 pop {r7,pc}
 315              	.L13:
 316 002a C046     	 .align 2
 317              	.L12:
 318 002c FFFFFFF0 	 .word -251658241
 319              	 .cfi_endproc
 320              	.LFE90:
 322              	 .section .text.XMC_USIC_CH_SetFrameLength,"ax",%progbits
 323              	 .align 2
 324              	 .code 16
 325              	 .thumb_func
 327              	XMC_USIC_CH_SetFrameLength:
 328              	.LFB94:
1157:C:/Workspaces/DAVE-4.4.2-64Bit/RoverX/Libraries/XMCLib/inc\xmc_usic.h **** 
1158:C:/Workspaces/DAVE-4.4.2-64Bit/RoverX/Libraries/XMCLib/inc\xmc_usic.h **** /**
1159:C:/Workspaces/DAVE-4.4.2-64Bit/RoverX/Libraries/XMCLib/inc\xmc_usic.h ****  * @param  channel Pointer to USIC channel handler of type @ref XMC_USIC_CH_t \n
1160:C:/Workspaces/DAVE-4.4.2-64Bit/RoverX/Libraries/XMCLib/inc\xmc_usic.h ****  *           \b Range: @ref XMC_USIC0_CH0, @ref XMC_USIC0_CH1 to @ref XMC_USIC2_CH1 based on device
1161:C:/Workspaces/DAVE-4.4.2-64Bit/RoverX/Libraries/XMCLib/inc\xmc_usic.h ****  * @param  word_length Number of bits to be configured for a data word. \n
1162:C:/Workspaces/DAVE-4.4.2-64Bit/RoverX/Libraries/XMCLib/inc\xmc_usic.h ****  *             \b Range: minimum= 1, maximum= 16. \n
1163:C:/Workspaces/DAVE-4.4.2-64Bit/RoverX/Libraries/XMCLib/inc\xmc_usic.h ****  *             e.g: For word length of 8, \a word_length should be provided as 8.
1164:C:/Workspaces/DAVE-4.4.2-64Bit/RoverX/Libraries/XMCLib/inc\xmc_usic.h ****  * @return None
1165:C:/Workspaces/DAVE-4.4.2-64Bit/RoverX/Libraries/XMCLib/inc\xmc_usic.h ****  *
1166:C:/Workspaces/DAVE-4.4.2-64Bit/RoverX/Libraries/XMCLib/inc\xmc_usic.h ****  * \par<b>Description</b><br>
1167:C:/Workspaces/DAVE-4.4.2-64Bit/RoverX/Libraries/XMCLib/inc\xmc_usic.h ****  * Sets the data word length in number of bits. \n\n
1168:C:/Workspaces/DAVE-4.4.2-64Bit/RoverX/Libraries/XMCLib/inc\xmc_usic.h ****  * Sets the number of bits to represent a data word. Frame length should be a multiple of word leng
1169:C:/Workspaces/DAVE-4.4.2-64Bit/RoverX/Libraries/XMCLib/inc\xmc_usic.h ****  *
1170:C:/Workspaces/DAVE-4.4.2-64Bit/RoverX/Libraries/XMCLib/inc\xmc_usic.h ****  * \par<b>Related APIs:</b><BR>
1171:C:/Workspaces/DAVE-4.4.2-64Bit/RoverX/Libraries/XMCLib/inc\xmc_usic.h ****  * XMC_USIC_CH_SetFrameLength()\n\n\n
1172:C:/Workspaces/DAVE-4.4.2-64Bit/RoverX/Libraries/XMCLib/inc\xmc_usic.h ****  */
1173:C:/Workspaces/DAVE-4.4.2-64Bit/RoverX/Libraries/XMCLib/inc\xmc_usic.h **** __STATIC_INLINE void XMC_USIC_CH_SetShiftDirection(XMC_USIC_CH_t *const channel, const XMC_USIC_CH_
1174:C:/Workspaces/DAVE-4.4.2-64Bit/RoverX/Libraries/XMCLib/inc\xmc_usic.h **** {
1175:C:/Workspaces/DAVE-4.4.2-64Bit/RoverX/Libraries/XMCLib/inc\xmc_usic.h ****   channel->SCTR = (uint32_t)(channel->SCTR & (~USIC_CH_SCTR_SDIR_Msk)) | (uint32_t)shift_direction;
1176:C:/Workspaces/DAVE-4.4.2-64Bit/RoverX/Libraries/XMCLib/inc\xmc_usic.h **** }
1177:C:/Workspaces/DAVE-4.4.2-64Bit/RoverX/Libraries/XMCLib/inc\xmc_usic.h **** 
1178:C:/Workspaces/DAVE-4.4.2-64Bit/RoverX/Libraries/XMCLib/inc\xmc_usic.h **** 
1179:C:/Workspaces/DAVE-4.4.2-64Bit/RoverX/Libraries/XMCLib/inc\xmc_usic.h **** /**
1180:C:/Workspaces/DAVE-4.4.2-64Bit/RoverX/Libraries/XMCLib/inc\xmc_usic.h ****  * @param  channel Pointer to USIC channel handler of type @ref XMC_USIC_CH_t \n
1181:C:/Workspaces/DAVE-4.4.2-64Bit/RoverX/Libraries/XMCLib/inc\xmc_usic.h ****  *           \b Range: @ref XMC_USIC0_CH0, @ref XMC_USIC0_CH1 to @ref XMC_USIC2_CH1 based on device
1182:C:/Workspaces/DAVE-4.4.2-64Bit/RoverX/Libraries/XMCLib/inc\xmc_usic.h ****  * @return Captured counter value
1183:C:/Workspaces/DAVE-4.4.2-64Bit/RoverX/Libraries/XMCLib/inc\xmc_usic.h ****  *
1184:C:/Workspaces/DAVE-4.4.2-64Bit/RoverX/Libraries/XMCLib/inc\xmc_usic.h ****  *
1185:C:/Workspaces/DAVE-4.4.2-64Bit/RoverX/Libraries/XMCLib/inc\xmc_usic.h ****  * \par<b>Description</b><br>
1186:C:/Workspaces/DAVE-4.4.2-64Bit/RoverX/Libraries/XMCLib/inc\xmc_usic.h ****  * The value of the counter is captured if one of the trigger signals DX0T or DX1T are activated by
1187:C:/Workspaces/DAVE-4.4.2-64Bit/RoverX/Libraries/XMCLib/inc\xmc_usic.h ****  */
1188:C:/Workspaces/DAVE-4.4.2-64Bit/RoverX/Libraries/XMCLib/inc\xmc_usic.h **** __STATIC_INLINE uint32_t XMC_USIC_CH_GetCaptureTimerValue(const XMC_USIC_CH_t *const channel)
1189:C:/Workspaces/DAVE-4.4.2-64Bit/RoverX/Libraries/XMCLib/inc\xmc_usic.h **** {
1190:C:/Workspaces/DAVE-4.4.2-64Bit/RoverX/Libraries/XMCLib/inc\xmc_usic.h ****   return channel->CMTR;
1191:C:/Workspaces/DAVE-4.4.2-64Bit/RoverX/Libraries/XMCLib/inc\xmc_usic.h **** }
1192:C:/Workspaces/DAVE-4.4.2-64Bit/RoverX/Libraries/XMCLib/inc\xmc_usic.h **** 
1193:C:/Workspaces/DAVE-4.4.2-64Bit/RoverX/Libraries/XMCLib/inc\xmc_usic.h **** /**
1194:C:/Workspaces/DAVE-4.4.2-64Bit/RoverX/Libraries/XMCLib/inc\xmc_usic.h ****  * @param  channel Pointer to USIC channel handler of type @ref XMC_USIC_CH_t \n
1195:C:/Workspaces/DAVE-4.4.2-64Bit/RoverX/Libraries/XMCLib/inc\xmc_usic.h ****  *           \b Range: @ref XMC_USIC0_CH0, @ref XMC_USIC0_CH1 to @ref XMC_USIC2_CH1 based on device
1196:C:/Workspaces/DAVE-4.4.2-64Bit/RoverX/Libraries/XMCLib/inc\xmc_usic.h ****  * @param  mode divider mode ::XMC_USIC_CH_BRG_CLOCK_DIVIDER_MODE_t \n
